(dp0
S'adult-0-adult-10-adult-14-adult-8-adult-9:adult-2'
p1
I0
sS'adult-0-adult-10-adult-14-adult-8-adult-9:adult-4'
p2
I0
sS'adult-0-adult-11-adult-12-adult-2-adult-9:adult-8'
p3
F5185966.196211874
sS'adult-0-adult-11-adult-12-adult-2-adult-9:adult-4'
p4
I0
sS'adult-10-adult-11-adult-14-adult-2-adult-4:adult-12'
p5
I0
sS'adult-0-adult-12-adult-14-adult-2-adult-4:adult-9'
p6
F3050748.3872529115
sS'adult-0-adult-12-adult-14-adult-2-adult-4:adult-8'
p7
F2792124.596953521
sS'adult-0-adult-4-adult-9:adult-2'
p8
I0
sS'adult-0-adult-10-adult-11-adult-2-adult-4:adult-12'
p9
I0
sS'adult-0-adult-10-adult-11-adult-2-adult-4:adult-14'
p10
F10589072.155965831
sS'adult-0-adult-10-adult-2-adult-4:adult-14'
p11
F2647537.519516539
sS'adult-10-adult-11-adult-2-adult-4:adult-14'
p12
F2117814.4311930765
sS'adult-0-adult-2-adult-4-adult-9:adult-8'
p13
F954992.6922943994
sS'adult-0-adult-4-adult-8:adult-2'
p14
I0
sS'adult-0-adult-10-adult-12-adult-2:adult-14'
p15
F3749719.976089559
sS'adult-0-adult-10-adult-12-adult-2:adult-11'
p16
I0
sS'adult-10-adult-12-adult-9:adult-2'
p17
I0
sS'adult-0-adult-11-adult-14-adult-9:adult-2'
p18
I0
sS'adult-10-adult-12-adult-9:adult-0'
p19
I0
sS'adult-0-adult-10-adult-12-adult-14-adult-2:adult-4'
p20
I0
sS'adult-11-adult-14-adult-2-adult-8:adult-9'
p21
F393577.4435349409
sS'adult-10-adult-12-adult-9:adult-4'
p22
I0
sS'adult-0-adult-4:adult-10'
p23
I0
sS'adult-11-adult-14-adult-2-adult-8:adult-4'
p24
I0
sS'adult-0-adult-10-adult-12-adult-2-adult-8:adult-14'
p25
F3714239.7575550997
sS'adult-10-adult-12-adult-9:adult-8'
p26
F155167.27054105964
sS'adult-0-adult-10-adult-12-adult-2-adult-8:adult-11'
p27
I0
sS'adult-0-adult-10-adult-12-adult-14-adult-2:adult-9'
p28
F4292528.758735441
sS'adult-0-adult-10-adult-12-adult-14-adult-2:adult-8'
p29
F3883500.4071061793
sS'adult-0-adult-10-adult-14-adult-8:adult-11'
p30
I0
sS'adult-11-adult-2-adult-4-adult-9:adult-0'
p31
I0
sS'adult-0-adult-10-adult-14-adult-8:adult-12'
p32
I0
sS'adult-0-adult-4:adult-11'
p33
I0
sS'adult-11-adult-2-adult-4-adult-9:adult-8'
p34
F764065.8976235555
sS'adult-12-adult-14-adult-4-adult-8:adult-11'
p35
I0
sS'adult-12-adult-14-adult-4-adult-8:adult-10'
p36
I0
sS'adult-10-adult-14-adult-4-adult-8-adult-9:adult-0'
p37
I0
sS'adult-0-adult-4:adult-14'
p38
F178686.88065712544
sS'adult-10-adult-14-adult-4-adult-8-adult-9:adult-2'
p39
I0
sS'adult-0-adult-11-adult-4-adult-8:adult-10'
p40
I0
sS'adult-0-adult-10-adult-12-adult-14-adult-4:adult-11'
p41
I0
sS'adult-10-adult-14-adult-4-adult-8-adult-9:adult-11'
p42
I0
sS'adult-10-adult-14-adult-9:adult-8'
p43
F52952.782926866734
sS'adult-0-adult-2-adult-9:adult-4'
p44
I0
sS'adult-0-adult-2-adult-9:adult-8'
p45
F445489.67980901216
sS'adult-0:adult-4'
p46
I0
sS'adult-12-adult-14-adult-2-adult-4-adult-8-adult-9:adult-10'
p47
I0
sS'adult-12-adult-14-adult-2-adult-4-adult-8-adult-9:adult-11'
p48
I0
sS'adult-0-adult-4-adult-9:adult-8'
p49
F190998.53845888982
sS'adult-10-adult-12-adult-14:adult-11'
p50
I0
sS'adult-10-adult-14-adult-2-adult-4-adult-9:adult-8'
p51
F568877.2832843253
sS'adult-0:adult-8'
p52
F90156.146588678
sS'adult-14-adult-2-adult-4-adult-8-adult-9:adult-12'
p53
I0
sS'adult-14-adult-2-adult-4-adult-8-adult-9:adult-10'
p54
I0
sS'adult-14-adult-2-adult-4-adult-8-adult-9:adult-11'
p55
I0
sS'adult-0-adult-11-adult-14-adult-4-adult-9:adult-12'
p56
I0
sS'adult-0-adult-11-adult-14-adult-4-adult-9:adult-10'
p57
I0
sS'adult-0-adult-14-adult-2-adult-4-adult-9:adult-8'
p58
F950241.5243685127
sS'adult-0-adult-10-adult-4-adult-8:adult-9'
p59
F650799.8009044557
sS'adult-11-adult-14-adult-9:adult-12'
p60
I0
sS'adult-11-adult-14-adult-9:adult-10'
p61
I0
sS'adult-0-adult-2-adult-8-adult-9:adult-10'
p62
I0
sS'adult-0-adult-10-adult-11-adult-14-adult-8:adult-4'
p63
I0
sS'adult-11-adult-14-adult-2-adult-4-adult-9:adult-10'
p64
I0
sS'adult-11-adult-14-adult-2-adult-4-adult-9:adult-12'
p65
I0
sS'adult-0-adult-10-adult-11-adult-14-adult-8:adult-2'
p66
I0
sS'adult-0-adult-10-adult-12-adult-8:adult-4'
p67
I0
sS'adult-0-adult-10-adult-11-adult-14-adult-8:adult-9'
p68
F1178415.2549899032
sS'adult-12-adult-14-adult-4:adult-11'
p69
I0
sS'adult-12-adult-14-adult-4:adult-10'
p70
I0
sS'adult-12-adult-2-adult-4-adult-9:adult-14'
p71
F480303.32949884137
sS'adult-12-adult-2-adult-4-adult-9:adult-10'
p72
I0
sS'adult-12-adult-2-adult-4-adult-9:adult-11'
p73
I0
sS'adult-10-adult-14-adult-2:adult-11'
p74
I0
sS'adult-0-adult-10-adult-4-adult-9:adult-14'
p75
F503135.4046433692
sS'adult-0-adult-10-adult-4-adult-9:adult-11'
p76
I0
sS'adult-0-adult-10-adult-4-adult-9:adult-12'
p77
I0
sS'adult-12-adult-2-adult-4-adult-8-adult-9:adult-0'
p78
I0
sS'adult-0-adult-10-adult-12-adult-14-adult-2-adult-4:adult-11'
p79
I0
sS'adult-10-adult-11-adult-14-adult-2-adult-8-adult-9:adult-0'
p80
I0
sS'adult-10-adult-11-adult-14-adult-2-adult-8-adult-9:adult-4'
p81
I0
sS'adult-14-adult-2-adult-8-adult-9:adult-12'
p82
I0
sS'adult-14-adult-2-adult-8-adult-9:adult-10'
p83
I0
sS'adult-14-adult-2-adult-8-adult-9:adult-11'
p84
I0
sS'adult-14-adult-4-adult-8-adult-9:adult-2'
p85
I0
sS'adult-14-adult-4-adult-8-adult-9:adult-0'
p86
I0
sS'adult-0-adult-10-adult-11-adult-12-adult-2-adult-8:adult-14'
p87
F14857059.238110337
sS'adult-10-adult-11-adult-4:adult-8'
p88
F462782.05303359707
sS'adult-11-adult-14-adult-2-adult-8:adult-0'
p89
I0
sS'adult-0-adult-14-adult-2:adult-8'
p90
F446153.5677651805
sS'adult-10-adult-11-adult-4:adult-0'
p91
I0
sS'adult-10-adult-11-adult-4:adult-2'
p92
I0
sS'adult-0-adult-11-adult-12-adult-2-adult-4-adult-8:adult-9'
p93
F12537217.445413275
sS'adult-10-adult-14:adult-0'
p94
I0
sS'adult-10-adult-14:adult-2'
p95
I0
sS'adult-12-adult-9:adult-8'
p96
F51858.2525310582
sS'adult-10-adult-14:adult-4'
p97
I0
sS'adult-12-adult-9:adult-4'
p98
I0
sS'adult-10-adult-14:adult-8'
p99
F53383.480185932814
sS'adult-12-adult-9:adult-0'
p100
I0
sS'adult-12-adult-9:adult-2'
p101
I0
sS'adult-0-adult-10:adult-12'
p102
I0
sS'adult-0-adult-12-adult-2-adult-4:adult-11'
p103
I0
sS'adult-10-adult-12-adult-14-adult-8:adult-9'
p104
F170618.7685858496
sS'adult-14-adult-2-adult-4:adult-0'
p105
I0
sS'adult-12-adult-2-adult-4-adult-9:adult-8'
p106
F556486.8264767907
sS'adult-14-adult-2-adult-4:adult-9'
p107
F210882.2079202244
sS'adult-14-adult-2-adult-4:adult-8'
p108
F191781.2330431195
sS'adult-12-adult-2-adult-4-adult-9:adult-0'
p109
I0
sS'adult-0-adult-10-adult-11-adult-12-adult-4:adult-14'
p110
F5972149.703175426
sS'adult-0-adult-10-adult-12-adult-14-adult-2-adult-4-adult-9:adult-11'
p111
I0
sS'adult-0-adult-12-adult-4:adult-11'
p112
I0
sS'adult-0-adult-12-adult-4:adult-10'
p113
I0
sS'adult-0-adult-12-adult-4:adult-14'
p114
F503187.7553495548
sS'adult-0-adult-11-adult-12-adult-2-adult-8:adult-9'
p115
F5891285.717450028
sS'adult-10-adult-11-adult-12-adult-8:adult-4'
p116
I0
sS'adult-10-adult-11-adult-12-adult-8:adult-2'
p117
I0
sS'adult-10-adult-11-adult-12-adult-8:adult-0'
p118
I0
sS'adult-0-adult-10-adult-12-adult-2-adult-8-adult-9:adult-4'
p119
I0
sS'adult-10-adult-12-adult-9:adult-11'
p120
I0
sS'adult-0-adult-4-adult-8:adult-9'
p121
F217468.41637490992
sS'adult-0-adult-10-adult-11-adult-12-adult-14-adult-2-adult-9:adult-4'
p122
I0
sS'adult-10-adult-11-adult-2-adult-8-adult-9:adult-0'
p123
I0
sS'adult-10-adult-14-adult-2-adult-4:adult-0'
p124
I0
sS'adult-10-adult-11-adult-2-adult-8-adult-9:adult-4'
p125
I0
sS'adult-0-adult-10-adult-11-adult-12-adult-14-adult-2-adult-9:adult-8'
p126
F15431213.514157994
sS'adult-11-adult-12-adult-4-adult-9:adult-0'
p127
I0
sS'adult-11-adult-12-adult-4-adult-9:adult-2'
p128
I0
sS'adult-11-adult-12-adult-4-adult-9:adult-8'
p129
F445312.32445476763
sS'adult-0-adult-9:adult-12'
p130
I0
sS'adult-0-adult-9:adult-10'
p131
I0
sS'adult-10-adult-11-adult-14-adult-2-adult-9:adult-8'
p132
F1059206.0855655484
sS'adult-0-adult-14-adult-4-adult-9:adult-10'
p133
I0
sS'adult-10-adult-11-adult-14-adult-2-adult-9:adult-0'
p134
I0
sS'adult-10-adult-11-adult-14-adult-2-adult-9:adult-4'
p135
I0
sS'adult-0-adult-11-adult-14-adult-2-adult-4-adult-8:adult-12'
p136
I0
sS'adult-10-adult-14-adult-2-adult-9:adult-11'
p137
I0
sS'adult-10-adult-11-adult-12-adult-2-adult-4:adult-14'
p138
F5972149.703175426
sS'adult-0-adult-11-adult-12-adult-14-adult-2-adult-4-adult-8:adult-9'
p139
F12117644.773924194
sS'adult-0-adult-12-adult-14-adult-2-adult-4-adult-8:adult-9'
p140
F3029164.033237756
sS'adult-4:adult-11'
p141
I0
sS'adult-4:adult-10'
p142
I0
sS'adult-4:adult-12'
p143
I0
sS'adult-4:adult-14'
p144
F35737.37613142509
sS'adult-10-adult-14-adult-2-adult-8:adult-4'
p145
I0
sS'adult-10-adult-14-adult-2-adult-8:adult-0'
p146
I0
sS'adult-0-adult-11-adult-12-adult-14-adult-4-adult-8-adult-9:adult-10'
p147
I0
sS'adult-0-adult-12-adult-4-adult-8-adult-9:adult-2'
p148
I0
sS'adult-0-adult-10-adult-12-adult-14-adult-2:adult-11'
p149
I0
sS'adult-10-adult-12-adult-14-adult-2-adult-8-adult-9:adult-4'
p150
I0
sS'adult-14-adult-8:adult-4'
p151
I0
sS'adult-0-adult-10-adult-12-adult-8-adult-9:adult-4'
p152
I0
sS'adult-10-adult-12-adult-14-adult-2-adult-8-adult-9:adult-0'
p153
I0
sS'adult-10-adult-11-adult-12-adult-4-adult-8-adult-9:adult-14'
p154
F1136222.4478425607
sS'adult-14-adult-8:adult-2'
p155
I0
sS'adult-11-adult-4-adult-9:adult-2'
p156
I0
sS'adult-11-adult-4-adult-9:adult-0'
p157
I0
sS'adult-11-adult-14-adult-4:adult-10'
p158
I0
sS'adult-0-adult-10-adult-11-adult-12-adult-14-adult-2-adult-8-adult-9:adult-4'
p159
I0
sS'adult-11-adult-14-adult-4:adult-12'
p160
I0
sS'adult-11-adult-4-adult-9:adult-8'
p161
F152813.17952470976
sS'adult-10-adult-12-adult-4-adult-8-adult-9:adult-11'
p162
I0
sS'adult-10-adult-12-adult-4-adult-8-adult-9:adult-14'
p163
F283846.1856902128
sS'adult-11:adult-2'
p164
I0
sS'adult-11:adult-0'
p165
I0
sS'adult-11:adult-4'
p166
I0
sS'adult-11:adult-8'
p167
F72117.64036560224
sS'adult-11:adult-9'
p168
F82642.18494706716
sS'adult-10-adult-11-adult-12-adult-2-adult-8:adult-14'
p169
F2971411.8476219275
sS'adult-10-adult-2-adult-4:adult-9'
p170
F657743.1118989016
sS'adult-11-adult-8:adult-9'
p171
F81799.48739351457
sS'adult-0-adult-11-adult-2-adult-9:adult-14'
p172
F1713496.2592693837
sS'adult-10-adult-2-adult-4:adult-8'
p173
F578473.0908973891
sS'adult-11-adult-8:adult-2'
p174
I0
sS'adult-0-adult-11-adult-12-adult-14-adult-2-adult-4:adult-8'
p175
F11171625.035230603
sS'adult-0-adult-11-adult-12-adult-14-adult-2-adult-4:adult-9'
p176
F12199006.351318596
sS'adult-0-adult-14-adult-4:adult-9'
p177
F210882.2079202244
sS'adult-11-adult-8:adult-4'
p178
I0
sS'adult-0-adult-10-adult-2-adult-4-adult-9:adult-12'
p179
I0
sS'adult-0-adult-4:adult-12'
p180
I0
sS'adult-0-adult-10-adult-2-adult-9:adult-8'
p181
F1332513.1089215134
sS'adult-0-adult-10-adult-2-adult-4-adult-9:adult-14'
p182
F2515677.023216936
sS'adult-0-adult-10-adult-2-adult-9:adult-4'
p183
I0
sS'adult-0-adult-12-adult-2:adult-14'
p184
F1264010.744036066
sS'adult-0-adult-12-adult-2:adult-11'
p185
I0
sS'adult-0-adult-12-adult-2:adult-10'
p186
I0
sS'adult-0-adult-10-adult-11-adult-9:adult-14'
p187
F1015416.6813490563
sS'adult-11-adult-8:adult-14'
p188
F71153.56986292907
sS'adult-0-adult-12-adult-14-adult-2-adult-4:adult-10'
p189
I0
sS'adult-0-adult-11-adult-12-adult-14-adult-4-adult-8:adult-10'
p190
I0
sS'adult-10-adult-12-adult-2-adult-4-adult-8:adult-11'
p191
I0
sS'adult-0-adult-11-adult-12-adult-14-adult-8-adult-9:adult-2'
p192
I0
sS'adult-0-adult-11-adult-12-adult-14-adult-8-adult-9:adult-4'
p193
I0
sS'adult-10-adult-11-adult-14-adult-2-adult-4-adult-9:adult-8'
p194
F2276730.0302902777
sS'adult-11-adult-2-adult-4-adult-9:adult-10'
p195
I0
sS'adult-0-adult-12-adult-4-adult-8-adult-9:adult-10'
p196
I0
sS'adult-11-adult-2-adult-4-adult-9:adult-12'
p197
I0
sS'adult-14-adult-2-adult-4-adult-9:adult-0'
p198
I0
sS'adult-11-adult-2-adult-4-adult-9:adult-14'
p199
F678903.4164966587
sS'adult-0-adult-12-adult-4-adult-8-adult-9:adult-14'
p200
F477924.55160966684
sS'adult-14-adult-2-adult-4-adult-9:adult-8'
p201
F190048.30487366248
sS'adult-10-adult-12-adult-2-adult-4-adult-8:adult-14'
p202
F1481487.3836236468
sS'adult-2-adult-4:adult-14'
p203
F178686.88065712544
sS'adult-2-adult-4:adult-12'
p204
I0
sS'adult-2-adult-4:adult-11'
p205
I0
sS'adult-2-adult-4:adult-10'
p206
I0
sS'adult-11-adult-12-adult-14-adult-4-adult-8:adult-10'
p207
I0
sS'adult-12-adult-14-adult-4-adult-8-adult-9:adult-10'
p208
I0
sS'adult-12-adult-14-adult-4-adult-8-adult-9:adult-11'
p209
I0
sS'adult-0-adult-12-adult-14-adult-4-adult-8-adult-9:adult-2'
p210
I0
sS'adult-0-adult-12-adult-14-adult-9:adult-11'
p211
I0
sS'adult-10-adult-4-adult-8-adult-9:adult-14'
p212
F100096.58160494354
sS'adult-0-adult-11-adult-14-adult-2-adult-8-adult-9:adult-4'
p213
I0
sS'adult-10-adult-4-adult-8-adult-9:adult-11'
p214
I0
sS'adult-10-adult-4-adult-8-adult-9:adult-12'
p215
I0
sS'adult-10-adult-11-adult-12-adult-2-adult-4-adult-8:adult-14'
p216
F5927562.073926127
sS'adult-11-adult-14-adult-2-adult-4-adult-8:adult-12'
p217
I0
sS'adult-11-adult-14-adult-2-adult-4-adult-8:adult-10'
p218
I0
sS'adult-0-adult-11:adult-2'
p219
I0
sS'adult-11-adult-4:adult-8'
p220
F154684.71759379195
sS'adult-0-adult-11:adult-4'
p221
I0
sS'adult-0-adult-11:adult-8'
p222
F360588.2018280111
sS'adult-0-adult-11:adult-9'
p223
F413210.92473533587
sS'adult-0-adult-10-adult-2-adult-9:adult-14'
p224
F1269418.1947698002
sS'adult-0-adult-11-adult-14-adult-2-adult-9:adult-10'
p225
I0
sS'adult-0-adult-11-adult-14-adult-2-adult-9:adult-12'
p226
I0
sS'adult-0-adult-10-adult-2-adult-9:adult-12'
p227
I0
sS'adult-10-adult-11-adult-12-adult-4:adult-14'
p228
F1194429.9406350655
sS'adult-12-adult-8-adult-9:adult-10'
p229
I0
sS'adult-0-adult-10-adult-2-adult-9:adult-11'
p230
I0
sS'adult-0-adult-11-adult-8:adult-9'
p231
F408997.4369675729
sS'adult-0-adult-10-adult-11-adult-12-adult-14-adult-2:adult-8'
p232
F15535490.926642703
sS'adult-0-adult-10-adult-11-adult-12-adult-14-adult-2:adult-9'
p233
F17164020.68488743
sS'adult-0-adult-10-adult-11-adult-12-adult-14-adult-2:adult-4'
p234
I0
sS'adult-10-adult-12-adult-14-adult-2-adult-8-adult-9:adult-11'
p235
I0
sS'adult-0-adult-11-adult-8:adult-4'
p236
I0
sS'adult-0-adult-11-adult-14-adult-4-adult-8-adult-9:adult-2'
p237
I0
sS'adult-11-adult-14-adult-4-adult-8-adult-9:adult-0'
p238
I0
sS'adult-0-adult-14-adult-4-adult-9:adult-8'
p239
F190048.30487366248
sS'adult-0-adult-8-adult-9:adult-4'
p240
I0
sS'adult-0-adult-11-adult-14-adult-2-adult-8-adult-9:adult-10'
p241
I0
sS'adult-0-adult-11-adult-14-adult-2-adult-8-adult-9:adult-12'
p242
I0
sS'adult-0-adult-14-adult-4-adult-9:adult-2'
p243
I0
sS'adult-0-adult-11-adult-4-adult-8-adult-9:adult-2'
p244
I0
sS'adult-0-adult-12-adult-2-adult-8:adult-14'
p245
F1251808.6440021263
sS'adult-0-adult-12-adult-2-adult-8:adult-11'
p246
I0
sS'adult-0-adult-12-adult-2-adult-8:adult-10'
p247
I0
sS'adult-10-adult-11-adult-14-adult-4-adult-8:adult-9'
p248
F501061.4846785213
sS'adult-0-adult-10-adult-14-adult-2-adult-4-adult-9:adult-8'
p249
F2844386.416422342
sS'adult-10-adult-11-adult-14-adult-4-adult-8:adult-0'
p250
I0
sS'adult-4-adult-8-adult-9:adult-0'
p251
I0
sS'adult-10-adult-11-adult-14-adult-4-adult-8:adult-2'
p252
I0
sS'adult-0-adult-10-adult-12-adult-14-adult-4-adult-8:adult-11'
p253
I0
sS'adult-0-adult-10-adult-11-adult-12-adult-2:adult-14'
p254
F14996952.87490056
sS'adult-0-adult-11-adult-12-adult-8:adult-9'
p255
F1178257.143490018
sS'adult-11-adult-14-adult-2-adult-4-adult-8-adult-9:adult-12'
p256
I0
sS'adult-10-adult-11-adult-2-adult-4-adult-8:adult-0'
p257
I0
sS'adult-0-adult-10:adult-2'
p258
I0
sS'adult-0-adult-11-adult-12-adult-8:adult-2'
p259
I0
sS'adult-0-adult-11-adult-12-adult-8:adult-4'
p260
I0
sS'adult-10-adult-11-adult-2-adult-4-adult-8:adult-9'
p261
F2602562.4834820176
sS'adult-12-adult-14:adult-11'
p262
I0
sS'adult-12-adult-14:adult-10'
p263
I0
sS'adult-0-adult-10-adult-14-adult-9:adult-12'
p264
I0
sS'adult-10-adult-12-adult-14-adult-2-adult-4-adult-9:adult-8'
p265
F1659893.779558295
sS'adult-0-adult-10-adult-14-adult-9:adult-11'
p266
I0
sS'adult-10-adult-11:adult-9'
p267
F247234.3027615642
sS'adult-10-adult-11-adult-12-adult-14-adult-4-adult-9:adult-8'
p268
F1329287.4620587144
sS'adult-10-adult-12-adult-14-adult-2-adult-4-adult-9:adult-0'
p269
I0
sS'adult-10-adult-11-adult-12-adult-14-adult-4-adult-9:adult-2'
p270
I0
sS'adult-2-adult-8:adult-9'
p271
F102285.61358647357
sS'adult-10-adult-11-adult-12-adult-14-adult-4-adult-9:adult-0'
p272
I0
sS'adult-0-adult-10-adult-12-adult-2-adult-4-adult-8:adult-9'
p273
F9386624.975848222
sS'adult-0-adult-2-adult-4:adult-9'
p274
F1099163.1633543517
sS'adult-10-adult-11-adult-12-adult-9:adult-14'
p275
F574714.8012677126
sS'adult-0-adult-12-adult-14:adult-11'
p276
I0
sS'adult-0-adult-12-adult-14:adult-10'
p277
I0
sS'adult-0-adult-12-adult-2:adult-9'
p278
F1486739.3757013003
sS'adult-0-adult-12-adult-2:adult-8'
p279
F1309928.5955453326
sS'adult-0-adult-11-adult-12-adult-2-adult-8:adult-10'
p280
I0
sS'adult-0-adult-11-adult-12-adult-2-adult-8:adult-14'
p281
F5007055.157002643
sS'adult-0-adult-12-adult-2:adult-4'
p282
I0
sS'adult-11-adult-12-adult-14:adult-0'
p283
I0
sS'adult-11-adult-12-adult-14:adult-2'
p284
I0
sS'adult-11-adult-12-adult-14:adult-4'
p285
I0
sS'adult-11-adult-12-adult-14:adult-8'
p286
F207642.76037196477
sS'adult-11-adult-12-adult-14:adult-9'
p287
F229296.7034006501
sS'adult-10-adult-14-adult-2-adult-8-adult-9:adult-11'
p288
I0
sS'adult-10-adult-4-adult-8:adult-2'
p289
I0
sS'adult-10-adult-4-adult-8:adult-0'
p290
I0
sS'adult-10-adult-4-adult-8:adult-9'
p291
F130159.96018089044
sS'adult-11-adult-14-adult-4-adult-9:adult-12'
p292
I0
sS'adult-10-adult-14-adult-9:adult-0'
p293
I0
sS'adult-11-adult-14-adult-4-adult-9:adult-10'
p294
I0
sS'adult-10-adult-11-adult-2-adult-8-adult-9:adult-12'
p295
I0
sS'adult-10-adult-11-adult-2-adult-8-adult-9:adult-14'
p296
F1008623.3314427823
sS'adult-0-adult-10-adult-14-adult-4-adult-8:adult-9'
p297
F626351.8495052157
sS'adult-10-adult-12-adult-14-adult-2-adult-4:adult-11'
p298
I0
sS'adult-0-adult-10-adult-11-adult-12-adult-2-adult-4-adult-9:adult-14'
p299
F28506914.045529213
sS'adult-0-adult-10-adult-14-adult-4-adult-8:adult-2'
p300
I0
sS'adult-4-adult-8-adult-9:adult-10'
p301
I0
sS'adult-0-adult-12-adult-2-adult-9:adult-4'
p302
I0
sS'adult-0-adult-12-adult-2-adult-9:adult-8'
p303
F1296456.313276438
sS'adult-0-adult-11-adult-12-adult-4:adult-8'
p304
F2250304.539074558
sS'adult-10-adult-11-adult-14-adult-2-adult-4-adult-9:adult-12'
p305
I0
sS'adult-0-adult-14-adult-2-adult-8:adult-4'
p306
I0
sS'adult-10-adult-14-adult-4:adult-9'
p307
F126274.20252779561
sS'adult-10-adult-14-adult-4:adult-8'
p308
F114779.28928361126
sS'adult-10-adult-14-adult-4:adult-0'
p309
I0
sS'adult-0-adult-10-adult-4-adult-8:adult-2'
p310
I0
sS'adult-0-adult-14-adult-2-adult-4-adult-8:adult-11'
p311
I0
sS'adult-0-adult-14-adult-2-adult-4-adult-8:adult-10'
p312
I0
sS'adult-0-adult-14-adult-2-adult-4-adult-8:adult-12'
p313
I0
sS'adult-0-adult-10-adult-12-adult-14-adult-2-adult-4-adult-9:adult-8'
p314
F8299468.897793937
sS'adult-0-adult-10-adult-11-adult-12-adult-14-adult-2-adult-4-adult-9:adult-8'
p315
F33232186.551459555
sS'adult-0-adult-10-adult-12-adult-4:adult-14'
p316
F1493139.4913955566
sS'adult-0-adult-10-adult-12-adult-4:adult-11'
p317
I0
sS'adult-10-adult-14-adult-9:adult-4'
p318
I0
sS'adult-10-adult-12-adult-8:adult-2'
p319
I0
sS'adult-10-adult-12-adult-8:adult-0'
p320
I0
sS'adult-10-adult-12-adult-8:adult-4'
p321
I0
sS'adult-0-adult-10-adult-12-adult-2-adult-9:adult-14'
p322
F3592304.3381373994
sS'adult-0-adult-11-adult-4-adult-9:adult-14'
p323
F678903.4164966587
sS'adult-0-adult-10-adult-12-adult-2-adult-9:adult-11'
p324
I0
sS'adult-10-adult-14-adult-2-adult-9:adult-4'
p325
I0
sS'adult-10-adult-14-adult-2-adult-9:adult-0'
p326
I0
sS'adult-0-adult-10-adult-11-adult-4:adult-12'
p327
I0
sS'adult-0-adult-2-adult-8:adult-9'
p328
F511428.06793236954
sS'adult-0-adult-10-adult-11-adult-4:adult-14'
p329
F2117814.4311930765
sS'adult-0-adult-10-adult-2-adult-4:adult-9'
p330
F3288715.559494498
sS'adult-0-adult-10-adult-2-adult-4:adult-8'
p331
F2892365.4544852283
sS'adult-10-adult-12-adult-8:adult-11'
p332
I0
sS'adult-0-adult-12-adult-14-adult-8:adult-11'
p333
I0
sS'adult-0-adult-12-adult-14-adult-8:adult-10'
p334
I0
sS'adult-10-adult-11-adult-12-adult-4:adult-2'
p335
I0
sS'adult-10-adult-11-adult-12-adult-4:adult-0'
p336
I0
sS'adult-0-adult-11-adult-12-adult-2-adult-4-adult-8-adult-9:adult-10'
p337
I0
sS'adult-10-adult-11-adult-12-adult-2-adult-4-adult-8:adult-9'
p338
F7508566.929744363
sS'adult-0-adult-11-adult-12-adult-2-adult-4-adult-8-adult-9:adult-14'
p339
F9563387.782565933
sS'adult-0-adult-11-adult-14-adult-8-adult-9:adult-12'
p340
I0
sS'adult-10-adult-11-adult-12-adult-4:adult-8'
p341
F1347061.648331975
sS'adult-10-adult-11-adult-12-adult-4:adult-9'
p342
F1515433.4582434897
sS'adult-10-adult-11-adult-12-adult-2-adult-4-adult-8:adult-0'
p343
I0
sS'adult-11-adult-2-adult-4-adult-8:adult-12'
p344
I0
sS'adult-11-adult-2-adult-4-adult-8:adult-10'
p345
I0
sS'adult-11-adult-12-adult-14-adult-2-adult-4-adult-8-adult-9:adult-10'
p346
I0
sS'adult-0-adult-10-adult-12-adult-9:adult-11'
p347
I0
sS'adult-11-adult-2-adult-4-adult-8:adult-14'
p348
F708442.8715830835
sS'adult-0-adult-10-adult-11-adult-8:adult-14'
p349
F1053943.219555076
sS'adult-0-adult-11-adult-2-adult-9:adult-10'
p350
I0
sS'adult-12-adult-14-adult-4-adult-8-adult-9:adult-2'
p351
I0
sS'adult-2-adult-4-adult-8-adult-9:adult-10'
p352
I0
sS'adult-12-adult-14-adult-4-adult-8-adult-9:adult-0'
p353
I0
sS'adult-0-adult-2-adult-4-adult-8-adult-9:adult-11'
p354
I0
sS'adult-10-adult-2-adult-4-adult-8-adult-9:adult-0'
p355
I0
sS'adult-0-adult-11-adult-14-adult-9:adult-12'
p356
I0
sS'adult-0-adult-11-adult-14-adult-9:adult-10'
p357
I0
sS'adult-0-adult-12-adult-14-adult-4:adult-11'
p358
I0
sS'adult-0-adult-12-adult-14-adult-4:adult-10'
p359
I0
sS'adult-10-adult-14-adult-2-adult-4-adult-9:adult-0'
p360
I0
sS'adult-10-adult-14-adult-2-adult-8:adult-9'
p361
F294678.2986530067
sS'adult-11-adult-12-adult-4-adult-8-adult-9:adult-0'
p362
I0
sS'adult-11-adult-12-adult-4-adult-8-adult-9:adult-2'
p363
I0
sS'adult-0-adult-14-adult-2:adult-9'
p364
F495770.5696218123
sS'adult-10-adult-12-adult-14-adult-8:adult-0'
p365
I0
sS'adult-10-adult-12-adult-14-adult-8:adult-2'
p366
I0
sS'adult-10-adult-12-adult-14-adult-8:adult-4'
p367
I0
sS'adult-0-adult-10:adult-11'
p368
I0
sS'adult-0-adult-12-adult-14-adult-2:adult-9'
p369
F1433632.8733085508
sS'adult-0-adult-12-adult-14-adult-2:adult-8'
p370
F1297726.4955114324
sS'adult-0-adult-14-adult-2:adult-4'
p371
I0
sS'adult-10-adult-11-adult-2-adult-8:adult-12'
p372
I0
sS'adult-10-adult-11-adult-12-adult-2-adult-9:adult-0'
p373
I0
sS'adult-0-adult-11-adult-12-adult-2-adult-8-adult-9:adult-14'
p374
F4812017.479664643
sS'adult-10-adult-11-adult-12-adult-2-adult-9:adult-4'
p375
I0
sS'adult-0-adult-11-adult-12-adult-2-adult-8-adult-9:adult-10'
p376
I0
sS'adult-11-adult-4:adult-14'
p377
F142933.305124504
sS'adult-10-adult-11-adult-12-adult-2-adult-9:adult-8'
p378
F3103629.9329301887
sS'adult-11-adult-4:adult-10'
p379
I0
sS'adult-11-adult-4:adult-12'
p380
I0
sS'adult-11-adult-8:adult-10'
p381
I0
sS'adult-10-adult-12-adult-2:adult-4'
p382
I0
sS'adult-11-adult-8:adult-12'
p383
I0
sS'adult-0-adult-12-adult-14-adult-2-adult-4:adult-11'
p384
I0
sS'adult-10-adult-12-adult-2:adult-0'
p385
I0
sS'adult-10-adult-11-adult-4:adult-12'
p386
I0
sS'adult-2-adult-8:adult-12'
p387
I0
sS'adult-2-adult-8:adult-11'
p388
I0
sS'adult-2-adult-8:adult-10'
p389
I0
sS'adult-10-adult-12-adult-2:adult-9'
p390
F889988.8793375224
sS'adult-10-adult-12-adult-2:adult-8'
p391
F783796.125128099
sS'adult-10-adult-11-adult-4:adult-14'
p392
F423562.88623861736
sS'adult-2-adult-8:adult-14'
p393
F88949.76555241525
sS'adult-10-adult-12-adult-14-adult-4:adult-0'
p394
I0
sS'adult-10-adult-12-adult-14-adult-4:adult-2'
p395
I0
sS'adult-10-adult-12-adult-14-adult-4:adult-9'
p396
F365427.1772220335
sS'adult-10-adult-12-adult-14-adult-4:adult-8'
p397
F334392.22513433703
sS'adult-0-adult-11-adult-9:adult-14'
p398
F342699.2518538767
sS'adult-10-adult-2:adult-8'
p399
F269631.21824393515
sS'adult-10-adult-14-adult-2:adult-12'
p400
I0
sS'adult-0-adult-14-adult-8-adult-9:adult-4'
p401
I0
sS'adult-0-adult-14-adult-8-adult-9:adult-2'
p402
I0
sS'adult-0-adult-11-adult-2-adult-9:adult-8'
p403
F1781873.5703013102
sS'adult-0-adult-10-adult-12-adult-14-adult-2-adult-9:adult-4'
p404
I0
sS'adult-0-adult-14-adult-9:adult-10'
p405
I0
sS'adult-0-adult-14-adult-9:adult-11'
p406
I0
sS'adult-0-adult-14-adult-9:adult-12'
p407
I0
sS'adult-0-adult-11-adult-2-adult-4-adult-9:adult-8'
p408
F3820329.4881175943
sS'adult-0-adult-10-adult-12-adult-14-adult-2-adult-9:adult-8'
p409
F3856440.8630166766
sS'adult-11-adult-14-adult-4-adult-8-adult-9:adult-12'
p410
I0
sS'adult-10-adult-11-adult-12-adult-14:adult-2'
p411
I0
sS'adult-0-adult-11-adult-4-adult-9:adult-12'
p412
I0
sS'adult-10-adult-11-adult-12-adult-14:adult-0'
p413
I0
sS'adult-0-adult-11-adult-4-adult-9:adult-10'
p414
I0
sS'adult-10-adult-11-adult-12-adult-14:adult-4'
p415
I0
sS'adult-0-adult-11-adult-12-adult-14-adult-4-adult-9:adult-2'
p416
I0
sS'adult-10-adult-11-adult-12-adult-14:adult-8'
p417
F621419.6370656769
sS'adult-10-adult-11-adult-12-adult-14:adult-9'
p418
F686560.8273954721
sS'adult-0-adult-11-adult-12-adult-14-adult-4-adult-9:adult-8'
p419
F2218052.691567545
sS'adult-0-adult-11-adult-12-adult-14-adult-4:adult-10'
p420
I0
sS'adult-10-adult-2-adult-8:adult-0'
p421
I0
sS'adult-10-adult-12-adult-4:adult-9'
p422
F378994.3888861999
sS'adult-10-adult-12-adult-14-adult-2:adult-11'
p423
I0
sS'adult-10-adult-12-adult-2-adult-4-adult-9:adult-8'
p424
F1665966.2841822554
sS'adult-0-adult-12-adult-4-adult-8:adult-2'
p425
I0
sS'adult-0-adult-10-adult-11-adult-14-adult-8:adult-12'
p426
I0
sS'adult-11-adult-14-adult-2-adult-8:adult-10'
p427
I0
sS'adult-0-adult-12-adult-4-adult-8:adult-9'
p428
F626974.3799588995
sS'adult-0-adult-10-adult-11-adult-14-adult-4-adult-9:adult-8'
p429
F2276730.0302902777
sS'adult-10-adult-2-adult-8:adult-9'
p430
F306035.9902040081
sS'adult-10-adult-2-adult-8:adult-4'
p431
I0
sS'adult-0-adult-10-adult-11-adult-14-adult-4-adult-9:adult-2'
p432
I0
sS'adult-0-adult-10-adult-11-adult-12-adult-2-adult-8-adult-9:adult-4'
p433
I0
sS'adult-0-adult-10-adult-11-adult-14-adult-2-adult-8:adult-9'
p434
F5892076.27494975
sS'adult-0-adult-10:adult-14'
p435
F266216.44066926365
sS'adult-0-adult-10-adult-11-adult-14-adult-2-adult-8:adult-4'
p436
I0
sS'adult-4-adult-9:adult-2'
p437
I0
sS'adult-0-adult-10-adult-14-adult-2-adult-8:adult-4'
p438
I0
sS'adult-0-adult-10-adult-12-adult-2-adult-9:adult-4'
p439
I0
sS'adult-11-adult-2-adult-8-adult-9:adult-14'
p440
F340347.8558820142
sS'adult-10-adult-12:adult-11'
p441
I0
sS'adult-11-adult-2-adult-8-adult-9:adult-10'
p442
I0
sS'adult-0-adult-10-adult-12-adult-4-adult-8:adult-9'
p443
F1877324.9951696303
sS'adult-11-adult-2-adult-8-adult-9:adult-12'
p444
I0
sS'adult-0-adult-10-adult-12-adult-2-adult-9:adult-8'
p445
F3879181.763526509
sS'adult-0-adult-10-adult-12-adult-4-adult-8:adult-2'
p446
I0
sS'adult-10-adult-11-adult-12-adult-2-adult-4-adult-8-adult-9:adult-0'
p447
I0
sS'adult-0-adult-2:adult-4'
p448
I0
sS'adult-10-adult-11-adult-12-adult-14-adult-4:adult-0'
p449
I0
sS'adult-0-adult-10-adult-11-adult-12-adult-2-adult-9:adult-8'
p450
F15518149.664651383
sS'adult-0-adult-2:adult-9'
p451
F516719.12106677715
sS'adult-0-adult-2:adult-8'
p452
F450780.73294340784
sS'adult-12-adult-14-adult-2-adult-9:adult-0'
p453
I0
sS'adult-12-adult-14-adult-2-adult-9:adult-4'
p454
I0
sS'adult-12-adult-14-adult-2-adult-9:adult-8'
p455
F257687.49707112202
sS'adult-0-adult-10-adult-14-adult-2:adult-12'
p456
I0
sS'adult-0-adult-10-adult-14-adult-2:adult-11'
p457
I0
sS'adult-11-adult-2-adult-4-adult-8:adult-0'
p458
I0
sS'adult-11-adult-2-adult-4-adult-8:adult-9'
p459
F869618.8940733122
sS'adult-0-adult-10-adult-11-adult-4-adult-9:adult-8'
p460
F2286534.371950029
sS'adult-0-adult-10-adult-11-adult-12-adult-2-adult-8:adult-4'
p461
I0
sS'adult-0-adult-10-adult-11-adult-12-adult-2-adult-8:adult-9'
p462
F17635868.62931341
sS'adult-0-adult-10-adult-11-adult-4-adult-9:adult-2'
p463
I0
sS'adult-10-adult-2-adult-9:adult-14'
p464
F253883.63895396003
sS'adult-0-adult-11-adult-12-adult-14-adult-4:adult-8'
p465
F2234325.00704624
sS'adult-0-adult-11-adult-12-adult-14-adult-4:adult-9'
p466
F2439801.270263555
sS'adult-10-adult-2-adult-9:adult-11'
p467
I0
sS'adult-10-adult-2:adult-11'
p468
I0
sS'adult-0-adult-11-adult-12-adult-14-adult-4:adult-2'
p469
I0
sS'adult-10-adult-11-adult-2-adult-8:adult-14'
p470
F1053943.219555076
sS'adult-10-adult-2-adult-8-adult-9:adult-12'
p471
I0
sS'adult-10-adult-2-adult-8-adult-9:adult-11'
p472
I0
sS'adult-0-adult-10-adult-11:adult-14'
p473
F1064716.596407449
sS'adult-10-adult-12-adult-2-adult-4-adult-8-adult-9:adult-11'
p474
I0
sS'adult-0-adult-10-adult-11:adult-12'
p475
I0
sS'adult-10-adult-12-adult-2-adult-4-adult-8-adult-9:adult-14'
p476
F1419230.9284510752
sS'adult-11-adult-14-adult-2:adult-12'
p477
I0
sS'adult-11-adult-2:adult-14'
p478
F359448.9341102411
sS'adult-11-adult-14-adult-2:adult-10'
p479
I0
sS'adult-0-adult-10-adult-11-adult-12-adult-4-adult-9:adult-14'
p480
F5701382.809106117
sS'adult-0-adult-14-adult-2-adult-4:adult-10'
p481
I0
sS'adult-0-adult-10-adult-11-adult-12-adult-4-adult-9:adult-2'
p482
I0
sS'adult-0-adult-10-adult-11-adult-14-adult-2-adult-8-adult-9:adult-12'
p483
I0
sS'adult-0-adult-10-adult-11-adult-12-adult-4-adult-9:adult-8'
p484
F6666707.880186917
sS'adult-12-adult-9:adult-14'
p485
F48436.16966573273
sS'adult-0-adult-11-adult-4-adult-8:adult-2'
p486
I0
sS'adult-12-adult-9:adult-10'
p487
I0
sS'adult-12-adult-9:adult-11'
p488
I0
sS'adult-11-adult-14-adult-2:adult-0'
p489
I0
sS'adult-11-adult-12-adult-2-adult-4-adult-8:adult-9'
p490
F2507443.4890826414
sS'adult-0-adult-11-adult-4-adult-8:adult-9'
p491
F869618.8940733122
sS'adult-10-adult-12-adult-2-adult-8-adult-9:adult-4'
p492
I0
sS'adult-14-adult-4-adult-8:adult-9'
p493
F41829.855950155616
sS'adult-10-adult-12-adult-2-adult-8-adult-9:adult-0'
p494
I0
sS'adult-10-adult-11-adult-14-adult-2-adult-9:adult-12'
p495
I0
sS'adult-14-adult-4-adult-8:adult-0'
p496
I0
sS'adult-0-adult-14-adult-4:adult-2'
p497
I0
sS'adult-10-adult-11-adult-9:adult-2'
p498
I0
sS'adult-2-adult-4-adult-8:adult-12'
p499
I0
sS'adult-2-adult-4-adult-8:adult-11'
p500
I0
sS'adult-2-adult-4-adult-8:adult-10'
p501
I0
sS'adult-0-adult-10-adult-12-adult-14:adult-9'
p502
F858505.7517470861
sS'adult-0-adult-10-adult-12-adult-14:adult-8'
p503
F776700.0814212007
sS'adult-11-adult-8-adult-9:adult-14'
p504
F68069.57117640274
sS'adult-0-adult-10-adult-11-adult-14:adult-8'
p505
F1067662.4293251287
sS'adult-11-adult-8-adult-9:adult-12'
p506
I0
sS'adult-0-adult-11-adult-12-adult-4-adult-9:adult-2'
p507
I0
sS'adult-0-adult-10-adult-11-adult-14:adult-4'
p508
I0
sS'adult-0-adult-10-adult-12-adult-14:adult-2'
p509
I0
sS'adult-0-adult-10-adult-12-adult-14:adult-4'
p510
I0
sS'adult-0-adult-10-adult-11-adult-14:adult-2'
p511
I0
sS'adult-11-adult-14-adult-2-adult-4-adult-8:adult-0'
p512
I0
sS'adult-0-adult-10-adult-14-adult-4:adult-11'
p513
I0
sS'adult-0-adult-10-adult-14-adult-4:adult-12'
p514
I0
sS'adult-14-adult-2-adult-8-adult-9:adult-0'
p515
I0
sS'adult-11-adult-14-adult-2-adult-4-adult-8:adult-9'
p516
F836480.256029887
sS'adult-10-adult-12:adult-14'
p517
F149988.79904358397
sS'adult-14-adult-2-adult-8-adult-9:adult-4'
p518
I0
sS'adult-12-adult-4:adult-11'
p519
I0
sS'adult-12-adult-4:adult-10'
p520
I0
sS'adult-12-adult-4:adult-14'
p521
F100637.55106991084
sS'adult-12-adult-2-adult-4-adult-8:adult-14'
p522
F499066.1249210492
sS'adult-0-adult-11-adult-12-adult-14-adult-8:adult-2'
p523
I0
sS'adult-0-adult-11-adult-12-adult-14-adult-8:adult-4'
p524
I0
sS'adult-10-adult-11-adult-12-adult-14-adult-9:adult-8'
p525
F617248.54056635
sS'adult-11-adult-12-adult-14-adult-2-adult-9:adult-10'
p526
I0
sS'adult-0-adult-10-adult-11-adult-14-adult-2-adult-4-adult-8:adult-9'
p527
F12526537.11696449
sS'adult-0-adult-11-adult-12-adult-14-adult-2:adult-4'
p528
I0
sS'adult-10-adult-2-adult-4-adult-8:adult-11'
p529
I0
sS'adult-10-adult-2-adult-4-adult-8:adult-12'
p530
I0
sS'adult-10-adult-2-adult-4-adult-8:adult-14'
p531
F524930.8594239521
sS'adult-0-adult-11-adult-12-adult-8:adult-10'
p532
I0
sS'adult-14-adult-2-adult-8:adult-10'
p533
I0
sS'adult-0-adult-11-adult-12-adult-8:adult-14'
p534
F1001411.0314005351
sS'adult-11-adult-12-adult-14-adult-8:adult-10'
p535
I0
sS'adult-0-adult-10-adult-11-adult-2-adult-9:adult-8'
p536
F5329997.177359334
sS'adult-0-adult-10-adult-11-adult-2-adult-9:adult-4'
p537
I0
sS'adult-10-adult-9:adult-11'
p538
I0
sS'adult-10-adult-9:adult-12'
p539
I0
sS'adult-10-adult-11-adult-2:adult-9'
p540
F1236171.5138078246
sS'adult-10-adult-9:adult-14'
p541
F50776.72779079198
sS'adult-10-adult-12-adult-4-adult-9:adult-8'
p542
F333193.256836449
sS'adult-10-adult-12-adult-4-adult-9:adult-2'
p543
I0
sS'adult-12-adult-14-adult-8-adult-9:adult-4'
p544
I0
sS'adult-10-adult-12-adult-4-adult-9:adult-0'
p545
I0
sS'adult-0-adult-10-adult-9:adult-2'
p546
I0
sS'adult-10-adult-11-adult-2-adult-9:adult-8'
p547
F1065999.4354718325
sS'adult-10-adult-14-adult-2-adult-8:adult-12'
p548
I0
sS'adult-10-adult-14-adult-2-adult-8:adult-11'
p549
I0
sS'adult-10-adult-11-adult-2-adult-9:adult-0'
p550
I0
sS'adult-10-adult-11-adult-2-adult-9:adult-4'
p551
I0
sS'adult-2-adult-4-adult-8:adult-9'
p552
F217468.41637490992
sS'adult-0-adult-10-adult-12-adult-14-adult-8:adult-11'
p553
I0
sS'adult-12-adult-2-adult-9:adult-4'
p554
I0
sS'adult-2-adult-4-adult-8:adult-0'
p555
I0
sS'adult-10-adult-2-adult-8-adult-9:adult-14'
p556
F252144.9318039923
sS'adult-0-adult-14-adult-2-adult-4-adult-9:adult-12'
p557
I0
sS'adult-0-adult-14-adult-2-adult-4-adult-9:adult-10'
p558
I0
sS'adult-0-adult-14-adult-2-adult-4-adult-9:adult-11'
p559
I0
sS'adult-12-adult-14-adult-2:adult-0'
p560
I0
sS'adult-0-adult-11-adult-9:adult-4'
p561
I0
sS'adult-12-adult-14-adult-2:adult-4'
p562
I0
sS'adult-12-adult-14-adult-2:adult-9'
p563
F286726.5746617099
sS'adult-12-adult-14-adult-2:adult-8'
p564
F259545.29910228215
sS'adult-0-adult-12-adult-2-adult-4-adult-8:adult-11'
p565
I0
sS'adult-0-adult-12-adult-2-adult-4-adult-8:adult-10'
p566
I0
sS'adult-0-adult-12-adult-2-adult-4-adult-8:adult-14'
p567
F2495330.6246052072
sS'adult-11-adult-12-adult-14-adult-2-adult-4-adult-9:adult-10'
p568
I0
sS'adult-2-adult-9:adult-10'
p569
I0
sS'adult-2-adult-9:adult-11'
p570
I0
sS'adult-2-adult-9:adult-12'
p571
I0
sS'adult-2-adult-9:adult-14'
p572
F85685.48829906418
sS'adult-10-adult-11-adult-14-adult-2-adult-4-adult-8-adult-9:adult-12'
p573
I0
sS'adult-0-adult-10-adult-11-adult-12-adult-2-adult-9:adult-4'
p574
I0
sS'adult-0-adult-10-adult-14:adult-11'
p575
I0
sS'adult-0-adult-10-adult-14:adult-12'
p576
I0
sS'adult-10-adult-4-adult-8-adult-9:adult-0'
p577
I0
sS'adult-10-adult-11-adult-4:adult-9'
p578
F525987.675340044
sS'adult-10-adult-11-adult-14-adult-2-adult-8:adult-0'
p579
I0
sS'adult-14-adult-8-adult-9:adult-2'
p580
I0
sS'adult-10-adult-11-adult-14-adult-2-adult-8:adult-4'
p581
I0
sS'adult-0-adult-10-adult-12-adult-14-adult-8:adult-9'
p582
F853093.8429292436
sS'adult-11-adult-12-adult-4-adult-8-adult-9:adult-14'
p583
F382535.5113026803
sS'adult-10-adult-11-adult-2-adult-4-adult-8-adult-9:adult-14'
p584
F2002659.9832376426
sS'adult-10-adult-11-adult-2-adult-4-adult-8-adult-9:adult-12'
p585
I0
sS'adult-0-adult-14-adult-4-adult-8-adult-9:adult-2'
p586
I0
sS'adult-0-adult-10-adult-2-adult-8-adult-9:adult-14'
p587
F1260724.6590199426
sS'adult-0-adult-10-adult-2-adult-8-adult-9:adult-12'
p588
I0
sS'adult-0-adult-10-adult-2-adult-8-adult-9:adult-11'
p589
I0
sS'adult-0-adult-12:adult-14'
p590
F252802.14880721315
sS'adult-0-adult-12:adult-11'
p591
I0
sS'adult-0-adult-12:adult-10'
p592
I0
sS'adult-0-adult-11-adult-12-adult-14-adult-2-adult-9:adult-8'
p593
F5154899.464394849
sS'adult-0-adult-12-adult-2-adult-8:adult-9'
p594
F1473267.0934323894
sS'adult-0-adult-11-adult-12-adult-14-adult-2-adult-9:adult-4'
p595
I0
sS'adult-10-adult-11-adult-4-adult-9:adult-14'
p596
F402492.86497943284
sS'adult-0-adult-10-adult-11-adult-2-adult-9:adult-12'
p597
I0
sS'adult-0-adult-11-adult-12-adult-14-adult-2-adult-4-adult-8-adult-9:adult-10'
p598
I0
sS'adult-0-adult-10-adult-11-adult-2-adult-9:adult-14'
p599
F5077083.406745298
sS'adult-10-adult-12-adult-14-adult-2-adult-4-adult-8-adult-9:adult-11'
p600
I0
sS'adult-14-adult-2-adult-9:adult-8'
p601
F88499.97635283129
sS'adult-0-adult-10-adult-11-adult-4-adult-8:adult-9'
p602
F2602562.4834820176
sS'adult-0-adult-14-adult-4:adult-8'
p603
F191781.2330431195
sS'adult-0-adult-10-adult-14:adult-4'
p604
I0
sS'adult-14-adult-2-adult-9:adult-0'
p605
I0
sS'adult-0-adult-10-adult-11-adult-2-adult-8-adult-9:adult-12'
p606
I0
sS'adult-0-adult-10-adult-11-adult-4-adult-8:adult-2'
p607
I0
sS'adult-14-adult-2-adult-9:adult-4'
p608
I0
sS'adult-0-adult-10-adult-11-adult-2-adult-8-adult-9:adult-14'
p609
F5043116.6572138965
sS'adult-0-adult-12-adult-14-adult-2:adult-11'
p610
I0
sS'adult-14-adult-8:adult-11'
p611
I0
sS'adult-14-adult-8:adult-10'
p612
I0
sS'adult-0-adult-10-adult-12-adult-14-adult-4-adult-9:adult-8'
p613
F1659893.779558295
sS'adult-0-adult-12-adult-14-adult-2:adult-10'
p614
I0
sS'adult-0-adult-10-adult-12-adult-14-adult-4-adult-9:adult-2'
p615
I0
sS'adult-10-adult-4-adult-8:adult-14'
p616
F104986.17188479129
sS'adult-12-adult-14:adult-4'
p617
I0
sS'adult-12-adult-14:adult-2'
p618
I0
sS'adult-12-adult-14:adult-0'
p619
I0
sS'adult-0-adult-11-adult-12-adult-9:adult-10'
p620
I0
sS'adult-0-adult-11-adult-12-adult-9:adult-14'
p621
F968616.8422963158
sS'adult-12-adult-14:adult-9'
p622
F57345.31493234191
sS'adult-12-adult-14:adult-8'
p623
F51909.05982045652
sS'adult-11-adult-2-adult-4:adult-0'
p624
I0
sS'adult-10-adult-11-adult-14-adult-2-adult-4-adult-8:adult-0'
p625
I0
sS'adult-11-adult-2-adult-4:adult-8'
p626
F773423.5879689474
sS'adult-11-adult-2-adult-4:adult-9'
p627
F878976.5844187262
sS'adult-0-adult-14-adult-2-adult-8-adult-9:adult-4'
p628
I0
sS'adult-10-adult-11-adult-14-adult-2-adult-4-adult-8:adult-9'
p629
F2505307.4233926265
sS'adult-10-adult-14:adult-9'
p630
F59366.35698966697
sS'adult-0-adult-10-adult-11-adult-12:adult-8'
p631
F3135076.912686585
sS'adult-12-adult-14-adult-2-adult-4-adult-9:adult-11'
p632
I0
sS'adult-0-adult-10-adult-11-adult-12:adult-4'
p633
I0
sS'adult-0-adult-10-adult-11-adult-12:adult-2'
p634
I0
sS'adult-0-adult-10-adult-12-adult-8:adult-11'
p635
I0
sS'adult-10-adult-11-adult-14:adult-12'
p636
I0
sS'adult-14-adult-4-adult-8:adult-12'
p637
I0
sS'adult-14-adult-4-adult-8:adult-11'
p638
I0
sS'adult-0-adult-10-adult-12-adult-8:adult-14'
p639
F742847.9515110312
sS'adult-12-adult-14-adult-4-adult-8:adult-2'
p640
I0
sS'adult-0-adult-10-adult-12-adult-14-adult-2-adult-4:adult-8'
p641
F8359805.62836532
sS'adult-0-adult-10-adult-11-adult-14-adult-8-adult-9:adult-4'
p642
I0
sS'adult-12-adult-14-adult-4-adult-8:adult-9'
p643
F121166.5613295034
sS'adult-0-adult-10-adult-11-adult-14-adult-8-adult-9:adult-2'
p644
I0
sS'adult-12-adult-4-adult-9:adult-0'
p645
I0
sS'adult-0-adult-11-adult-14:adult-2'
p646
I0
sS'adult-12-adult-4-adult-9:adult-2'
p647
I0
sS'adult-10-adult-11-adult-12-adult-9:adult-8'
p648
F620725.986586044
sS'adult-12-adult-4-adult-9:adult-8'
p649
F111297.36529535841
sS'adult-10-adult-11-adult-12-adult-9:adult-4'
p650
I0
sS'adult-10-adult-11-adult-12-adult-9:adult-2'
p651
I0
sS'adult-10-adult-11-adult-12-adult-9:adult-0'
p652
I0
sS'adult-0-adult-10-adult-4-adult-9:adult-2'
p653
I0
sS'adult-0-adult-10-adult-11-adult-14-adult-2-adult-8:adult-12'
p654
I0
sS'adult-0-adult-10-adult-4-adult-9:adult-8'
p655
F571529.7799029761
sS'adult-0-adult-12-adult-8:adult-14'
p656
F250361.72880042475
sS'adult-0-adult-12-adult-8:adult-11'
p657
I0
sS'adult-0-adult-12-adult-8:adult-10'
p658
I0
sS'adult-0-adult-10-adult-12-adult-14-adult-4-adult-8-adult-9:adult-2'
p659
I0
sS'adult-10-adult-12-adult-14-adult-4-adult-8-adult-9:adult-11'
p660
I0
sS'adult-11-adult-2-adult-9:adult-4'
p661
I0
sS'adult-0-adult-10-adult-12-adult-4-adult-9:adult-2'
p662
I0
sS'adult-0-adult-10-adult-11-adult-14-adult-2-adult-4-adult-9:adult-12'
p663
I0
sS'adult-0-adult-4-adult-8-adult-9:adult-14'
p664
F168786.22232125443
sS'adult-11-adult-2-adult-4-adult-8-adult-9:adult-12'
p665
I0
sS'adult-0-adult-4-adult-8-adult-9:adult-12'
p666
I0
sS'adult-0-adult-4-adult-8-adult-9:adult-10'
p667
I0
sS'adult-0-adult-4-adult-8-adult-9:adult-11'
p668
I0
sS'adult-0-adult-11-adult-14-adult-4:adult-10'
p669
I0
sS'adult-10-adult-12-adult-2-adult-9:adult-0'
p670
I0
sS'adult-0-adult-11-adult-14-adult-4:adult-12'
p671
I0
sS'adult-10-adult-4:adult-11'
p672
I0
sS'adult-11-adult-2-adult-4-adult-8-adult-9:adult-14'
p673
F675304.2335396609
sS'adult-12-adult-4-adult-8:adult-11'
p674
I0
sS'adult-12-adult-4-adult-8:adult-10'
p675
I0
sS'adult-0-adult-10-adult-2-adult-4:adult-12'
p676
I0
sS'adult-12-adult-4-adult-8:adult-14'
p677
F99813.22498420955
sS'adult-0-adult-11-adult-14-adult-2-adult-4-adult-9:adult-10'
p678
I0
sS'adult-0-adult-11-adult-14-adult-2-adult-4-adult-8:adult-9'
p679
F4182401.280149341
sS'adult-10-adult-14-adult-4-adult-8:adult-9'
p680
F125270.3699010424
sS'adult-10-adult-11-adult-14-adult-2:adult-12'
p681
I0
sS'adult-10-adult-4:adult-14'
p682
F105901.50078065836
sS'adult-14-adult-4-adult-8-adult-9:adult-10'
p683
I0
sS'adult-0-adult-10-adult-11-adult-4:adult-8'
p684
F2313910.2651679246
sS'adult-0-adult-10-adult-11-adult-4:adult-9'
p685
F2629938.376700221
sS'adult-0-adult-10-adult-11-adult-4:adult-2'
p686
I0
sS'adult-0-adult-10-adult-11-adult-12-adult-2-adult-4:adult-8'
p687
F33676541.2083011
sS'adult-0-adult-10-adult-11-adult-12-adult-2-adult-4:adult-9'
p688
F37885836.45609035
sS'adult-0-adult-10-adult-12-adult-2-adult-4:adult-9'
p689
F9474859.72215523
sS'adult-0-adult-10-adult-12-adult-2-adult-4:adult-8'
p690
F8418066.167215252
sS'adult-0-adult-10-adult-11-adult-14-adult-4:adult-2'
p691
I0
sS'adult-11-adult-12-adult-2-adult-4-adult-8-adult-9:adult-10'
p692
I0
sS'adult-11-adult-12-adult-2-adult-4-adult-8-adult-9:adult-14'
p693
F1912677.5565134527
sS'adult-0-adult-10-adult-11-adult-14-adult-4:adult-8'
p694
F2296010.877301772
sS'adult-0-adult-10-adult-11-adult-14-adult-4:adult-9'
p695
F2524588.2704042783
sS'adult-11-adult-12-adult-2-adult-8:adult-4'
p696
I0
sS'adult-0-adult-11-adult-14-adult-4-adult-8-adult-9:adult-12'
p697
I0
sS'adult-11-adult-12-adult-2-adult-8:adult-0'
p698
I0
sS'adult-0-adult-11-adult-14-adult-4-adult-8-adult-9:adult-10'
p699
I0
sS'adult-0-adult-11-adult-12:adult-8'
p700
F1047873.6381737257
sS'adult-0-adult-11-adult-12:adult-9'
p701
F1188937.5424213633
sS'adult-0-adult-10-adult-11-adult-2-adult-8:adult-9'
p702
F6118675.715511055
sS'adult-0-adult-12-adult-2-adult-4-adult-8-adult-9:adult-10'
p703
I0
sS'adult-0-adult-12-adult-2-adult-4-adult-8-adult-9:adult-11'
p704
I0
sS'adult-10-adult-11-adult-14-adult-2-adult-8:adult-12'
p705
I0
sS'adult-0-adult-11-adult-12:adult-4'
p706
I0
sS'adult-0-adult-10-adult-11-adult-2-adult-8:adult-4'
p707
I0
sS'adult-0-adult-11-adult-12-adult-14-adult-2-adult-8:adult-10'
p708
I0
sS'adult-0-adult-11-adult-2:adult-9'
p709
F2066054.6236766865
sS'adult-0-adult-11-adult-2:adult-4'
p710
I0
sS'adult-10-adult-2-adult-9:adult-12'
p711
I0
sS'adult-10-adult-8:adult-14'
p712
F52700.524670998806
sS'adult-0-adult-12-adult-14-adult-4-adult-8-adult-9:adult-10'
p713
I0
sS'adult-0-adult-12-adult-14-adult-4-adult-8-adult-9:adult-11'
p714
I0
sS'adult-10-adult-8:adult-11'
p715
I0
sS'adult-10-adult-14-adult-4-adult-8:adult-2'
p716
I0
sS'adult-10:adult-14'
p717
F53243.28813385272
sS'adult-10:adult-12'
p718
I0
sS'adult-10:adult-11'
p719
I0
sS'adult-8-adult-9:adult-12'
p720
I0
sS'adult-8-adult-9:adult-10'
p721
I0
sS'adult-8-adult-9:adult-11'
p722
I0
sS'adult-8-adult-9:adult-14'
p723
F17017.505738019674
sS'adult-0-adult-10-adult-14-adult-2-adult-4-adult-8:adult-9'
p724
F3131759.2475260617
sS'adult-10-adult-12-adult-14-adult-4-adult-8:adult-9'
p725
F363013.70799941075
sS'adult-10-adult-12-adult-14-adult-4-adult-8:adult-0'
p726
I0
sS'adult-10-adult-12-adult-14-adult-4-adult-8:adult-2'
p727
I0
sS'adult-10-adult-12-adult-2-adult-4-adult-8:adult-9'
p728
F1877324.9951696303
sS'adult-0-adult-2-adult-8:adult-10'
p729
I0
sS'adult-10-adult-12-adult-2-adult-4-adult-8:adult-0'
p730
I0
sS'adult-10-adult-11-adult-14-adult-8-adult-9:adult-0'
p731
I0
sS'adult-10-adult-11-adult-14-adult-8-adult-9:adult-2'
p732
I0
sS'adult-12-adult-14-adult-2-adult-8-adult-9:adult-0'
p733
I0
sS'adult-12-adult-4:adult-0'
p734
I0
sS'adult-12-adult-4:adult-2'
p735
I0
sS'adult-12-adult-14-adult-2-adult-8-adult-9:adult-4'
p736
I0
sS'adult-12-adult-4:adult-9'
p737
F126606.82066025947
sS'adult-12-adult-4:adult-8'
p738
F112509.30996383776
sS'adult-0-adult-9:adult-8'
p739
F89097.93596179668
sS'adult-0-adult-11-adult-12-adult-9:adult-8'
p740
F1037193.2392423721
sS'adult-0-adult-10-adult-11-adult-12-adult-9:adult-14'
p741
F2873574.0063385763
sS'adult-0-adult-9:adult-2'
p742
I0
sS'adult-0-adult-11-adult-12-adult-9:adult-2'
p743
I0
sS'adult-0-adult-9:adult-4'
p744
I0
sS'adult-0-adult-11-adult-12-adult-9:adult-4'
p745
I0
sS'adult-11-adult-14:adult-2'
p746
I0
sS'adult-0-adult-10-adult-11-adult-12-adult-2-adult-9:adult-14'
p747
F14367870.031692635
sS'adult-11-adult-14:adult-0'
p748
I0
sS'adult-11-adult-14:adult-4'
p749
I0
sS'adult-10-adult-11-adult-4-adult-8:adult-0'
p750
I0
sS'adult-14:adult-12'
p751
I0
sS'adult-10-adult-11-adult-4-adult-8:adult-2'
p752
I0
sS'adult-11-adult-14:adult-9'
p753
F79292.24849579427
sS'adult-14:adult-9'
p754
F19830.822784872493
sS'adult-14:adult-8'
p755
F17846.142710607455
sS'adult-14:adult-4'
p756
I0
sS'adult-14:adult-2'
p757
I0
sS'adult-14:adult-0'
p758
I0
sS'adult-10-adult-2-adult-4-adult-9:adult-12'
p759
I0
sS'adult-14-adult-2-adult-8:adult-11'
p760
I0
sS'adult-10-adult-2-adult-4-adult-9:adult-11'
p761
I0
sS'adult-10-adult-2-adult-4-adult-9:adult-14'
p762
F503135.4046433692
sS'adult-12-adult-2-adult-9:adult-11'
p763
I0
sS'adult-11:adult-10'
p764
I0
sS'adult-0-adult-2-adult-8-adult-9:adult-11'
p765
I0
sS'adult-11:adult-12'
p766
I0
sS'adult-11:adult-14'
p767
F71889.78682204823
sS'adult-0-adult-10-adult-12-adult-14-adult-2-adult-4-adult-8-adult-9:adult-11'
p768
I0
sS'adult-10-adult-11-adult-12-adult-8:adult-9'
p769
F705434.7451725088
sS'adult-0-adult-11-adult-2-adult-4-adult-8:adult-10'
p770
I0
sS'adult-0-adult-11-adult-14-adult-2-adult-4:adult-12'
p771
I0
sS'adult-0-adult-11-adult-14-adult-2-adult-4:adult-10'
p772
I0
sS'adult-0-adult-11-adult-12-adult-2-adult-8:adult-4'
p773
I0
sS'adult-10-adult-2-adult-4-adult-8-adult-9:adult-12'
p774
I0
sS'adult-10-adult-11-adult-12-adult-14-adult-2-adult-4-adult-9:adult-8'
p775
F6646437.310293228
sS'adult-10-adult-2-adult-4-adult-8-adult-9:adult-11'
p776
I0
sS'adult-0-adult-12-adult-14-adult-2-adult-4-adult-9:adult-8'
p777
F2770540.242938329
sS'adult-10-adult-2-adult-4-adult-8-adult-9:adult-14'
p778
F500482.90802471223
sS'adult-11-adult-12-adult-14-adult-2-adult-8:adult-9'
p779
F1139249.6080224172
sS'adult-10-adult-11-adult-12-adult-14-adult-2-adult-4-adult-9:adult-0'
p780
I0
sS'adult-11-adult-12-adult-14-adult-2-adult-8:adult-4'
p781
I0
sS'adult-0-adult-10-adult-12-adult-14-adult-4:adult-9'
p782
F1827135.8861101663
sS'adult-0-adult-10-adult-12-adult-14-adult-4:adult-8'
p783
F1671961.1256717416
sS'adult-11-adult-12-adult-14-adult-2-adult-8:adult-0'
p784
I0
sS'adult-10-adult-14-adult-4-adult-8:adult-0'
p785
I0
sS'adult-11-adult-14-adult-2-adult-9:adult-10'
p786
I0
sS'adult-10-adult-12-adult-9:adult-14'
p787
F143692.1735254965
sS'adult-11-adult-14-adult-9:adult-8'
p788
F70804.66361767738
sS'adult-10-adult-11-adult-4-adult-8:adult-12'
p789
I0
sS'adult-11-adult-14-adult-9:adult-2'
p790
I0
sS'adult-11-adult-14-adult-2-adult-9:adult-12'
p791
I0
sS'adult-10-adult-11-adult-4-adult-8:adult-14'
p792
F419983.00866541744
sS'adult-11-adult-14-adult-9:adult-4'
p793
I0
sS'adult-10-adult-14-adult-2-adult-4:adult-12'
p794
I0
sS'adult-10-adult-14-adult-2-adult-4:adult-11'
p795
I0
sS'adult-0-adult-11-adult-4:adult-8'
p796
F773423.5879689474
sS'adult-0-adult-10-adult-12-adult-14-adult-4-adult-8-adult-9:adult-11'
p797
I0
sS'adult-0-adult-10-adult-11-adult-12-adult-2-adult-4-adult-8:adult-14'
p798
F29637810.369614527
sS'adult-0-adult-11-adult-4:adult-9'
p799
F878976.5844187262
sS'adult-0-adult-14-adult-4-adult-8:adult-9'
p800
F209149.27975077776
sS'adult-14-adult-4-adult-9:adult-10'
p801
I0
sS'adult-14-adult-4-adult-9:adult-11'
p802
I0
sS'adult-14-adult-4-adult-9:adult-12'
p803
I0
sS'adult-14-adult-4:adult-0'
p804
I0
sS'adult-14-adult-4:adult-9'
p805
F42176.44158404483
sS'adult-14-adult-4:adult-8'
p806
F38356.2466086228
sS'adult-0:adult-2'
p807
I0
sS'adult-10-adult-11-adult-14-adult-2-adult-4:adult-0'
p808
I0
sS'adult-10-adult-11-adult-12-adult-14-adult-4-adult-8:adult-9'
p809
F1452423.4190062257
sS'adult-0:adult-9'
p810
F103343.82421335524
sS'adult-0-adult-11-adult-4:adult-2'
p811
I0
sS'adult-10-adult-11-adult-12-adult-14-adult-4-adult-8:adult-2'
p812
I0
sS'adult-10-adult-11-adult-12-adult-14-adult-4-adult-8:adult-0'
p813
I0
sS'adult-10-adult-12-adult-4-adult-8:adult-9'
p814
F375464.99903392495
sS'adult-10-adult-12-adult-4-adult-8:adult-2'
p815
I0
sS'adult-10-adult-12-adult-4-adult-8:adult-0'
p816
I0
sS'adult-0-adult-10-adult-11-adult-12-adult-2-adult-4:adult-14'
p817
F29860748.515872244
sS'adult-0-adult-10-adult-2-adult-8:adult-9'
p818
F1530179.9510200392
sS'adult-0-adult-10-adult-2-adult-8:adult-4'
p819
I0
sS'adult-10-adult-11-adult-14-adult-2-adult-4:adult-9'
p820
F2524588.2704042783
sS'adult-0-adult-10-adult-14-adult-2-adult-8-adult-9:adult-4'
p821
I0
sS'adult-0-adult-10-adult-11-adult-14-adult-9:adult-4'
p822
I0
sS'adult-0-adult-11-adult-14-adult-2-adult-4-adult-8-adult-9:adult-10'
p823
I0
sS'adult-0-adult-11-adult-14-adult-2-adult-4-adult-8-adult-9:adult-12'
p824
I0
sS'adult-0-adult-10-adult-14-adult-4-adult-8:adult-11'
p825
I0
sS'adult-0-adult-11-adult-12-adult-14-adult-2-adult-4:adult-10'
p826
I0
sS'adult-0-adult-10-adult-14-adult-9:adult-8'
p827
F264763.91463432525
sS'adult-10-adult-9:adult-8'
p828
F53300.524356860755
sS'adult-10-adult-11-adult-14-adult-2-adult-4-adult-9:adult-0'
p829
I0
sS'adult-10-adult-9:adult-2'
p830
I0
sS'adult-11-adult-12-adult-9:adult-10'
p831
I0
sS'adult-10-adult-9:adult-0'
p832
I0
sS'adult-11-adult-12-adult-9:adult-14'
p833
F193723.3684592627
sS'adult-10-adult-9:adult-4'
p834
I0
sS'adult-0-adult-10-adult-11-adult-9:adult-12'
p835
I0
sS'adult-11-adult-12-adult-14-adult-8:adult-9'
p836
F227849.92160448374
sS'adult-10-adult-11-adult-2-adult-8:adult-9'
p837
F1223735.1431022
sS'adult-11-adult-12-adult-14-adult-8:adult-0'
p838
I0
sS'adult-11-adult-12-adult-14-adult-8:adult-2'
p839
I0
sS'adult-0-adult-14-adult-2-adult-8-adult-9:adult-11'
p840
I0
sS'adult-11-adult-12-adult-14-adult-8:adult-4'
p841
I0
sS'adult-10-adult-11-adult-2-adult-8:adult-4'
p842
I0
sS'adult-0-adult-10-adult-2:adult-14'
p843
F1331082.203346316
sS'adult-0-adult-10-adult-2:adult-11'
p844
I0
sS'adult-0-adult-10-adult-2:adult-12'
p845
I0
sS'adult-0-adult-11-adult-2-adult-4-adult-8:adult-9'
p846
F4348094.470366736
sS'adult-0-adult-14-adult-2-adult-8:adult-9'
p847
F492116.88362078246
sS'adult-0-adult-11-adult-12-adult-14-adult-9:adult-8'
p848
F1030979.8928789904
sS'adult-14-adult-4-adult-9:adult-8'
p849
F38009.66097473421
sS'adult-14-adult-4-adult-9:adult-2'
p850
I0
sS'adult-10-adult-11-adult-14-adult-2-adult-8-adult-9:adult-12'
p851
I0
sS'adult-14-adult-4-adult-9:adult-0'
p852
I0
sS'adult-0-adult-11-adult-12-adult-14-adult-9:adult-2'
p853
I0
sS'adult-0-adult-14-adult-2-adult-4:adult-11'
p854
I0
sS'adult-0-adult-11-adult-12-adult-14-adult-9:adult-4'
p855
I0
sS'adult-0-adult-14-adult-2-adult-4:adult-12'
p856
I0
sS'adult-8:adult-9'
p857
F20457.122717294744
sS'adult-0-adult-2-adult-4-adult-8-adult-9:adult-14'
p858
F843931.1116062948
sS'adult-8:adult-0'
p859
I0
sS'adult-8:adult-2'
p860
I0
sS'adult-0-adult-2-adult-4-adult-8-adult-9:adult-10'
p861
I0
sS'adult-11-adult-12-adult-2-adult-4-adult-8:adult-0'
p862
I0
sS'adult-0-adult-2-adult-4-adult-8-adult-9:adult-12'
p863
I0
sS'adult-0-adult-10-adult-11-adult-12-adult-2:adult-8'
p864
F15675384.563433198
sS'adult-0-adult-10-adult-11-adult-12-adult-2:adult-9'
p865
F17793103.52809517
sS'adult-10-adult-12-adult-14-adult-2-adult-9:adult-4'
p866
I0
sS'adult-10-adult-12-adult-14-adult-2-adult-9:adult-0'
p867
I0
sS'adult-10-adult-12-adult-2-adult-4-adult-9:adult-0'
p868
I0
sS'adult-0-adult-10-adult-11-adult-12-adult-2:adult-4'
p869
I0
sS'adult-10-adult-12-adult-14-adult-2-adult-9:adult-8'
p870
F771288.1726033658
sS'adult-10-adult-14-adult-2-adult-4-adult-8:adult-9'
p871
F626351.8495052157
sS'adult-0-adult-10-adult-11-adult-14-adult-4:adult-12'
p872
I0
sS'adult-0-adult-10-adult-11-adult-14-adult-2:adult-12'
p873
I0
sS'adult-10-adult-14-adult-2-adult-4-adult-8:adult-0'
p874
I0
sS'adult-0-adult-10-adult-11-adult-2-adult-8:adult-14'
p875
F5269716.097775374
sS'adult-0-adult-9:adult-11'
p876
I0
sS'adult-11-adult-4-adult-8:adult-2'
p877
I0
sS'adult-11-adult-4-adult-8:adult-0'
p878
I0
sS'adult-0-adult-10-adult-8:adult-4'
p879
I0
sS'adult-11-adult-4-adult-8:adult-9'
p880
F173923.77881466216
sS'adult-0-adult-9:adult-14'
p881
F85685.48829906418
sS'adult-10-adult-11-adult-12-adult-2-adult-8:adult-0'
p882
I0
sS'adult-10-adult-2:adult-14'
p883
F266216.44066926365
sS'adult-10-adult-11-adult-12-adult-2-adult-8:adult-9'
p884
F3527173.72586249
sS'adult-10-adult-11-adult-12-adult-2-adult-8:adult-4'
p885
I0
sS'adult-10-adult-2:adult-12'
p886
I0
sS'adult-2:adult-12'
p887
I0
sS'adult-2:adult-11'
p888
I0
sS'adult-2:adult-10'
p889
I0
sS'adult-0-adult-14-adult-2-adult-4-adult-8:adult-9'
p890
F1045746.3987538994
sS'adult-2:adult-14'
p891
F89875.19858805694
sS'adult-10-adult-11-adult-9:adult-4'
p892
I0
sS'adult-10-adult-14-adult-4-adult-8:adult-11'
p893
I0
sS'adult-10-adult-11-adult-9:adult-0'
p894
I0
sS'adult-10-adult-14-adult-4-adult-8:adult-12'
p895
I0
sS'adult-10-adult-11-adult-9:adult-8'
p896
F213199.88709436997
sS'adult-10-adult-11-adult-2:adult-0'
p897
I0
sS'adult-11-adult-12-adult-2-adult-4-adult-9:adult-0'
p898
I0
sS'adult-10-adult-11-adult-2:adult-4'
p899
I0
sS'adult-10-adult-11-adult-2:adult-8'
p900
F1078435.806177464
sS'adult-11-adult-12-adult-2-adult-4-adult-9:adult-8'
p901
F2226561.6222738023
sS'adult-0-adult-12-adult-2-adult-4-adult-9:adult-8'
p902
F2782434.1323842043
sS'adult-0-adult-11-adult-14-adult-2-adult-4-adult-8:adult-10'
p903
I0
sS'adult-14-adult-4-adult-8:adult-2'
p904
I0
sS'adult-0-adult-10-adult-4-adult-8-adult-9:adult-2'
p905
I0
sS'adult-10-adult-11-adult-14-adult-2-adult-8:adult-9'
p906
F1178415.2549899032
sS'adult-0-adult-2-adult-4:adult-11'
p907
I0
sS'adult-0-adult-11-adult-12-adult-2:adult-10'
p908
I0
sS'adult-11-adult-12-adult-8:adult-9'
p909
F235651.42869800408
sS'adult-0-adult-11-adult-12-adult-14-adult-2-adult-4-adult-9:adult-10'
p910
I0
sS'adult-0-adult-11-adult-12-adult-2:adult-14'
p911
F5055354.338572107
sS'adult-10-adult-2-adult-4-adult-8:adult-0'
p912
I0
sS'adult-11-adult-12-adult-8:adult-0'
p913
I0
sS'adult-11-adult-14-adult-8-adult-9:adult-12'
p914
I0
sS'adult-11-adult-12-adult-8:adult-2'
p915
I0
sS'adult-11-adult-14-adult-8-adult-9:adult-10'
p916
I0
sS'adult-11-adult-12-adult-8:adult-4'
p917
I0
sS'adult-0-adult-10-adult-12:adult-9'
p918
F889988.8793375224
sS'adult-0-adult-10-adult-12:adult-8'
p919
F783796.125128099
sS'adult-0-adult-10-adult-4-adult-8:adult-12'
p920
I0
sS'adult-0-adult-10-adult-12:adult-2'
p921
I0
sS'adult-0-adult-10-adult-12:adult-4'
p922
I0
sS'adult-0-adult-14:adult-4'
p923
I0
sS'adult-10-adult-12-adult-4-adult-8-adult-9:adult-2'
p924
I0
sS'adult-10-adult-12-adult-4-adult-8-adult-9:adult-0'
p925
I0
sS'adult-0-adult-10-adult-11-adult-12-adult-8-adult-9:adult-4'
p926
I0
sS'adult-0-adult-10-adult-11-adult-12-adult-8-adult-9:adult-2'
p927
I0
sS'adult-10-adult-11-adult-14-adult-2-adult-4:adult-8'
p928
F2296010.877301772
sS'adult-0-adult-10-adult-11-adult-2-adult-4-adult-8:adult-9'
p929
F13012812.41741049
sS'adult-2-adult-4-adult-8:adult-14'
p930
F177105.35894538695
sS'adult-0-adult-14:adult-10'
p931
I0
sS'adult-11-adult-14-adult-4-adult-9:adult-0'
p932
I0
sS'adult-0-adult-11-adult-12-adult-14-adult-9:adult-10'
p933
I0
sS'adult-0-adult-10-adult-14-adult-8-adult-9:adult-12'
p934
I0
sS'adult-0-adult-10-adult-14-adult-8-adult-9:adult-11'
p935
I0
sS'adult-11-adult-4-adult-9:adult-12'
p936
I0
sS'adult-11-adult-4-adult-9:adult-10'
p937
I0
sS'adult-11-adult-4-adult-9:adult-14'
p938
F135780.68329933207
sS'adult-0-adult-11-adult-2-adult-8-adult-9:adult-14'
p939
F1701739.2794100642
sS'adult-0-adult-11-adult-2-adult-8-adult-9:adult-10'
p940
I0
sS'adult-0-adult-14:adult-9'
p941
F99154.1139243625
sS'adult-0-adult-11-adult-2-adult-8-adult-9:adult-12'
p942
I0
sS'adult-0-adult-10-adult-11-adult-12-adult-2-adult-8-adult-9:adult-14'
p943
F14280933.88119943
sS'adult-10-adult-12-adult-4-adult-8:adult-14'
p944
F296297.4767247268
sS'adult-0-adult-14:adult-2'
p945
I0
sS'adult-10-adult-12-adult-4-adult-8:adult-11'
p946
I0
sS'adult-0-adult-10-adult-11-adult-14:adult-9'
p947
F1186871.598749431
sS'adult-0-adult-12-adult-14-adult-4:adult-9'
p948
F610149.6774505829
sS'adult-0-adult-12-adult-14-adult-4:adult-8'
p949
F558424.9193906761
sS'adult-0-adult-12-adult-14-adult-4:adult-2'
p950
I0
sS'adult-11-adult-12-adult-2-adult-4-adult-8-adult-9:adult-0'
p951
I0
sS'adult-11-adult-14-adult-2-adult-4-adult-9:adult-0'
p952
I0
sS'adult-11-adult-14-adult-2-adult-4-adult-9:adult-8'
p953
F760466.7146665205
sS'adult-0-adult-14-adult-9:adult-4'
p954
I0
sS'adult-0-adult-14-adult-9:adult-2'
p955
I0
sS'adult-0-adult-14-adult-9:adult-8'
p956
F88499.97635283129
sS'adult-0-adult-11-adult-12-adult-4-adult-9:adult-8'
p957
F2226561.6222738023
sS'adult-2-adult-4-adult-9:adult-10'
p958
I0
sS'adult-11-adult-2:adult-8'
p959
F360588.2018280111
sS'adult-10-adult-12-adult-14-adult-4-adult-9:adult-2'
p960
I0
sS'adult-10-adult-12-adult-2-adult-4:adult-11'
p961
I0
sS'adult-10-adult-11-adult-12-adult-2-adult-8-adult-9:adult-0'
p962
I0
sS'adult-11-adult-2:adult-0'
p963
I0
sS'adult-10-adult-12-adult-2-adult-4:adult-14'
p964
F1493139.4913955566
sS'adult-10-adult-11-adult-14:adult-8'
p965
F213532.48586501944
sS'adult-10-adult-11-adult-14:adult-9'
p966
F237374.31974988634
sS'adult-10-adult-11-adult-2-adult-4-adult-9:adult-0'
p967
I0
sS'adult-10-adult-11-adult-14:adult-4'
p968
I0
sS'adult-0-adult-10-adult-11-adult-14-adult-4-adult-8-adult-9:adult-12'
p969
I0
sS'adult-10-adult-11-adult-14:adult-0'
p970
I0
sS'adult-10-adult-11-adult-14:adult-2'
p971
I0
sS'adult-10-adult-11-adult-2-adult-4-adult-9:adult-8'
p972
F2286534.371950029
sS'adult-10-adult-12-adult-2-adult-4-adult-8-adult-9:adult-0'
p973
I0
sS'adult-10-adult-11-adult-4-adult-8-adult-9:adult-0'
p974
I0
sS'adult-10-adult-11-adult-4-adult-8-adult-9:adult-2'
p975
I0
sS'adult-12-adult-14-adult-2-adult-8-adult-9:adult-10'
p976
I0
sS'adult-12-adult-14-adult-2-adult-8-adult-9:adult-11'
p977
I0
sS'adult-12:adult-9'
p978
F59469.57502805181
sS'adult-12:adult-8'
p979
F52397.14382181427
sS'adult-0-adult-10-adult-11-adult-12-adult-14-adult-2-adult-4:adult-8'
p980
F33453603.062049896
sS'adult-0-adult-10-adult-11-adult-12-adult-14-adult-2-adult-4:adult-9'
p981
F36532001.985747226
sS'adult-12:adult-0'
p982
I0
sS'adult-12:adult-2'
p983
I0
sS'adult-10-adult-12-adult-14-adult-4:adult-11'
p984
I0
sS'adult-10-adult-11-adult-14-adult-4-adult-8:adult-12'
p985
I0
sS'adult-11-adult-14-adult-2-adult-8:adult-12'
p986
I0
sS'adult-0-adult-11-adult-12-adult-14-adult-8:adult-9'
p987
F1139249.6080224172
sS'adult-0-adult-10-adult-11-adult-14-adult-2-adult-9:adult-12'
p988
I0
sS'adult-0-adult-14-adult-4-adult-8:adult-12'
p989
I0
sS'adult-0-adult-14-adult-4-adult-8:adult-11'
p990
I0
sS'adult-0-adult-14-adult-4-adult-8:adult-10'
p991
I0
sS'adult-0-adult-10-adult-11-adult-12-adult-14-adult-8-adult-9:adult-2'
p992
I0
sS'adult-0-adult-10-adult-11-adult-12-adult-14-adult-8-adult-9:adult-4'
p993
I0
sS'adult-4-adult-9:adult-14'
p994
F33947.29118129558
sS'adult-4-adult-9:adult-12'
p995
I0
sS'adult-4-adult-9:adult-10'
p996
I0
sS'adult-4-adult-9:adult-11'
p997
I0
sS'adult-0-adult-10-adult-12-adult-2-adult-8:adult-4'
p998
I0
sS'adult-12-adult-8:adult-9'
p999
F58930.68373729573
sS'adult-12-adult-8:adult-4'
p1000
I0
sS'adult-0-adult-10-adult-12-adult-2-adult-8:adult-9'
p1001
F4410145.534573737
sS'adult-12-adult-8:adult-0'
p1002
I0
sS'adult-12-adult-8:adult-2'
p1003
I0
sS'adult-10-adult-11-adult-12-adult-14-adult-2-adult-4-adult-8:adult-9'
p1004
F7262117.095030839
sS'adult-0-adult-10-adult-14-adult-2-adult-4-adult-8-adult-9:adult-11'
p1005
I0
sS'adult-0-adult-10-adult-14-adult-2-adult-4-adult-8-adult-9:adult-12'
p1006
I0
sS'adult-0-adult-11-adult-12-adult-2-adult-4:adult-14'
p1007
F10062858.11419763
sS'adult-0-adult-11-adult-12-adult-2-adult-4:adult-10'
p1008
I0
sS'adult-10-adult-4-adult-8-adult-9:adult-2'
p1009
I0
sS'adult-2-adult-4-adult-9:adult-11'
p1010
I0
sS'adult-0-adult-11-adult-12-adult-2:adult-4'
p1011
I0
sS'adult-0-adult-11-adult-12-adult-14-adult-2:adult-10'
p1012
I0
sS'adult-11-adult-12-adult-14-adult-4:adult-2'
p1013
I0
sS'adult-0-adult-12-adult-2-adult-4-adult-8:adult-9'
p1014
F3134871.8997944705
sS'adult-0-adult-10-adult-11-adult-8-adult-9:adult-14'
p1015
F1008623.3314427823
sS'adult-0-adult-11-adult-12-adult-2:adult-8'
p1016
F5239368.190868577
sS'adult-0-adult-11-adult-12-adult-2:adult-9'
p1017
F5944687.7121068
sS'adult-0-adult-4-adult-8:adult-11'
p1018
I0
sS'adult-0-adult-4-adult-8:adult-10'
p1019
I0
sS'adult-0-adult-4-adult-8:adult-12'
p1020
I0
sS'adult-10-adult-11-adult-12-adult-4-adult-8:adult-14'
p1021
F1185512.4147852173
sS'adult-0-adult-11-adult-14-adult-2-adult-9:adult-8'
p1022
F1770116.590442026
sS'adult-0-adult-12-adult-4:adult-9'
p1023
F633034.1033012962
sS'adult-0-adult-12-adult-4:adult-8'
p1024
F562546.549819207
sS'adult-0-adult-14-adult-8:adult-12'
p1025
I0
sS'adult-0-adult-14-adult-8:adult-11'
p1026
I0
sS'adult-0-adult-14-adult-8:adult-10'
p1027
I0
sS'adult-0-adult-10-adult-11-adult-12-adult-4-adult-8-adult-9:adult-14'
p1028
F5681112.239212836
sS'adult-12-adult-14-adult-4-adult-9:adult-11'
p1029
I0
sS'adult-0-adult-10-adult-11-adult-4-adult-8-adult-9:adult-2'
p1030
I0
sS'adult-0-adult-10-adult-2-adult-4-adult-8-adult-9:adult-12'
p1031
I0
sS'adult-0-adult-10-adult-2-adult-4-adult-8-adult-9:adult-11'
p1032
I0
sS'adult-0-adult-10-adult-2-adult-4-adult-8-adult-9:adult-14'
p1033
F2502414.540123563
sS'adult-12-adult-2-adult-8:adult-0'
p1034
I0
sS'adult-12-adult-2-adult-8:adult-4'
p1035
I0
sS'adult-12-adult-2-adult-8:adult-9'
p1036
F294653.4186864793
sS'adult-0-adult-12-adult-14-adult-4-adult-9:adult-2'
p1037
I0
sS'adult-10-adult-12-adult-14-adult-2-adult-4:adult-9'
p1038
F1827135.8861101663
sS'adult-10-adult-12-adult-14-adult-2-adult-4:adult-8'
p1039
F1671961.1256717416
sS'adult-0-adult-12-adult-14-adult-4-adult-9:adult-8'
p1040
F554108.0485876276
sS'adult-10-adult-12-adult-14-adult-2-adult-4:adult-0'
p1041
I0
sS'adult-9:adult-12'
p1042
I0
sS'adult-9:adult-10'
p1043
I0
sS'adult-9:adult-11'
p1044
I0
sS'adult-9:adult-14'
p1045
F17137.097659812847
sS'adult-11-adult-8-adult-9:adult-10'
p1046
I0
sS'adult-0-adult-12-adult-8:adult-9'
p1047
F294653.4186864793
sS'adult-0-adult-12-adult-8:adult-4'
p1048
I0
sS'adult-0-adult-12-adult-8:adult-2'
p1049
I0
sS'adult-11-adult-14-adult-2-adult-4:adult-12'
p1050
I0
sS'adult-11-adult-14-adult-2-adult-4:adult-10'
p1051
I0
sS'adult-0-adult-11-adult-12-adult-4-adult-8:adult-2'
p1052
I0
sS'adult-11-adult-12-adult-2-adult-9:adult-8'
p1053
F1037193.2392423721
sS'adult-0-adult-8-adult-9:adult-12'
p1054
I0
sS'adult-0-adult-8-adult-9:adult-10'
p1055
I0
sS'adult-11-adult-12-adult-2-adult-9:adult-4'
p1056
I0
sS'adult-0-adult-11-adult-12-adult-4-adult-8:adult-9'
p1057
F2507443.4890826414
sS'adult-0-adult-10-adult-4-adult-8-adult-9:adult-12'
p1058
I0
sS'adult-11-adult-12-adult-2-adult-9:adult-0'
p1059
I0
sS'adult-12-adult-2-adult-4:adult-0'
p1060
I0
sS'adult-0-adult-11:adult-10'
p1061
I0
sS'adult-0-adult-11:adult-12'
p1062
I0
sS'adult-0-adult-11:adult-14'
p1063
F359448.9341102411
sS'adult-12-adult-2-adult-4:adult-9'
p1064
F633034.1033012962
sS'adult-12-adult-2-adult-4:adult-8'
p1065
F562546.549819207
sS'adult-0-adult-10-adult-14-adult-2-adult-9:adult-11'
p1066
I0
sS'adult-0-adult-10-adult-14-adult-2-adult-9:adult-12'
p1067
I0
sS'adult-11-adult-2:adult-10'
p1068
I0
sS'adult-2-adult-4-adult-8-adult-9:adult-11'
p1069
I0
sS'adult-0-adult-10-adult-12-adult-14:adult-11'
p1070
I0
sS'adult-11-adult-14-adult-8:adult-9'
p1071
F78715.48870698817
sS'adult-11-adult-14-adult-8:adult-2'
p1072
I0
sS'adult-11-adult-14-adult-8:adult-0'
p1073
I0
sS'adult-0-adult-11-adult-12-adult-2-adult-9:adult-14'
p1074
F4843084.211481614
sS'adult-0-adult-14-adult-2-adult-4-adult-8-adult-9:adult-12'
p1075
I0
sS'adult-11-adult-14-adult-8:adult-4'
p1076
I0
sS'adult-0-adult-14-adult-2-adult-4-adult-8-adult-9:adult-11'
p1077
I0
sS'adult-0-adult-11-adult-12-adult-2-adult-4-adult-8:adult-14'
p1078
F9982960.454055425
sS'adult-0-adult-8:adult-14'
p1079
F88949.76555241525
sS'adult-0-adult-11-adult-12-adult-2-adult-4-adult-8:adult-10'
p1080
I0
sS'adult-0-adult-8:adult-10'
p1081
I0
sS'adult-0-adult-8:adult-12'
p1082
I0
sS'adult-0-adult-11-adult-12:adult-10'
p1083
I0
sS'adult-14-adult-2-adult-4-adult-8:adult-11'
p1084
I0
sS'adult-14-adult-2-adult-4-adult-8:adult-10'
p1085
I0
sS'adult-0-adult-11-adult-12:adult-14'
p1086
F1011070.8677144275
sS'adult-14-adult-2-adult-4-adult-8:adult-12'
p1087
I0
sS'adult-11-adult-2:adult-4'
p1088
I0
sS'adult-11-adult-12-adult-4-adult-8:adult-0'
p1089
I0
sS'adult-11-adult-12-adult-4-adult-8:adult-2'
p1090
I0
sS'adult-11-adult-12-adult-4-adult-8:adult-9'
p1091
F501488.6978165309
sS'adult-0-adult-10-adult-11-adult-2-adult-8-adult-9:adult-4'
p1092
I0
sS'adult-10-adult-11:adult-14'
p1093
F212943.31928148988
sS'adult-10-adult-11:adult-12'
p1094
I0
sS'adult-10-adult-11-adult-12-adult-2-adult-8-adult-9:adult-4'
p1095
I0
sS'adult-10-adult-11-adult-12-adult-4-adult-8:adult-2'
p1096
I0
sS'adult-10-adult-11-adult-12-adult-4-adult-8:adult-0'
p1097
I0
sS'adult-11-adult-12-adult-2-adult-4:adult-14'
p1098
F2012571.622839528
sS'adult-10-adult-11-adult-12-adult-4-adult-8:adult-9'
p1099
F1501713.385948891
sS'adult-11-adult-12-adult-2-adult-4:adult-10'
p1100
I0
sS'adult-10-adult-4-adult-9:adult-14'
p1101
F100627.08092867341
sS'adult-0-adult-11-adult-2:adult-8'
p1102
F1802941.009140064
sS'adult-0-adult-10:adult-4'
p1103
I0
sS'adult-9:adult-8'
p1104
F17819.587192359453
sS'adult-11-adult-12-adult-14-adult-2-adult-4-adult-9:adult-0'
p1105
I0
sS'adult-0-adult-12-adult-2-adult-9:adult-10'
p1106
I0
sS'adult-0-adult-12-adult-2-adult-9:adult-11'
p1107
I0
sS'adult-9:adult-2'
p1108
I0
sS'adult-11-adult-12-adult-14-adult-2-adult-4-adult-9:adult-8'
p1109
F2218052.691567545
sS'adult-0-adult-12-adult-2-adult-9:adult-14'
p1110
F1210904.2416433191
sS'adult-11-adult-8:adult-0'
p1111
I0
sS'adult-10-adult-4-adult-9:adult-11'
p1112
I0
sS'adult-11-adult-14-adult-2-adult-4:adult-0'
p1113
I0
sS'adult-0-adult-10:adult-8'
p1114
F269631.21824393515
sS'adult-11-adult-2:adult-9'
p1115
F413210.92473533587
sS'adult-0-adult-10-adult-14-adult-2:adult-9'
p1116
F1484158.9247416775
sS'adult-0-adult-10-adult-11-adult-2-adult-4:adult-8'
p1117
F11569551.325837458
sS'adult-0-adult-10-adult-11-adult-2-adult-4:adult-9'
p1118
F13149691.883500883
sS'adult-11-adult-14-adult-2-adult-4:adult-8'
p1119
F767199.9339295318
sS'adult-11-adult-14-adult-2-adult-4:adult-9'
p1120
F843213.4752928613
sS'adult-4-adult-9:adult-8'
p1121
F38199.707691778254
sS'adult-0-adult-10-adult-11-adult-8:adult-4'
p1122
I0
sS'adult-0-adult-11-adult-14-adult-4-adult-8:adult-12'
p1123
I0
sS'adult-0-adult-10-adult-11-adult-8:adult-2'
p1124
I0
sS'adult-2-adult-4-adult-8-adult-9:adult-0'
p1125
I0
sS'adult-0-adult-10-adult-11-adult-8:adult-9'
p1126
F1223735.1431022
sS'adult-0-adult-12-adult-9:adult-8'
p1127
F259291.26265529025
sS'adult-0-adult-12-adult-9:adult-4'
p1128
I0
sS'adult-0-adult-12-adult-9:adult-2'
p1129
I0
sS'adult-0-adult-14-adult-2-adult-8-adult-9:adult-12'
p1130
I0
sS'adult-10-adult-11-adult-12-adult-14-adult-2-adult-4-adult-8-adult-9:adult-0'
p1131
I0
sS'adult-0-adult-2-adult-4-adult-8:adult-9'
p1132
F1087342.081874529
sS'adult-0-adult-10-adult-2-adult-4-adult-9:adult-11'
p1133
I0
sS'adult-12-adult-4-adult-8-adult-9:adult-10'
p1134
I0
sS'adult-12-adult-4-adult-8-adult-9:adult-11'
p1135
I0
sS'adult-12-adult-4-adult-8-adult-9:adult-14'
p1136
F95584.91032193338
sS'adult-11-adult-12-adult-2-adult-8-adult-9:adult-10'
p1137
I0
sS'adult-11-adult-12-adult-8:adult-10'
p1138
I0
sS'adult-11-adult-12-adult-8:adult-14'
p1139
F200282.20628010578
sS'adult-10-adult-12-adult-4:adult-14'
p1140
F298627.89827911346
sS'adult-10-adult-12-adult-4:adult-11'
p1141
I0
sS'adult-0-adult-14-adult-2:adult-11'
p1142
I0
sS'adult-0-adult-14-adult-2:adult-10'
p1143
I0
sS'adult-0-adult-14-adult-2:adult-12'
p1144
I0
sS'adult-10-adult-11-adult-4-adult-9:adult-8'
p1145
F457306.87438995106
sS'adult-0-adult-11-adult-14-adult-2-adult-4:adult-8'
p1146
F3835999.669647955
sS'adult-0-adult-11-adult-14-adult-2-adult-4:adult-9'
p1147
F4216067.376464409
sS'adult-10-adult-11-adult-4-adult-9:adult-2'
p1148
I0
sS'adult-11-adult-2-adult-9:adult-14'
p1149
F342699.2518538767
sS'adult-11-adult-2-adult-9:adult-10'
p1150
I0
sS'adult-11-adult-2-adult-9:adult-12'
p1151
I0
sS'adult-10-adult-11-adult-14-adult-4-adult-8-adult-9:adult-0'
p1152
I0
sS'adult-10-adult-11-adult-14-adult-4-adult-8-adult-9:adult-2'
p1153
I0
sS'adult-12-adult-8-adult-9:adult-4'
p1154
I0
sS'adult-12-adult-8-adult-9:adult-0'
p1155
I0
sS'adult-12-adult-8-adult-9:adult-2'
p1156
I0
sS'adult-14-adult-9:adult-10'
p1157
I0
sS'adult-14-adult-9:adult-11'
p1158
I0
sS'adult-14-adult-9:adult-12'
p1159
I0
sS'adult-10-adult-12-adult-2-adult-9:adult-14'
p1160
F718460.8676274824
sS'adult-10-adult-12-adult-2-adult-9:adult-11'
p1161
I0
sS'adult-0-adult-10-adult-11-adult-12-adult-14-adult-2-adult-4-adult-8:adult-9'
p1162
F36310585.47515466
sS'adult-10-adult-11-adult-14-adult-2-adult-4-adult-8-adult-9:adult-0'
p1163
I0
sS'adult-11-adult-2-adult-4-adult-8-adult-9:adult-0'
p1164
I0
sS'adult-2-adult-4-adult-9:adult-8'
p1165
F190998.53845888982
sS'adult-0-adult-10-adult-11-adult-14-adult-4-adult-8-adult-9:adult-2'
p1166
I0
sS'adult-10-adult-4:adult-9'
p1167
F131548.6223797806
sS'adult-10-adult-4:adult-8'
p1168
F115694.61817947868
sS'adult-0-adult-11-adult-4:adult-14'
p1169
F714666.5256225204
sS'adult-2-adult-4-adult-9:adult-0'
p1170
I0
sS'adult-0-adult-11-adult-4:adult-10'
p1171
I0
sS'adult-10-adult-4:adult-2'
p1172
I0
sS'adult-0-adult-11-adult-4:adult-12'
p1173
I0
sS'adult-10-adult-4:adult-0'
p1174
I0
sS'adult-14-adult-2:adult-11'
p1175
I0
sS'adult-14-adult-2:adult-10'
p1176
I0
sS'adult-14-adult-2:adult-12'
p1177
I0
sS'adult-0-adult-10-adult-11-adult-14-adult-4-adult-9:adult-12'
p1178
I0
sS'adult-11-adult-12-adult-14-adult-4-adult-9:adult-0'
p1179
I0
sS'adult-11-adult-12-adult-14-adult-4-adult-9:adult-2'
p1180
I0
sS'adult-11-adult-12-adult-14-adult-4-adult-9:adult-8'
p1181
F443610.53831350425
sS'adult-0-adult-4-adult-8-adult-9:adult-2'
p1182
I0
sS'adult-11-adult-12-adult-14-adult-4-adult-8-adult-9:adult-2'
p1183
I0
sS'adult-12-adult-14-adult-8-adult-9:adult-10'
p1184
I0
sS'adult-12-adult-14-adult-8-adult-9:adult-11'
p1185
I0
sS'adult-12-adult-4-adult-9:adult-11'
p1186
I0
sS'adult-10-adult-11-adult-14-adult-8:adult-12'
p1187
I0
sS'adult-0-adult-11-adult-4-adult-8:adult-14'
p1188
F708442.8715830835
sS'adult-10-adult-14-adult-9:adult-2'
p1189
I0
sS'adult-10-adult-14-adult-4-adult-8-adult-9:adult-12'
p1190
I0
sS'adult-0-adult-11-adult-14-adult-2-adult-8:adult-9'
p1191
F1967887.2176747026
sS'adult-0-adult-11-adult-4-adult-8:adult-12'
p1192
I0
sS'adult-12:adult-4'
p1193
I0
sS'adult-0-adult-11-adult-14-adult-2-adult-8:adult-4'
p1194
I0
sS'adult-0-adult-10-adult-12-adult-8:adult-2'
p1195
I0
sS'adult-0-adult-10-adult-2:adult-9'
p1196
F1545822.9333181893
sS'adult-0-adult-10-adult-2:adult-8'
p1197
F1348156.0912196243
sS'adult-0-adult-10-adult-11-adult-12-adult-14-adult-4-adult-8:adult-9'
p1198
F7262117.095030839
sS'adult-0-adult-10-adult-2:adult-4'
p1199
I0
sS'adult-0-adult-10-adult-12-adult-8:adult-9'
p1200
F882029.106914723
sS'adult-0-adult-10-adult-11-adult-12-adult-14-adult-4-adult-8:adult-2'
p1201
I0
sS'adult-11-adult-12-adult-14-adult-2-adult-4:adult-0'
p1202
I0
sS'adult-0-adult-12-adult-14:adult-4'
p1203
I0
sS'adult-11-adult-12-adult-4:adult-0'
p1204
I0
sS'adult-0-adult-12-adult-14:adult-2'
p1205
I0
sS'adult-11-adult-12-adult-4:adult-2'
p1206
I0
sS'adult-11-adult-12-adult-14-adult-2-adult-4:adult-8'
p1207
F2234325.00704624
sS'adult-11-adult-12-adult-14-adult-2-adult-4:adult-9'
p1208
F2439801.270263555
sS'adult-11-adult-12-adult-4:adult-8'
p1209
F450060.90781491104
sS'adult-11-adult-12-adult-4:adult-9'
p1210
F506237.28117667395
sS'adult-0-adult-12-adult-14:adult-9'
p1211
F286726.5746617099
sS'adult-0-adult-12-adult-14:adult-8'
p1212
F259545.29910228215
sS'adult-10-adult-11-adult-12-adult-14-adult-8:adult-2'
p1213
I0
sS'adult-10-adult-11-adult-12-adult-14-adult-8:adult-0'
p1214
I0
sS'adult-0-adult-12-adult-2-adult-4:adult-10'
p1215
I0
sS'adult-10-adult-11-adult-12-adult-14-adult-8:adult-4'
p1216
I0
sS'adult-0-adult-12-adult-2-adult-4:adult-14'
p1217
F2515938.776747762
sS'adult-10-adult-11-adult-12-adult-14-adult-8:adult-9'
p1218
F682389.7308961436
sS'adult-10-adult-14:adult-11'
p1219
I0
sS'adult-10-adult-14:adult-12'
p1220
I0
sS'adult-11-adult-12-adult-14-adult-2-adult-8:adult-10'
p1221
I0
sS'adult-0-adult-10-adult-12-adult-8-adult-9:adult-2'
p1222
I0
sS'adult-0-adult-10-adult-2-adult-8:adult-11'
p1223
I0
sS'adult-0-adult-11-adult-12-adult-4-adult-8:adult-14'
p1224
F1996592.0908112347
sS'adult-0-adult-11-adult-12-adult-4-adult-8:adult-10'
p1225
I0
sS'adult-11-adult-14:adult-8'
p1226
F71381.4234064833
sS'adult-11-adult-12-adult-4-adult-9:adult-10'
p1227
I0
sS'adult-0-adult-11-adult-12-adult-14-adult-4-adult-8:adult-2'
p1228
I0
sS'adult-0-adult-11-adult-12-adult-14-adult-4-adult-8:adult-9'
p1229
F2423528.954784882
sS'adult-10-adult-14-adult-2-adult-4-adult-8-adult-9:adult-11'
p1230
I0
sS'adult-10-adult-14-adult-2-adult-4-adult-8-adult-9:adult-12'
p1231
I0
sS'adult-11-adult-4:adult-9'
p1232
F175795.3168837446
sS'adult-11-adult-4:adult-2'
p1233
I0
sS'adult-0-adult-10-adult-12-adult-14-adult-2-adult-8-adult-9:adult-4'
p1234
I0
sS'adult-11-adult-4:adult-0'
p1235
I0
sS'adult-0-adult-10-adult-11:adult-4'
p1236
I0
sS'adult-0-adult-12-adult-4-adult-8-adult-9:adult-11'
p1237
I0
sS'adult-0-adult-10-adult-11:adult-2'
p1238
I0
sS'adult-0-adult-10-adult-14-adult-2-adult-4:adult-12'
p1239
I0
sS'adult-0-adult-10-adult-14-adult-2-adult-4:adult-11'
p1240
I0
sS'adult-0-adult-10-adult-11:adult-8'
p1241
F1078435.806177464
sS'adult-0-adult-10-adult-11:adult-9'
p1242
F1236171.5138078246
sS'adult-4-adult-8-adult-9:adult-2'
p1243
I0
sS'adult-4-adult-8:adult-11'
p1244
I0
sS'adult-4-adult-8:adult-10'
p1245
I0
sS'adult-4-adult-8:adult-12'
p1246
I0
sS'adult-4-adult-8:adult-14'
p1247
F35421.07178907737
sS'adult-0-adult-10-adult-2-adult-4-adult-8:adult-9'
p1248
F3253999.0045223474
sS'adult-10-adult-12-adult-14-adult-2-adult-4-adult-8:adult-11'
p1249
I0
sS'adult-11-adult-14-adult-2-adult-8-adult-9:adult-10'
p1250
I0
sS'adult-11-adult-14-adult-2-adult-8-adult-9:adult-12'
p1251
I0
sS'adult-10-adult-2-adult-4:adult-11'
p1252
I0
sS'adult-10-adult-2-adult-4:adult-12'
p1253
I0
sS'adult-10-adult-2-adult-4:adult-14'
p1254
F529507.5039032914
sS'adult-10-adult-11-adult-2-adult-8:adult-0'
p1255
I0
sS'adult-0-adult-11-adult-14-adult-8:adult-10'
p1256
I0
sS'adult-0-adult-11-adult-14-adult-8:adult-12'
p1257
I0
sS'adult-0-adult-10-adult-12-adult-4-adult-8-adult-9:adult-11'
p1258
I0
sS'adult-0-adult-10-adult-12-adult-4-adult-8-adult-9:adult-14'
p1259
F1419230.9284510752
sS'adult-0-adult-10-adult-11-adult-14-adult-8-adult-9:adult-12'
p1260
I0
sS'adult-0-adult-11-adult-9:adult-12'
p1261
I0
sS'adult-0-adult-11-adult-9:adult-10'
p1262
I0
sS'adult-0-adult-10-adult-14-adult-4-adult-9:adult-8'
p1263
F568877.2832843253
sS'adult-10-adult-11-adult-8:adult-2'
p1264
I0
sS'adult-0-adult-11-adult-12-adult-4-adult-9:adult-14'
p1265
F1921186.4872197094
sS'adult-0-adult-11-adult-12-adult-4-adult-9:adult-10'
p1266
I0
sS'adult-0-adult-10-adult-14-adult-4-adult-9:adult-2'
p1267
I0
sS'adult-10-adult-11-adult-12-adult-14-adult-4:adult-8'
p1268
F1338144.1224821308
sS'adult-10-adult-11-adult-12-adult-14-adult-4:adult-9'
p1269
F1461280.0794296463
sS'adult-0-adult-11-adult-12-adult-4:adult-14'
p1270
F2012571.622839528
sS'adult-10-adult-11-adult-14-adult-8-adult-9:adult-12'
p1271
I0
sS'adult-10-adult-11-adult-12-adult-14-adult-4:adult-2'
p1272
I0
sS'adult-0-adult-11-adult-12-adult-4:adult-10'
p1273
I0
sS'adult-10-adult-14-adult-4-adult-9:adult-8'
p1274
F113775.4566568568
sS'adult-10-adult-14-adult-4-adult-9:adult-0'
p1275
I0
sS'adult-10-adult-14-adult-4-adult-9:adult-2'
p1276
I0
sS'adult-10-adult-11-adult-2-adult-4-adult-8:adult-12'
p1277
I0
sS'adult-10-adult-11-adult-2-adult-4-adult-8:adult-14'
p1278
F2099915.04332705
sS'adult-10-adult-11-adult-12-adult-14-adult-2-adult-8-adult-9:adult-4'
p1279
I0
sS'adult-11-adult-12-adult-2:adult-10'
p1280
I0
sS'adult-0-adult-12-adult-14-adult-4-adult-8:adult-2'
p1281
I0
sS'adult-0-adult-10-adult-14-adult-8:adult-2'
p1282
I0
sS'adult-11-adult-12-adult-2:adult-14'
p1283
F1011070.8677144275
sS'adult-0-adult-10-adult-14-adult-8:adult-4'
p1284
I0
sS'adult-0-adult-11-adult-12-adult-14-adult-2:adult-8'
p1285
F5191069.009299103
sS'adult-0-adult-11-adult-12-adult-14-adult-2:adult-9'
p1286
F5732417.585016302
sS'adult-0-adult-10-adult-14-adult-8:adult-9'
p1287
F294678.2986530067
sS'adult-0-adult-12-adult-14-adult-4-adult-8:adult-9'
p1288
F605832.8066475178
sS'adult-12-adult-2-adult-9:adult-0'
p1289
I0
sS'adult-12-adult-14-adult-8-adult-9:adult-2'
p1290
I0
sS'adult-12-adult-14-adult-8-adult-9:adult-0'
p1291
I0
sS'adult-12-adult-2-adult-9:adult-8'
p1292
F259291.26265529025
sS'adult-0-adult-10-adult-12-adult-14-adult-4-adult-9:adult-11'
p1293
I0
sS'adult-0-adult-14-adult-2-adult-4:adult-9'
p1294
F1054411.0396011155
sS'adult-0-adult-14-adult-2-adult-4:adult-8'
p1295
F958906.1652156912
sS'adult-11-adult-12-adult-2:adult-4'
p1296
I0
sS'adult-11-adult-12-adult-2:adult-0'
p1297
I0
sS'adult-11-adult-12-adult-2:adult-8'
p1298
F1047873.6381737257
sS'adult-11-adult-12-adult-2:adult-9'
p1299
F1188937.5424213633
sS'adult-0-adult-12-adult-14-adult-2-adult-8:adult-11'
p1300
I0
sS'adult-0-adult-12-adult-14-adult-2-adult-8:adult-10'
p1301
I0
sS'adult-0-adult-11-adult-12-adult-2-adult-8-adult-9:adult-4'
p1302
I0
sS'adult-10-adult-14-adult-8-adult-9:adult-12'
p1303
I0
sS'adult-0-adult-10-adult-12-adult-14-adult-2-adult-4:adult-9'
p1304
F9135679.430550618
sS'adult-11-adult-12-adult-14-adult-2-adult-4-adult-8-adult-9:adult-0'
p1305
I0
sS'adult-10-adult-11-adult-12-adult-14-adult-2-adult-4-adult-8:adult-0'
p1306
I0
sS'adult-0-adult-11-adult-14-adult-2-adult-4-adult-9:adult-12'
p1307
I0
sS'adult-0-adult-10-adult-11-adult-12-adult-2-adult-4-adult-8-adult-9:adult-14'
p1308
F28405561.196051843
sS'adult-0-adult-10-adult-11-adult-12-adult-4-adult-8-adult-9:adult-2'
p1309
I0
sS'adult-0-adult-11-adult-12-adult-2-adult-4-adult-9:adult-8'
p1310
F11132808.111369718
sS'adult-14-adult-8-adult-9:adult-4'
p1311
I0
sS'adult-0-adult-10-adult-11-adult-9:adult-4'
p1312
I0
sS'adult-0-adult-12-adult-14-adult-9:adult-8'
p1313
F257687.49707112202
sS'adult-0-adult-11-adult-12-adult-14-adult-2-adult-9:adult-10'
p1314
I0
sS'adult-0-adult-12-adult-14-adult-9:adult-4'
p1315
I0
sS'adult-0-adult-12-adult-14-adult-9:adult-2'
p1316
I0
sS'adult-0-adult-10-adult-11-adult-9:adult-8'
p1317
F1065999.4354718325
sS'adult-0-adult-10-adult-14-adult-9:adult-2'
p1318
I0
sS'adult-0-adult-10-adult-14-adult-9:adult-4'
p1319
I0
sS'adult-14-adult-8-adult-9:adult-0'
p1320
I0
sS'adult-0-adult-14-adult-2-adult-8:adult-11'
p1321
I0
sS'adult-0-adult-14-adult-2-adult-8:adult-10'
p1322
I0
sS'adult-0-adult-14-adult-2-adult-8:adult-12'
p1323
I0
sS'adult-11-adult-2-adult-8:adult-14'
p1324
F355767.84931464616
sS'adult-11-adult-2-adult-8:adult-12'
p1325
I0
sS'adult-11-adult-2-adult-8:adult-10'
p1326
I0
sS'adult-10-adult-14-adult-2-adult-8-adult-9:adult-4'
p1327
I0
sS'adult-10-adult-14-adult-2-adult-8-adult-9:adult-0'
p1328
I0
sS'adult-12-adult-4-adult-8:adult-0'
p1329
I0
sS'adult-12-adult-4-adult-8:adult-2'
p1330
I0
sS'adult-11-adult-12-adult-14-adult-4:adult-10'
p1331
I0
sS'adult-10-adult-8:adult-2'
p1332
I0
sS'adult-12-adult-4-adult-8:adult-9'
p1333
F125394.8759917796
sS'adult-10-adult-8:adult-0'
p1334
I0
sS'adult-11-adult-12-adult-14-adult-2:adult-8'
p1335
F1038213.8018598274
sS'adult-11-adult-12-adult-14-adult-2:adult-9'
p1336
F1146483.517003255
sS'adult-0:adult-14'
p1337
F89875.19858805694
sS'adult-11-adult-12-adult-14-adult-2:adult-4'
p1338
I0
sS'adult-0:adult-11'
p1339
I0
sS'adult-0:adult-10'
p1340
I0
sS'adult-11-adult-12-adult-14-adult-2:adult-0'
p1341
I0
sS'adult-0:adult-12'
p1342
I0
sS'adult-0-adult-11-adult-14-adult-8-adult-9:adult-2'
p1343
I0
sS'adult-11-adult-14-adult-4-adult-9:adult-2'
p1344
I0
sS'adult-0-adult-11-adult-14-adult-8-adult-9:adult-4'
p1345
I0
sS'adult-10-adult-8:adult-4'
p1346
I0
sS'adult-11-adult-14-adult-4-adult-9:adult-8'
p1347
F152093.3429333101
sS'adult-10-adult-11-adult-2-adult-9:adult-12'
p1348
I0
sS'adult-0-adult-2-adult-8:adult-4'
p1349
I0
sS'adult-10-adult-12-adult-14-adult-4-adult-9:adult-8'
p1350
F331978.75591172406
sS'adult-10-adult-11-adult-2-adult-9:adult-14'
p1351
F1015416.6813490563
sS'adult-10-adult-12-adult-8-adult-9:adult-2'
p1352
I0
sS'adult-10-adult-12-adult-8-adult-9:adult-0'
p1353
I0
sS'adult-10-adult-12-adult-14-adult-4-adult-9:adult-0'
p1354
I0
sS'adult-10-adult-12-adult-8-adult-9:adult-4'
p1355
I0
sS'adult-11-adult-12-adult-4-adult-8-adult-9:adult-10'
p1356
I0
sS'adult-11-adult-12-adult-14-adult-2-adult-4:adult-10'
p1357
I0
sS'adult-0-adult-14-adult-2-adult-9:adult-8'
p1358
F442499.88176416076
sS'adult-0-adult-14-adult-2-adult-9:adult-4'
p1359
I0
sS'adult-0-adult-11-adult-2-adult-4:adult-12'
p1360
I0
sS'adult-0-adult-11-adult-2-adult-4:adult-10'
p1361
I0
sS'adult-11-adult-2:adult-12'
p1362
I0
sS'adult-0-adult-11-adult-2-adult-4:adult-14'
p1363
F3573332.6281125634
sS'adult-0-adult-10-adult-4:adult-12'
p1364
I0
sS'adult-0-adult-10-adult-4:adult-11'
p1365
I0
sS'adult-0-adult-10-adult-4:adult-14'
p1366
F529507.5039032914
sS'adult-8:adult-14'
p1367
F17789.953110483064
sS'adult-8:adult-11'
p1368
I0
sS'adult-8:adult-10'
p1369
I0
sS'adult-8:adult-12'
p1370
I0
sS'adult-0-adult-12-adult-2-adult-4-adult-9:adult-14'
p1371
F2401516.6474941853
sS'adult-0-adult-10:adult-9'
p1372
F309164.5866636385
sS'adult-0-adult-10-adult-11-adult-8-adult-9:adult-12'
p1373
I0
sS'adult-0-adult-12-adult-2-adult-4-adult-9:adult-10'
p1374
I0
sS'adult-0-adult-12-adult-2-adult-4-adult-9:adult-11'
p1375
I0
sS'adult-11-adult-12-adult-14-adult-2-adult-4-adult-8:adult-10'
p1376
I0
sS'adult-0-adult-12-adult-4:adult-2'
p1377
I0
sS'adult-10-adult-2-adult-4:adult-0'
p1378
I0
sS'adult-10-adult-11-adult-14-adult-4:adult-12'
p1379
I0
sS'adult-0-adult-4-adult-8:adult-14'
p1380
F177105.35894538695
sS'adult-0-adult-11-adult-8:adult-10'
p1381
I0
sS'adult-0-adult-11-adult-8:adult-12'
p1382
I0
sS'adult-0-adult-11-adult-8:adult-14'
p1383
F355767.84931464616
sS'adult-0-adult-11-adult-14-adult-4:adult-8'
p1384
F767199.9339295318
sS'adult-0-adult-11-adult-14-adult-2-adult-9:adult-4'
p1385
I0
sS'adult-11-adult-12-adult-4-adult-9:adult-14'
p1386
F384237.29744394263
sS'adult-0-adult-11-adult-14-adult-4:adult-2'
p1387
I0
sS'adult-0-adult-10-adult-12-adult-14-adult-2-adult-8-adult-9:adult-11'
p1388
I0
sS'adult-12:adult-14'
p1389
F50560.42976144265
sS'adult-10-adult-14-adult-2-adult-4:adult-8'
p1390
F573896.446418037
sS'adult-12:adult-11'
p1391
I0
sS'adult-12:adult-10'
p1392
I0
sS'adult-0-adult-12-adult-2-adult-8:adult-4'
p1393
I0
sS'adult-10-adult-11-adult-8:adult-4'
p1394
I0
sS'adult-0-adult-12-adult-9:adult-14'
p1395
F242180.84832866362
sS'adult-10-adult-11-adult-8:adult-0'
p1396
I0
sS'adult-14-adult-9:adult-8'
p1397
F17699.99527056633
sS'adult-0-adult-12-adult-9:adult-10'
p1398
I0
sS'adult-0-adult-12-adult-9:adult-11'
p1399
I0
sS'adult-10-adult-11-adult-8:adult-9'
p1400
F244747.02862044072
sS'adult-0-adult-12-adult-8-adult-9:adult-14'
p1401
F240577.08274449388
sS'adult-10-adult-11-adult-4-adult-9:adult-12'
p1402
I0
sS'adult-0-adult-12-adult-8-adult-9:adult-10'
p1403
I0
sS'adult-0-adult-12-adult-8-adult-9:adult-11'
p1404
I0
sS'adult-11-adult-12-adult-2-adult-9:adult-14'
p1405
F968616.8422963158
sS'adult-11-adult-12-adult-2-adult-9:adult-10'
p1406
I0
sS'adult-0-adult-10-adult-8-adult-9:adult-2'
p1407
I0
sS'adult-0-adult-11-adult-14-adult-4-adult-8:adult-2'
p1408
I0
sS'adult-0-adult-10-adult-8-adult-9:adult-4'
p1409
I0
sS'adult-14-adult-8-adult-9:adult-10'
p1410
I0
sS'adult-14-adult-8-adult-9:adult-11'
p1411
I0
sS'adult-14-adult-8-adult-9:adult-12'
p1412
I0
sS'adult-0-adult-11-adult-14-adult-4-adult-8:adult-9'
p1413
F836480.256029887
sS'adult-2-adult-4:adult-9'
p1414
F219832.63267087168
sS'adult-2-adult-4:adult-8'
p1415
F193362.75475484936
sS'adult-11-adult-12-adult-4-adult-8:adult-14'
p1416
F399318.4181622463
sS'adult-2-adult-4:adult-0'
p1417
I0
sS'adult-11-adult-12-adult-4-adult-8:adult-10'
p1418
I0
sS'adult-0-adult-10-adult-14-adult-2-adult-4-adult-9:adult-11'
p1419
I0
sS'adult-0-adult-10-adult-14-adult-2-adult-4-adult-9:adult-12'
p1420
I0
sS'adult-14-adult-2-adult-9:adult-11'
p1421
I0
sS'adult-0-adult-10-adult-14-adult-4-adult-8-adult-9:adult-2'
p1422
I0
sS'adult-4-adult-8:adult-0'
p1423
I0
sS'adult-4-adult-8:adult-2'
p1424
I0
sS'adult-4-adult-8:adult-9'
p1425
F43493.6832749819
sS'adult-0-adult-10-adult-12-adult-14-adult-9:adult-2'
p1426
I0
sS'adult-0-adult-10-adult-12-adult-14-adult-9:adult-4'
p1427
I0
sS'adult-0-adult-10-adult-12-adult-14-adult-9:adult-8'
p1428
F771288.1726033658
sS'adult-0-adult-11-adult-8-adult-9:adult-10'
p1429
I0
sS'adult-0-adult-10-adult-14:adult-2'
p1430
I0
sS'adult-11-adult-8-adult-9:adult-2'
p1431
I0
sS'adult-11-adult-8-adult-9:adult-0'
p1432
I0
sS'adult-0-adult-11-adult-14-adult-2-adult-8:adult-12'
p1433
I0
sS'adult-0-adult-10-adult-12-adult-4:adult-2'
p1434
I0
sS'adult-0-adult-11-adult-14-adult-2-adult-8:adult-10'
p1435
I0
sS'adult-11-adult-8-adult-9:adult-4'
p1436
I0
sS'adult-0-adult-2-adult-9:adult-10'
p1437
I0
sS'adult-0-adult-2-adult-9:adult-11'
p1438
I0
sS'adult-11-adult-12:adult-10'
p1439
I0
sS'adult-0-adult-2-adult-9:adult-14'
p1440
F428427.44149532064
sS'adult-0-adult-10-adult-12-adult-4:adult-9'
p1441
F1894971.944430984
sS'adult-0-adult-10-adult-12-adult-4:adult-8'
p1442
F1683613.233443627
sS'adult-0-adult-10-adult-14:adult-9'
p1443
F296831.78494833485
sS'adult-0-adult-10-adult-14:adult-8'
p1444
F266917.40092966554
sS'adult-11-adult-14-adult-4-adult-8:adult-2'
p1445
I0
sS'adult-11-adult-14-adult-4-adult-8:adult-0'
p1446
I0
sS'adult-11-adult-14-adult-4-adult-8:adult-9'
p1447
F167296.05120597765
sS'adult-0-adult-11-adult-14-adult-9:adult-8'
p1448
F354023.31808838405
sS'adult-10-adult-12-adult-14-adult-8:adult-11'
p1449
I0
sS'adult-0-adult-14-adult-4-adult-8-adult-9:adult-10'
p1450
I0
sS'adult-0-adult-14-adult-4-adult-8-adult-9:adult-11'
p1451
I0
sS'adult-0-adult-14-adult-4-adult-8-adult-9:adult-12'
p1452
I0
sS'adult-0-adult-11-adult-14-adult-9:adult-4'
p1453
I0
sS'adult-0-adult-10-adult-11-adult-2:adult-14'
p1454
F5323582.982037208
sS'adult-0-adult-10-adult-11-adult-2:adult-12'
p1455
I0
sS'adult-14-adult-8:adult-12'
p1456
I0
sS'adult-2-adult-8-adult-9:adult-10'
p1457
I0
sS'adult-2-adult-8-adult-9:adult-11'
p1458
I0
sS'adult-2-adult-8-adult-9:adult-12'
p1459
I0
sS'adult-2-adult-8-adult-9:adult-14'
p1460
F85087.5286900982
sS'adult-10-adult-11-adult-12-adult-8:adult-14'
p1461
F594282.369524387
sS'adult-10-adult-12-adult-14-adult-2-adult-8:adult-4'
p1462
I0
sS'adult-10-adult-12-adult-14-adult-2-adult-8:adult-0'
p1463
I0
sS'adult-10-adult-11-adult-12-adult-2-adult-8-adult-9:adult-14'
p1464
F2856186.7762401253
sS'adult-10-adult-11-adult-12-adult-14-adult-4-adult-8-adult-9:adult-2'
p1465
I0
sS'adult-10-adult-12-adult-14-adult-2-adult-8:adult-9'
p1466
F853093.8429292436
sS'adult-10-adult-11-adult-12-adult-14-adult-4-adult-8-adult-9:adult-0'
p1467
I0
sS'adult-11-adult-12:adult-8'
p1468
F209574.7276347443
sS'adult-11-adult-12:adult-9'
p1469
F237787.50848427275
sS'adult-0-adult-10-adult-11-adult-4-adult-8:adult-12'
p1470
I0
sS'adult-11-adult-12:adult-2'
p1471
I0
sS'adult-11-adult-12:adult-4'
p1472
I0
sS'adult-0-adult-10-adult-11-adult-4-adult-8:adult-14'
p1473
F2099915.04332705
sS'adult-0-adult-11-adult-2:adult-14'
p1474
F1797244.6705512125
sS'adult-0-adult-14-adult-8:adult-4'
p1475
I0
sS'adult-0-adult-14-adult-8:adult-2'
p1476
I0
sS'adult-10-adult-11-adult-14-adult-2-adult-4-adult-8:adult-12'
p1477
I0
sS'adult-11-adult-12-adult-2-adult-8:adult-10'
p1478
I0
sS'adult-0-adult-8:adult-9'
p1479
F102285.61358647357
sS'adult-0-adult-10-adult-11-adult-12-adult-14-adult-9:adult-2'
p1480
I0
sS'adult-10-adult-14-adult-2-adult-9:adult-12'
p1481
I0
sS'adult-0-adult-10-adult-11-adult-12-adult-14-adult-9:adult-4'
p1482
I0
sS'adult-0-adult-2-adult-4-adult-9:adult-14'
p1483
F848682.2795323896
sS'adult-0-adult-10-adult-11-adult-12-adult-14-adult-9:adult-8'
p1484
F3086242.702831763
sS'adult-0-adult-2-adult-4-adult-9:adult-10'
p1485
I0
sS'adult-0-adult-2-adult-4-adult-9:adult-11'
p1486
I0
sS'adult-0-adult-2-adult-4-adult-9:adult-12'
p1487
I0
sS'adult-0-adult-10-adult-11-adult-14-adult-2-adult-4-adult-9:adult-8'
p1488
F11383650.151453124
sS'adult-0-adult-10-adult-11-adult-2-adult-4-adult-8:adult-12'
p1489
I0
sS'adult-0-adult-10-adult-11-adult-2-adult-4-adult-8:adult-14'
p1490
F10499575.216635054
sS'adult-0-adult-10-adult-11-adult-12-adult-2-adult-4-adult-9:adult-8'
p1491
F33333539.400933865
sS'adult-0-adult-11-adult-14-adult-4-adult-9:adult-8'
p1492
F760466.7146665205
sS'adult-0-adult-11-adult-8:adult-2'
p1493
I0
sS'adult-0-adult-10-adult-11-adult-14-adult-9:adult-12'
p1494
I0
sS'adult-12-adult-2:adult-14'
p1495
F252802.14880721315
sS'adult-12-adult-2:adult-11'
p1496
I0
sS'adult-12-adult-2:adult-10'
p1497
I0
sS'adult-0-adult-12-adult-14-adult-2-adult-9:adult-10'
p1498
I0
sS'adult-0-adult-12-adult-14-adult-2-adult-9:adult-11'
p1499
I0
sS'adult-11-adult-2-adult-8-adult-9:adult-4'
p1500
I0
sS'adult-11-adult-2-adult-8-adult-9:adult-0'
p1501
I0
sS'adult-10-adult-12-adult-2-adult-8:adult-4'
p1502
I0
sS'adult-11-adult-14:adult-10'
p1503
I0
sS'adult-0-adult-10-adult-14-adult-2-adult-8:adult-12'
p1504
I0
sS'adult-11-adult-14:adult-12'
p1505
I0
sS'adult-0-adult-10-adult-12-adult-14-adult-9:adult-11'
p1506
I0
sS'adult-10-adult-12-adult-2-adult-8:adult-9'
p1507
F882029.106914723
sS'adult-0-adult-10-adult-11-adult-12-adult-14-adult-8:adult-2'
p1508
I0
sS'adult-0-adult-10-adult-11-adult-12-adult-14-adult-8:adult-4'
p1509
I0
sS'adult-10-adult-12-adult-4-adult-9:adult-11'
p1510
I0
sS'adult-0-adult-10-adult-11-adult-12-adult-14-adult-8:adult-9'
p1511
F3411948.6544807362
sS'adult-10-adult-12-adult-4-adult-9:adult-14'
p1512
F285060.6866149467
sS'adult-0-adult-10-adult-11-adult-2-adult-4-adult-9:adult-8'
p1513
F11432671.859744381
sS'adult-12-adult-2-adult-8-adult-9:adult-10'
p1514
I0
sS'adult-12-adult-2-adult-8-adult-9:adult-11'
p1515
I0
sS'adult-12-adult-2-adult-8-adult-9:adult-14'
p1516
F240577.08274449388
sS'adult-11-adult-12-adult-8-adult-9:adult-10'
p1517
I0
sS'adult-11-adult-12-adult-8-adult-9:adult-14'
p1518
F192480.6991865861
sS'adult-11-adult-12-adult-14-adult-2-adult-8-adult-9:adult-10'
p1519
I0
sS'adult-11-adult-14-adult-4-adult-8-adult-9:adult-2'
p1520
I0
sS'adult-11-adult-2-adult-4:adult-12'
p1521
I0
sS'adult-12-adult-2-adult-4:adult-11'
p1522
I0
sS'adult-12-adult-2-adult-4:adult-10'
p1523
I0
sS'adult-11-adult-2-adult-4:adult-14'
p1524
F714666.5256225204
sS'adult-12-adult-2-adult-4:adult-14'
p1525
F503187.7553495548
sS'adult-10-adult-12-adult-2:adult-14'
p1526
F749943.9952179216
sS'adult-10-adult-12-adult-2:adult-11'
p1527
I0
sS'adult-0-adult-11-adult-8-adult-9:adult-2'
p1528
I0
sS'adult-0-adult-11-adult-8-adult-9:adult-4'
p1529
I0
sS'adult-0-adult-8-adult-9:adult-2'
p1530
I0
sS'adult-10-adult-12-adult-14-adult-4-adult-8-adult-9:adult-0'
p1531
I0
sS'adult-10-adult-12-adult-14-adult-4-adult-8-adult-9:adult-2'
p1532
I0
sS'adult-0-adult-10-adult-11-adult-14-adult-2-adult-4-adult-8-adult-9:adult-12'
p1533
I0
sS'adult-10-adult-14-adult-2:adult-9'
p1534
F296831.78494833485
sS'adult-10-adult-14-adult-2:adult-8'
p1535
F266917.40092966554
sS'adult-10-adult-14-adult-2:adult-4'
p1536
I0
sS'adult-10-adult-14-adult-2:adult-0'
p1537
I0
sS'adult-0-adult-4:adult-9'
p1538
F219832.63267087168
sS'adult-0-adult-4:adult-8'
p1539
F193362.75475484936
sS'adult-0-adult-2-adult-9:adult-12'
p1540
I0
sS'adult-0-adult-4:adult-2'
p1541
I0
sS'adult-10-adult-14-adult-8:adult-0'
p1542
I0
sS'adult-10-adult-14-adult-8:adult-2'
p1543
I0
sS'adult-10-adult-14-adult-8:adult-4'
p1544
I0
sS'adult-0-adult-10-adult-11-adult-12-adult-8:adult-9'
p1545
F3527173.72586249
sS'adult-10-adult-12-adult-14-adult-4-adult-8:adult-11'
p1546
I0
sS'adult-0-adult-10-adult-11-adult-12-adult-8:adult-4'
p1547
I0
sS'adult-0-adult-10-adult-11-adult-12-adult-8:adult-2'
p1548
I0
sS'adult-0-adult-10-adult-14-adult-4:adult-9'
p1549
F631371.0126389791
sS'adult-11-adult-12:adult-14'
p1550
F202214.17354288552
sS'adult-0-adult-14-adult-4:adult-11'
p1551
I0
sS'adult-0-adult-14-adult-4:adult-10'
p1552
I0
sS'adult-0-adult-14-adult-8-adult-9:adult-10'
p1553
I0
sS'adult-0-adult-14-adult-8-adult-9:adult-11'
p1554
I0
sS'adult-0-adult-14-adult-8-adult-9:adult-12'
p1555
I0
sS'adult-0-adult-10-adult-14-adult-4:adult-2'
p1556
I0
sS'adult-8-adult-9:adult-0'
p1557
I0
sS'adult-8-adult-9:adult-2'
p1558
I0
sS'adult-8-adult-9:adult-4'
p1559
I0
sS'adult-12-adult-14-adult-2-adult-4-adult-9:adult-10'
p1560
I0
sS'adult-0-adult-10-adult-11-adult-12:adult-9'
p1561
F3558620.7056188723
sS'adult-0-adult-14-adult-2-adult-9:adult-12'
p1562
I0
sS'adult-0-adult-14-adult-2-adult-9:adult-10'
p1563
I0
sS'adult-0-adult-14-adult-2-adult-9:adult-11'
p1564
I0
sS'adult-0-adult-10-adult-11-adult-12:adult-14'
p1565
F2999390.5749801146
sS'adult-12-adult-8:adult-14'
p1566
F50072.34576008487
sS'adult-12-adult-8:adult-11'
p1567
I0
sS'adult-12-adult-8:adult-10'
p1568
I0
sS'adult-11-adult-14-adult-8:adult-10'
p1569
I0
sS'adult-11-adult-14-adult-8:adult-12'
p1570
I0
sS'adult-0-adult-10-adult-14-adult-4:adult-8'
p1571
F573896.446418037
sS'adult-0-adult-10-adult-2-adult-4-adult-8:adult-11'
p1572
I0
sS'adult-0-adult-10-adult-4-adult-8-adult-9:adult-14'
p1573
F500482.90802471223
sS'adult-0-adult-12-adult-4-adult-9:adult-2'
p1574
I0
sS'adult-0-adult-10-adult-2-adult-4-adult-8:adult-12'
p1575
I0
sS'adult-0-adult-10-adult-2-adult-4-adult-8:adult-14'
p1576
F2624654.297119829
sS'adult-14-adult-8:adult-0'
p1577
I0
sS'adult-0-adult-12-adult-4-adult-9:adult-8'
p1578
F556486.8264767907
sS'adult-14-adult-8:adult-9'
p1579
F19684.675344831347
sS'adult-10-adult-11-adult-14-adult-4:adult-0'
p1580
I0
sS'adult-10-adult-11-adult-14-adult-4:adult-2'
p1581
I0
sS'adult-0-adult-8-adult-9:adult-11'
p1582
I0
sS'adult-11-adult-12-adult-14-adult-8-adult-9:adult-10'
p1583
I0
sS'adult-10-adult-11-adult-14-adult-4:adult-8'
p1584
F459202.1754603954
sS'adult-10-adult-11-adult-14-adult-4:adult-9'
p1585
F504917.65408086055
sS'adult-0-adult-10-adult-4-adult-8-adult-9:adult-11'
p1586
I0
sS'adult-0-adult-11-adult-12-adult-14-adult-4-adult-9:adult-10'
p1587
I0
sS'adult-0-adult-8-adult-9:adult-14'
p1588
F85087.5286900982
sS'adult-0-adult-10-adult-12-adult-2-adult-4-adult-9:adult-11'
p1589
I0
sS'adult-0-adult-10-adult-12-adult-2-adult-4-adult-9:adult-14'
p1590
F7126517.165374218
sS'adult-14-adult-2-adult-4-adult-8-adult-9:adult-0'
p1591
I0
sS'adult-11-adult-12-adult-14-adult-8-adult-9:adult-0'
p1592
I0
sS'adult-11-adult-12-adult-14-adult-8-adult-9:adult-2'
p1593
I0
sS'adult-11-adult-12-adult-14-adult-8-adult-9:adult-4'
p1594
I0
sS'adult-14-adult-4-adult-8:adult-10'
p1595
I0
sS'adult-14-adult-4:adult-11'
p1596
I0
sS'adult-0-adult-10-adult-12-adult-9:adult-2'
p1597
I0
sS'adult-4-adult-8-adult-9:adult-14'
p1598
F33757.24446425104
sS'adult-4-adult-8-adult-9:adult-12'
p1599
I0
sS'adult-0-adult-10-adult-12-adult-9:adult-4'
p1600
I0
sS'adult-4-adult-8-adult-9:adult-11'
p1601
I0
sS'adult-0-adult-10-adult-12-adult-9:adult-8'
p1602
F775836.3527053047
sS'adult-10-adult-12-adult-14-adult-2-adult-9:adult-11'
p1603
I0
sS'adult-12-adult-14-adult-2-adult-8:adult-0'
p1604
I0
sS'adult-12-adult-14-adult-2-adult-8:adult-4'
p1605
I0
sS'adult-0-adult-11-adult-2-adult-9:adult-12'
p1606
I0
sS'adult-12-adult-14-adult-2-adult-8:adult-9'
p1607
F284868.7726305487
sS'adult-11-adult-12-adult-2-adult-8-adult-9:adult-4'
p1608
I0
sS'adult-11-adult-12-adult-2-adult-8-adult-9:adult-0'
p1609
I0
sS'adult-10-adult-12-adult-4:adult-2'
p1610
I0
sS'adult-10-adult-12-adult-4:adult-0'
p1611
I0
sS'adult-10-adult-14-adult-2-adult-4-adult-9:adult-11'
p1612
I0
sS'adult-10-adult-14-adult-2-adult-4-adult-9:adult-12'
p1613
I0
sS'adult-10-adult-12-adult-4:adult-8'
p1614
F336722.6466887225
sS'adult-0-adult-12:adult-9'
p1615
F297347.875140259
sS'adult-0-adult-12:adult-8'
p1616
F261985.71910907218
sS'adult-0-adult-12:adult-4'
p1617
I0
sS'adult-0-adult-12:adult-2'
p1618
I0
sS'adult-12-adult-14-adult-4-adult-8:adult-0'
p1619
I0
sS'adult-0-adult-10-adult-8-adult-9:adult-11'
p1620
I0
sS'adult-11-adult-14-adult-2:adult-8'
p1621
F356907.1170324136
sS'adult-11-adult-14-adult-2:adult-9'
p1622
F396461.2424789714
sS'adult-10-adult-11-adult-12-adult-2:adult-14'
p1623
F2999390.5749801146
sS'adult-11-adult-14-adult-2:adult-4'
p1624
I0
sS'adult-0-adult-4-adult-9:adult-14'
p1625
F169736.45590647808
sS'adult-0-adult-4-adult-9:adult-12'
p1626
I0
sS'adult-0-adult-4-adult-9:adult-10'
p1627
I0
sS'adult-0-adult-4-adult-9:adult-11'
p1628
I0
sS'adult-11-adult-4-adult-8:adult-14'
p1629
F141688.57431661643
sS'adult-10-adult-11-adult-12-adult-14-adult-9:adult-2'
p1630
I0
sS'adult-10-adult-11-adult-12-adult-14-adult-9:adult-0'
p1631
I0
sS'adult-11-adult-4-adult-8:adult-10'
p1632
I0
sS'adult-11-adult-4-adult-8:adult-12'
p1633
I0
sS'adult-10-adult-11-adult-12-adult-14-adult-9:adult-4'
p1634
I0
sS'adult-11-adult-12-adult-14-adult-2-adult-8-adult-9:adult-4'
p1635
I0
sS'adult-10-adult-14-adult-2-adult-8-adult-9:adult-12'
p1636
I0
sS'adult-11-adult-12-adult-14-adult-2-adult-8-adult-9:adult-0'
p1637
I0
sS'adult-0-adult-10-adult-9:adult-8'
p1638
F266502.621784297
sS'adult-0-adult-10-adult-12-adult-2-adult-4-adult-8:adult-11'
p1639
I0
sS'adult-0-adult-10-adult-12-adult-2-adult-4-adult-8:adult-14'
p1640
F7407436.9181182245
sS'adult-0-adult-10-adult-9:adult-4'
p1641
I0
sS'adult-0-adult-10-adult-12-adult-14-adult-8:adult-2'
p1642
I0
sS'adult-0-adult-10-adult-12-adult-14-adult-8:adult-4'
p1643
I0
sS'adult-0-adult-12-adult-8-adult-9:adult-4'
p1644
I0
sS'adult-0-adult-11-adult-4-adult-8-adult-9:adult-12'
p1645
I0
sS'adult-0-adult-11-adult-4-adult-8-adult-9:adult-10'
p1646
I0
sS'adult-11-adult-12-adult-2-adult-8:adult-14'
p1647
F1001411.0314005351
sS'adult-0-adult-12-adult-8-adult-9:adult-2'
p1648
I0
sS'adult-0-adult-11-adult-4-adult-8-adult-9:adult-14'
p1649
F675304.2335396609
sS'adult-0-adult-10-adult-14-adult-2-adult-9:adult-4'
p1650
I0
sS'adult-0-adult-10-adult-14-adult-2-adult-8-adult-9:adult-11'
p1651
I0
sS'adult-0-adult-10-adult-14-adult-2-adult-8-adult-9:adult-12'
p1652
I0
sS'adult-0-adult-10-adult-14-adult-2-adult-9:adult-8'
p1653
F1323819.5731718417
sS'adult-11-adult-12-adult-2-adult-4-adult-8:adult-14'
p1654
F1996592.0908112347
sS'adult-11-adult-12-adult-2-adult-4-adult-8:adult-10'
p1655
I0
sS'adult-10-adult-12-adult-2-adult-9:adult-4'
p1656
I0
sS'adult-11-adult-2-adult-4-adult-8-adult-9:adult-10'
p1657
I0
sS'adult-0-adult-10-adult-12-adult-14-adult-8-adult-9:adult-11'
p1658
I0
sS'adult-0-adult-12-adult-14-adult-4-adult-9:adult-10'
p1659
I0
sS'adult-0-adult-12-adult-14-adult-4-adult-9:adult-11'
p1660
I0
sS'adult-11-adult-14-adult-2-adult-4-adult-8-adult-9:adult-10'
p1661
I0
sS'adult-12-adult-14-adult-9:adult-10'
p1662
I0
sS'adult-12-adult-14-adult-9:adult-11'
p1663
I0
sS'adult-11-adult-12-adult-14:adult-10'
p1664
I0
sS'adult-0-adult-2-adult-4-adult-8:adult-14'
p1665
F885526.7947269427
sS'adult-10-adult-12-adult-2-adult-9:adult-8'
p1666
F775836.3527053047
sS'adult-0-adult-2-adult-4-adult-8:adult-12'
p1667
I0
sS'adult-0-adult-2-adult-4-adult-8:adult-11'
p1668
I0
sS'adult-0-adult-2-adult-4-adult-8:adult-10'
p1669
I0
sS'adult-10-adult-4-adult-8:adult-12'
p1670
I0
sS'adult-10-adult-4-adult-8:adult-11'
p1671
I0
sS'adult-12-adult-2-adult-8:adult-14'
p1672
F250361.72880042475
sS'adult-0-adult-14-adult-2-adult-4-adult-8-adult-9:adult-10'
p1673
I0
sS'adult-12-adult-2-adult-8:adult-11'
p1674
I0
sS'adult-12-adult-2-adult-8:adult-10'
p1675
I0
sS'adult-0-adult-2-adult-8:adult-12'
p1676
I0
sS'adult-0-adult-2-adult-8:adult-11'
p1677
I0
sS'adult-0-adult-11-adult-12-adult-2-adult-9:adult-10'
p1678
I0
sS'adult-0-adult-2-adult-8:adult-14'
p1679
F444748.82776207774
sS'adult-10-adult-4-adult-9:adult-2'
p1680
I0
sS'adult-10-adult-4-adult-9:adult-0'
p1681
I0
sS'adult-12-adult-2-adult-9:adult-10'
p1682
I0
sS'adult-0-adult-11-adult-2-adult-8-adult-9:adult-4'
p1683
I0
sS'adult-14-adult-2-adult-8:adult-12'
p1684
I0
sS'adult-12-adult-2-adult-9:adult-14'
p1685
F242180.84832866362
sS'adult-10-adult-4-adult-9:adult-8'
p1686
F114305.95598058517
sS'adult-0-adult-10-adult-11-adult-14-adult-2-adult-9:adult-8'
p1687
F5296030.427828396
sS'adult-0-adult-8:adult-11'
p1688
I0
sS'adult-0-adult-12-adult-14-adult-4-adult-8:adult-11'
p1689
I0
sS'adult-0-adult-12-adult-14-adult-4-adult-8:adult-10'
p1690
I0
sS'adult-0-adult-10-adult-11-adult-14-adult-2-adult-9:adult-4'
p1691
I0
sS'adult-14-adult-2-adult-8:adult-9'
p1692
F98423.37672415654
sS'adult-14-adult-2-adult-8:adult-0'
p1693
I0
sS'adult-10-adult-12-adult-2-adult-8-adult-9:adult-14'
p1694
F713912.6875255541
sS'adult-14-adult-2-adult-8:adult-4'
p1695
I0
sS'adult-10-adult-12-adult-2-adult-8-adult-9:adult-11'
p1696
I0
sS'adult-0-adult-11-adult-2-adult-4:adult-8'
p1697
F3867117.939845145
sS'adult-0-adult-11-adult-2-adult-4:adult-9'
p1698
F4394882.922093584
sS'adult-0-adult-10-adult-11-adult-2-adult-8:adult-12'
p1699
I0
sS'adult-0-adult-10-adult-2-adult-8-adult-9:adult-4'
p1700
I0
sS'adult-0-adult-10-adult-12-adult-14-adult-2-adult-8:adult-4'
p1701
I0
sS'adult-0-adult-2-adult-4:adult-14'
p1702
F893434.4032856334
sS'adult-0-adult-2-adult-4:adult-12'
p1703
I0
sS'adult-0-adult-10-adult-12-adult-14-adult-2-adult-8:adult-9'
p1704
F4265469.214646259
sS'adult-0-adult-2-adult-4:adult-10'
p1705
I0
sS'adult-10-adult-11-adult-12-adult-4-adult-9:adult-2'
p1706
I0
sS'adult-10-adult-14-adult-2-adult-4-adult-8-adult-9:adult-0'
p1707
I0
sS'adult-10-adult-11-adult-12-adult-4-adult-9:adult-0'
p1708
I0
sS'adult-10-adult-14-adult-4:adult-11'
p1709
I0
sS'adult-10-adult-14-adult-4:adult-12'
p1710
I0
sS'adult-10-adult-2-adult-4-adult-8:adult-9'
p1711
F650799.8009044557
sS'adult-10-adult-11-adult-12-adult-4-adult-9:adult-8'
p1712
F1333341.5760373722
sS'adult-0-adult-10-adult-12-adult-2-adult-4:adult-14'
p1713
F7465697.45697786
sS'adult-0-adult-14-adult-2-adult-8-adult-9:adult-10'
p1714
I0
sS'adult-10-adult-12-adult-14-adult-9:adult-11'
p1715
I0
sS'adult-11-adult-12-adult-14-adult-4-adult-8:adult-0'
p1716
I0
sS'adult-11-adult-12-adult-14-adult-4-adult-8:adult-2'
p1717
I0
sS'adult-11-adult-12-adult-14-adult-4-adult-8:adult-9'
p1718
F484705.7909569649
sS'adult-11-adult-12-adult-14-adult-4:adult-8'
p1719
F446865.0014092538
sS'adult-11-adult-12-adult-14-adult-4:adult-9'
p1720
F487960.2540527136
sS'adult-0-adult-10-adult-11-adult-12-adult-9:adult-8'
p1721
F3103629.9329301887
sS'adult-2-adult-4-adult-9:adult-14'
p1722
F169736.45590647808
sS'adult-0-adult-10-adult-11-adult-12-adult-9:adult-4'
p1723
I0
sS'adult-11-adult-12-adult-14-adult-4:adult-0'
p1724
I0
sS'adult-0-adult-10-adult-11-adult-12-adult-9:adult-2'
p1725
I0
sS'adult-2-adult-4-adult-9:adult-12'
p1726
I0
sS'adult-11-adult-2-adult-9:adult-8'
p1727
F356374.7140602466
sS'adult-10-adult-14-adult-2-adult-4:adult-9'
p1728
F631371.0126389791
sS'adult-12-adult-14-adult-4-adult-9:adult-10'
p1729
I0
sS'adult-0-adult-10-adult-12-adult-4-adult-9:adult-8'
p1730
F1665966.2841822554
sS'adult-2-adult-8:adult-4'
p1731
I0
sS'adult-0-adult-11-adult-12-adult-14-adult-8:adult-10'
p1732
I0
sS'adult-2-adult-8:adult-0'
p1733
I0
sS'adult-2-adult-9:adult-4'
p1734
I0
sS'adult-11-adult-2-adult-9:adult-0'
p1735
I0
sS'adult-11-adult-12:adult-0'
p1736
I0
sS'adult-4:adult-9'
p1737
F43966.52653417429
sS'adult-4:adult-8'
p1738
F38672.55095097057
sS'adult-0-adult-12-adult-14-adult-2-adult-4-adult-8-adult-9:adult-10'
p1739
I0
sS'adult-0-adult-12-adult-14-adult-2-adult-4-adult-8-adult-9:adult-11'
p1740
I0
sS'adult-10-adult-12:adult-4'
p1741
I0
sS'adult-4:adult-0'
p1742
I0
sS'adult-4:adult-2'
p1743
I0
sS'adult-0-adult-10-adult-12-adult-4-adult-9:adult-11'
p1744
I0
sS'adult-0-adult-10-adult-12-adult-4-adult-9:adult-14'
p1745
F1425303.433074728
sS'adult-10-adult-11-adult-14-adult-8:adult-0'
p1746
I0
sS'adult-10-adult-11-adult-12-adult-8-adult-9:adult-14'
p1747
F571237.355248018
sS'adult-11-adult-2-adult-8:adult-9'
p1748
F408997.4369675729
sS'adult-11-adult-2-adult-8:adult-4'
p1749
I0
sS'adult-11-adult-2-adult-8:adult-0'
p1750
I0
sS'adult-0-adult-10-adult-11-adult-12-adult-14-adult-2-adult-8:adult-4'
p1751
I0
sS'adult-12-adult-14-adult-4:adult-9'
p1752
F122029.93549011687
sS'adult-12-adult-14-adult-4:adult-8'
p1753
F111684.9838781366
sS'adult-12-adult-14-adult-4:adult-2'
p1754
I0
sS'adult-12-adult-14-adult-4:adult-0'
p1755
I0
sS'adult-0-adult-10-adult-11-adult-12-adult-14-adult-2-adult-8:adult-9'
p1756
F17059743.272402436
sS'adult-12-adult-14-adult-4-adult-9:adult-2'
p1757
I0
sS'adult-0-adult-10-adult-2-adult-4:adult-11'
p1758
I0
sS'adult-12-adult-14-adult-4-adult-9:adult-0'
p1759
I0
sS'adult-10-adult-14-adult-8-adult-9:adult-11'
p1760
I0
sS'adult-12-adult-14-adult-4-adult-9:adult-8'
p1761
F110821.60971752326
sS'adult-0-adult-10-adult-12-adult-14-adult-2-adult-4-adult-8:adult-9'
p1762
F9075342.699985147
sS'adult-10-adult-11-adult-8-adult-9:adult-14'
p1763
F201724.6662885566
sS'adult-0-adult-11-adult-12-adult-14-adult-2-adult-4-adult-9:adult-8'
p1764
F11090263.457836943
sS'adult-10-adult-11-adult-8-adult-9:adult-12'
p1765
I0
sS'adult-10-adult-11-adult-12-adult-8-adult-9:adult-4'
p1766
I0
sS'adult-10-adult-11-adult-12-adult-8-adult-9:adult-2'
p1767
I0
sS'adult-10-adult-11-adult-12-adult-8-adult-9:adult-0'
p1768
I0
sS'adult-0-adult-2-adult-4:adult-8'
p1769
F966813.7737743148
sS'adult-10-adult-12-adult-14-adult-2-adult-8:adult-11'
p1770
I0
sS'adult-0-adult-10-adult-11-adult-12-adult-4-adult-8:adult-2'
p1771
I0
sS'adult-0-adult-11-adult-14-adult-2:adult-8'
p1772
F1784535.585162027
sS'adult-0-adult-11-adult-14-adult-2:adult-9'
p1773
F1982306.212394857
sS'adult-10-adult-11-adult-14-adult-4-adult-8-adult-9:adult-12'
p1774
I0
sS'adult-0-adult-11-adult-14-adult-2:adult-4'
p1775
I0
sS'adult-0-adult-10-adult-11-adult-12-adult-4-adult-8:adult-9'
p1776
F7508566.929744363
sS'adult-12-adult-14-adult-2-adult-4-adult-8:adult-11'
p1777
I0
sS'adult-12-adult-14-adult-2-adult-4-adult-8:adult-10'
p1778
I0
sS'adult-10-adult-2-adult-9:adult-8'
p1779
F266502.621784297
sS'adult-10-adult-2-adult-9:adult-4'
p1780
I0
sS'adult-10-adult-2-adult-9:adult-0'
p1781
I0
sS'adult-0-adult-10-adult-8:adult-14'
p1782
F263502.62335499364
sS'adult-0-adult-10-adult-8:adult-12'
p1783
I0
sS'adult-0-adult-10-adult-8:adult-11'
p1784
I0
sS'adult-0-adult-10-adult-11-adult-9:adult-2'
p1785
I0
sS'adult-0-adult-11-adult-12-adult-14-adult-2-adult-8:adult-9'
p1786
F5696248.040111948
sS'adult-0-adult-11-adult-12-adult-14-adult-2-adult-8:adult-4'
p1787
I0
sS'adult-0-adult-11-adult-14-adult-4:adult-9'
p1788
F843213.4752928613
sS'adult-9:adult-0'
p1789
I0
sS'adult-0-adult-12-adult-4-adult-9:adult-10'
p1790
I0
sS'adult-0-adult-12-adult-4-adult-9:adult-11'
p1791
I0
sS'adult-0-adult-12-adult-4-adult-9:adult-14'
p1792
F480303.32949884137
sS'adult-11-adult-14-adult-2-adult-8-adult-9:adult-4'
p1793
I0
sS'adult-11-adult-14-adult-2-adult-8-adult-9:adult-0'
p1794
I0
sS'adult-10-adult-12-adult-14-adult-2:adult-4'
p1795
I0
sS'adult-0-adult-12-adult-14-adult-2-adult-8:adult-4'
p1796
I0
sS'adult-10-adult-12-adult-14-adult-2:adult-0'
p1797
I0
sS'adult-0-adult-12-adult-14-adult-2-adult-8:adult-9'
p1798
F1424343.8631527503
sS'adult-14-adult-4-adult-8-adult-9:adult-11'
p1799
I0
sS'adult-14-adult-4-adult-8-adult-9:adult-12'
p1800
I0
sS'adult-10-adult-12-adult-14-adult-2:adult-9'
p1801
F858505.7517470861
sS'adult-10-adult-12-adult-14-adult-2:adult-8'
p1802
F776700.0814212007
sS'adult-10-adult-11:adult-4'
p1803
I0
sS'adult-10-adult-11-adult-12-adult-2-adult-9:adult-14'
p1804
F2873574.0063385763
sS'adult-10-adult-11:adult-0'
p1805
I0
sS'adult-10-adult-11:adult-2'
p1806
I0
sS'adult-0-adult-10-adult-12-adult-2-adult-4:adult-11'
p1807
I0
sS'adult-10-adult-11:adult-8'
p1808
F215687.1612354924
sS'adult-10-adult-11-adult-12-adult-2-adult-4-adult-9:adult-14'
p1809
F5701382.809106117
sS'adult-10-adult-12:adult-9'
p1810
F177997.77586750424
sS'adult-10-adult-12:adult-8'
p1811
F156759.22502562002
sS'adult-10-adult-12:adult-2'
p1812
I0
sS'adult-10-adult-12:adult-0'
p1813
I0
sS'adult-0-adult-10-adult-12-adult-14-adult-2-adult-8:adult-11'
p1814
I0
sS'adult-11-adult-12-adult-14-adult-9:adult-10'
p1815
I0
sS'adult-0-adult-10-adult-11-adult-12-adult-14-adult-4:adult-8'
p1816
F6690720.612410689
sS'adult-0-adult-10-adult-11-adult-12-adult-14-adult-4:adult-9'
p1817
F7306400.397148316
sS'adult-4-adult-9:adult-0'
p1818
I0
sS'adult-0-adult-10-adult-11-adult-12-adult-14-adult-4:adult-2'
p1819
I0
sS'adult-11-adult-14-adult-2-adult-9:adult-8'
p1820
F354023.31808838405
sS'adult-11-adult-14-adult-2-adult-9:adult-4'
p1821
I0
sS'adult-11-adult-14-adult-2-adult-9:adult-0'
p1822
I0
sS'adult-0-adult-11-adult-12-adult-14-adult-2-adult-4-adult-8:adult-10'
p1823
I0
sS'adult-10-adult-12-adult-14-adult-8-adult-9:adult-11'
p1824
I0
sS'adult-0-adult-14-adult-8:adult-9'
p1825
F98423.37672415654
sS'adult-0-adult-10-adult-11-adult-14-adult-4-adult-8:adult-9'
p1826
F2505307.4233926265
sS'adult-0-adult-11-adult-2-adult-8:adult-14'
p1827
F1778839.2465732251
sS'adult-0-adult-11-adult-2-adult-8:adult-12'
p1828
I0
sS'adult-0-adult-11-adult-2-adult-8:adult-10'
p1829
I0
sS'adult-0-adult-10-adult-11-adult-14-adult-4-adult-8:adult-2'
p1830
I0
sS'adult-11-adult-12-adult-2-adult-8:adult-9'
p1831
F1178257.143490018
sS'adult-10-adult-8-adult-9:adult-2'
p1832
I0
sS'adult-10-adult-8-adult-9:adult-0'
p1833
I0
sS'adult-10-adult-8-adult-9:adult-4'
p1834
I0
sS'adult-0-adult-11-adult-14-adult-4-adult-8:adult-10'
p1835
I0
sS'adult-10-adult-12-adult-14-adult-2-adult-4-adult-8:adult-9'
p1836
F1815068.5399970652
sS'adult-0-adult-12-adult-14-adult-2-adult-4-adult-8:adult-11'
p1837
I0
sS'adult-0-adult-12-adult-14-adult-2-adult-4-adult-8:adult-10'
p1838
I0
sS'adult-12-adult-2-adult-4-adult-8:adult-9'
p1839
F626974.3799588995
sS'adult-10-adult-12-adult-14-adult-2-adult-4-adult-8:adult-0'
p1840
I0
sS'adult-12-adult-2-adult-4-adult-8:adult-0'
p1841
I0
sS'adult-0-adult-10-adult-11-adult-12-adult-8:adult-14'
p1842
F2971411.8476219275
sS'adult-0-adult-14-adult-4-adult-9:adult-11'
p1843
I0
sS'adult-0-adult-14-adult-4-adult-9:adult-12'
p1844
I0
sS'adult-0-adult-10-adult-14-adult-2-adult-8:adult-9'
p1845
F1473391.493265029
sS'adult-11-adult-12-adult-14-adult-2-adult-9:adult-8'
p1846
F1030979.8928789904
sS'adult-10-adult-11-adult-12-adult-14-adult-2-adult-4:adult-8'
p1847
F6690720.612410689
sS'adult-10-adult-11-adult-12-adult-14-adult-2-adult-4:adult-9'
p1848
F7306400.397148316
sS'adult-11-adult-12-adult-14-adult-2-adult-9:adult-4'
p1849
I0
sS'adult-0-adult-12-adult-2-adult-4:adult-9'
p1850
F3165170.516506506
sS'adult-0-adult-12-adult-2-adult-4:adult-8'
p1851
F2812732.749096268
sS'adult-0-adult-12-adult-2-adult-4-adult-8-adult-9:adult-14'
p1852
F2389622.758048365
sS'adult-0-adult-10-adult-14-adult-2-adult-4:adult-9'
p1853
F3156855.0631949017
sS'adult-0-adult-11-adult-12-adult-2-adult-4-adult-9:adult-10'
p1854
I0
sS'adult-0-adult-11-adult-12-adult-2-adult-4-adult-9:adult-14'
p1855
F9605932.436099084
sS':adult-14'
p1856
F17975.039717611377
sS':adult-11'
p1857
I0
sS':adult-10'
p1858
I0
sS':adult-12'
p1859
I0
sS'adult-0-adult-10-adult-11-adult-2:adult-4'
p1860
I0
sS'adult-8:adult-4'
p1861
I0
sS'adult-0-adult-10-adult-11-adult-2:adult-8'
p1862
F5392179.030887905
sS'adult-0-adult-10-adult-11-adult-2:adult-9'
p1863
F6180857.569039161
sS'adult-0-adult-12-adult-2-adult-8-adult-9:adult-4'
p1864
I0
sS'adult-10-adult-11-adult-12-adult-4-adult-9:adult-14'
p1865
F1140276.5618212218
sS'adult-0-adult-11-adult-14-adult-2-adult-4-adult-9:adult-8'
p1866
F3802333.573333968
sS'adult-0-adult-11-adult-12:adult-2'
p1867
I0
sS'adult-12-adult-2-adult-4-adult-8:adult-11'
p1868
I0
sS'adult-11-adult-12-adult-2-adult-4-adult-9:adult-10'
p1869
I0
sS'adult-14-adult-2-adult-4:adult-11'
p1870
I0
sS'adult-14-adult-2-adult-4:adult-10'
p1871
I0
sS'adult-14-adult-2-adult-4:adult-12'
p1872
I0
sS'adult-10-adult-2-adult-8:adult-11'
p1873
I0
sS'adult-10-adult-11-adult-14-adult-8:adult-4'
p1874
I0
sS'adult-10-adult-11-adult-12-adult-14-adult-2-adult-4:adult-0'
p1875
I0
sS'adult-0-adult-10-adult-12:adult-11'
p1876
I0
sS'adult-0-adult-11-adult-12-adult-14-adult-2-adult-8-adult-9:adult-4'
p1877
I0
sS'adult-10-adult-11-adult-12-adult-14-adult-2:adult-8'
p1878
F3107098.1853283714
sS'adult-10-adult-11-adult-12-adult-14-adult-2:adult-9'
p1879
F3432804.136977344
sS'adult-10-adult-11-adult-14-adult-8:adult-2'
p1880
I0
sS'adult-0-adult-10-adult-14-adult-4-adult-8:adult-12'
p1881
I0
sS'adult-10-adult-11-adult-12-adult-14-adult-2:adult-4'
p1882
I0
sS'adult-12-adult-2-adult-8-adult-9:adult-0'
p1883
I0
sS'adult-10-adult-11-adult-12-adult-2-adult-4:adult-8'
p1884
F6735308.241659874
sS'adult-10-adult-11-adult-12-adult-2-adult-4:adult-9'
p1885
F7577167.291217594
sS'adult-12-adult-2-adult-8-adult-9:adult-4'
p1886
I0
sS'adult-0-adult-8:adult-4'
p1887
I0
sS'adult-11-adult-14-adult-4-adult-8:adult-10'
p1888
I0
sS'adult-11-adult-14-adult-4-adult-8:adult-12'
p1889
I0
sS'adult-11-adult-12-adult-14-adult-2:adult-10'
p1890
I0
sS':adult-4'
p1891
I0
sS'adult-10-adult-11-adult-14-adult-2:adult-8'
p1892
F1067662.4293251287
sS'adult-10-adult-11-adult-14-adult-2:adult-9'
p1893
F1186871.598749431
sS'adult-10-adult-2:adult-9'
p1894
F309164.5866636385
sS':adult-0'
p1895
I0
sS':adult-2'
p1896
I0
sS'adult-10-adult-2:adult-4'
p1897
I0
sS'adult-10-adult-11-adult-14-adult-2:adult-0'
p1898
I0
sS':adult-9'
p1899
F20668.764842671037
sS':adult-8'
p1900
F18031.22931773575
sS'adult-10-adult-11-adult-14-adult-2:adult-4'
p1901
I0
sS'adult-0-adult-12-adult-2-adult-8-adult-9:adult-10'
p1902
I0
sS'adult-0-adult-12-adult-2-adult-8-adult-9:adult-11'
p1903
I0
sS'adult-0-adult-10-adult-4-adult-8:adult-11'
p1904
I0
sS'adult-0-adult-11-adult-2-adult-4-adult-8-adult-9:adult-12'
p1905
I0
sS'adult-0-adult-12-adult-2-adult-8-adult-9:adult-14'
p1906
F1202885.4137224793
sS'adult-0-adult-11-adult-2-adult-4-adult-8-adult-9:adult-14'
p1907
F3376521.1676981924
sS'adult-0-adult-10-adult-4-adult-8:adult-14'
p1908
F524930.8594239521
sS'adult-0-adult-11-adult-14-adult-4-adult-9:adult-2'
p1909
I0
sS'adult-10-adult-2-adult-8:adult-12'
p1910
I0
sS'adult-10-adult-8:adult-12'
p1911
I0
sS'adult-10-adult-14-adult-8:adult-11'
p1912
I0
sS'adult-0-adult-10-adult-12-adult-2:adult-4'
p1913
I0
sS'adult-10-adult-14-adult-8:adult-12'
p1914
I0
sS'adult-14-adult-2-adult-9:adult-12'
p1915
I0
sS'adult-14-adult-2-adult-9:adult-10'
p1916
I0
sS'adult-11-adult-12-adult-14-adult-2-adult-9:adult-0'
p1917
I0
sS'adult-0-adult-10-adult-12-adult-2:adult-9'
p1918
F4449944.3966876
sS'adult-0-adult-10-adult-12-adult-2:adult-8'
p1919
F3918980.625640893
sS'adult-12-adult-14-adult-2-adult-8:adult-11'
p1920
I0
sS'adult-12-adult-14-adult-2-adult-8:adult-10'
p1921
I0
sS'adult-10-adult-12-adult-8-adult-9:adult-14'
p1922
F142782.53750511055
sS'adult-14-adult-2:adult-0'
p1923
I0
sS'adult-10-adult-12-adult-8-adult-9:adult-11'
p1924
I0
sS'adult-0-adult-10-adult-11-adult-14-adult-2-adult-4-adult-8:adult-12'
p1925
I0
sS'adult-11-adult-14-adult-2-adult-4-adult-8-adult-9:adult-0'
p1926
I0
sS'adult-0-adult-10-adult-14-adult-4-adult-9:adult-12'
p1927
I0
sS'adult-0-adult-10-adult-14-adult-4-adult-9:adult-11'
p1928
I0
sS'adult-0-adult-10-adult-14-adult-2-adult-4:adult-8'
p1929
F2869482.232093024
sS'adult-0-adult-11-adult-12-adult-4-adult-8-adult-9:adult-14'
p1930
F1912677.5565134527
sS'adult-0-adult-11-adult-12-adult-4-adult-8-adult-9:adult-10'
p1931
I0
sS'adult-0-adult-11-adult-14:adult-9'
p1932
F396461.2424789714
sS'adult-11-adult-12-adult-2-adult-8-adult-9:adult-14'
p1933
F962403.4959329304
sS'adult-0-adult-14:adult-8'
p1934
F89230.71355303664
sS'adult-10-adult-11-adult-12-adult-14-adult-8-adult-9:adult-2'
p1935
I0
sS'adult-10-adult-11-adult-12-adult-14-adult-8-adult-9:adult-0'
p1936
I0
sS'adult-0-adult-11-adult-14-adult-2:adult-12'
p1937
I0
sS'adult-0-adult-11-adult-14-adult-2:adult-10'
p1938
I0
sS'adult-10-adult-11-adult-12-adult-14-adult-8-adult-9:adult-4'
p1939
I0
sS'adult-0-adult-10-adult-2-adult-4-adult-9:adult-8'
p1940
F2857648.899513148
sS'adult-10-adult-11-adult-2-adult-4-adult-9:adult-14'
p1941
F2012464.324897155
sS'adult-10-adult-11-adult-2-adult-4-adult-9:adult-12'
p1942
I0
sS'adult-14-adult-4:adult-2'
p1943
I0
sS'adult-0-adult-10-adult-11-adult-2-adult-4-adult-8-adult-9:adult-14'
p1944
F10013299.916187935
sS'adult-0-adult-10-adult-11-adult-2-adult-4-adult-8-adult-9:adult-12'
p1945
I0
sS'adult-0-adult-11-adult-12-adult-4:adult-2'
p1946
I0
sS'adult-0-adult-11-adult-12-adult-14-adult-2-adult-8-adult-9:adult-10'
p1947
I0
sS'adult-0-adult-12-adult-14-adult-9:adult-10'
p1948
I0
sS'adult-0-adult-10-adult-11-adult-14:adult-12'
p1949
I0
sS'adult-12-adult-2-adult-4-adult-8-adult-9:adult-14'
p1950
F477924.55160966684
sS'adult-12-adult-8-adult-9:adult-14'
p1951
F48115.4165488988
sS'adult-12-adult-2-adult-4-adult-8-adult-9:adult-10'
p1952
I0
sS'adult-12-adult-2-adult-4-adult-8-adult-9:adult-11'
p1953
I0
sS'adult-0-adult-12-adult-14-adult-8:adult-9'
p1954
F284868.7726305487
sS'adult-12-adult-8-adult-9:adult-11'
p1955
I0
sS'adult-0-adult-12-adult-14-adult-8:adult-4'
p1956
I0
sS'adult-0-adult-12-adult-14-adult-8:adult-2'
p1957
I0
sS'adult-10-adult-12-adult-14:adult-9'
p1958
F171701.15034941697
sS'adult-10-adult-12-adult-14:adult-8'
p1959
F155340.01628424146
sS'adult-11-adult-12-adult-2-adult-4:adult-8'
p1960
F2250304.539074558
sS'adult-11-adult-12-adult-2-adult-4:adult-9'
p1961
F2531186.4058833914
sS'adult-10-adult-12-adult-14:adult-0'
p1962
I0
sS'adult-11-adult-12-adult-2-adult-4:adult-0'
p1963
I0
sS'adult-10-adult-12-adult-14:adult-2'
p1964
I0
sS'adult-10-adult-12-adult-14:adult-4'
p1965
I0
sS'adult-0-adult-11-adult-12-adult-4:adult-9'
p1966
F2531186.4058833914
sS'adult-2-adult-8-adult-9:adult-4'
p1967
I0
sS'adult-0-adult-11-adult-2-adult-8:adult-9'
p1968
F2044987.184837859
sS'adult-2-adult-8-adult-9:adult-0'
p1969
I0
sS'adult-0-adult-11-adult-2-adult-8:adult-4'
p1970
I0
sS'adult-0-adult-14:adult-12'
p1971
I0
sS'adult-0-adult-14:adult-11'
p1972
I0
sS'adult-10-adult-11-adult-4-adult-8-adult-9:adult-12'
p1973
I0
sS'adult-0-adult-11-adult-4-adult-9:adult-2'
p1974
I0
sS'adult-10-adult-11-adult-4-adult-8-adult-9:adult-14'
p1975
F400531.9966475321
sS'adult-0-adult-10-adult-11-adult-14-adult-2-adult-8-adult-9:adult-4'
p1976
I0
sS'adult-10-adult-11-adult-14-adult-8-adult-9:adult-4'
p1977
I0
sS'adult-12-adult-4-adult-8-adult-9:adult-0'
p1978
I0
sS'adult-10-adult-11-adult-8-adult-9:adult-4'
p1979
I0
sS'adult-12-adult-4-adult-8-adult-9:adult-2'
p1980
I0
sS'adult-10-adult-11-adult-8-adult-9:adult-0'
p1981
I0
sS'adult-12-adult-14-adult-8:adult-9'
p1982
F56973.754526109704
sS'adult-10-adult-11-adult-8-adult-9:adult-2'
p1983
I0
sS'adult-2-adult-4-adult-8-adult-9:adult-14'
p1984
F168786.22232125443
sS'adult-0-adult-11-adult-12-adult-14:adult-10'
p1985
I0
sS'adult-12-adult-14-adult-8:adult-4'
p1986
I0
sS'adult-0-adult-10-adult-11-adult-8:adult-12'
p1987
I0
sS'adult-12-adult-14-adult-8:adult-2'
p1988
I0
sS'adult-2-adult-4-adult-8-adult-9:adult-12'
p1989
I0
sS'adult-12-adult-14-adult-8:adult-0'
p1990
I0
sS'adult-11-adult-12-adult-8-adult-9:adult-0'
p1991
I0
sS'adult-11-adult-12-adult-8-adult-9:adult-2'
p1992
I0
sS'adult-11-adult-12-adult-8-adult-9:adult-4'
p1993
I0
sS'adult-11-adult-14-adult-4-adult-8-adult-9:adult-10'
p1994
I0
sS'adult-11-adult-12-adult-9:adult-8'
p1995
F207438.64784847514
sS'adult-10-adult-11-adult-4-adult-9:adult-0'
p1996
I0
sS'adult-11-adult-12-adult-9:adult-0'
p1997
I0
sS'adult-11-adult-12-adult-9:adult-2'
p1998
I0
sS'adult-11-adult-12-adult-9:adult-4'
p1999
I0
sS'adult-0-adult-10-adult-11-adult-12-adult-14-adult-4-adult-8-adult-9:adult-2'
p2000
I0
sS'adult-10-adult-11-adult-12-adult-2:adult-8'
p2001
F3135076.912686585
sS'adult-10-adult-11-adult-12-adult-2:adult-9'
p2002
F3558620.7056188723
sS'adult-10-adult-11-adult-12-adult-2-adult-4-adult-9:adult-8'
p2003
F6666707.880186917
sS'adult-10-adult-11-adult-12-adult-2:adult-0'
p2004
I0
sS'adult-10-adult-11-adult-12-adult-2:adult-4'
p2005
I0
sS'adult-10-adult-11-adult-12-adult-2-adult-4-adult-9:adult-0'
p2006
I0
sS'adult-10-adult-11-adult-2:adult-14'
p2007
F1064716.596407449
sS'adult-12-adult-2:adult-9'
p2008
F297347.875140259
sS'adult-12-adult-2:adult-8'
p2009
F261985.71910907218
sS'adult-10-adult-11-adult-2:adult-12'
p2010
I0
sS'adult-12-adult-2:adult-0'
p2011
I0
sS'adult-12-adult-2:adult-4'
p2012
I0
sS'adult-0-adult-12-adult-14-adult-2-adult-4-adult-9:adult-10'
p2013
I0
sS'adult-0-adult-12-adult-14-adult-2-adult-4-adult-9:adult-11'
p2014
I0
sS'adult-0-adult-10-adult-12-adult-14-adult-4-adult-8:adult-9'
p2015
F1815068.5399970652
sS'adult-0-adult-10-adult-12-adult-14-adult-2-adult-9:adult-11'
p2016
I0
sS'adult-11-adult-9:adult-8'
p2017
F71274.94281204986
sS'adult-10-adult-12-adult-14-adult-8-adult-9:adult-0'
p2018
I0
sS'adult-11-adult-9:adult-2'
p2019
I0
sS'adult-10-adult-12-adult-14-adult-8-adult-9:adult-2'
p2020
I0
sS'adult-11-adult-9:adult-0'
p2021
I0
sS'adult-10-adult-12-adult-14-adult-8-adult-9:adult-4'
p2022
I0
sS'adult-11-adult-9:adult-4'
p2023
I0
sS'adult-11-adult-12-adult-14-adult-4-adult-9:adult-10'
p2024
I0
sS'adult-10-adult-11-adult-14-adult-9:adult-12'
p2025
I0
sS'adult-10-adult-14-adult-4-adult-9:adult-12'
p2026
I0
sS'adult-0-adult-10-adult-11-adult-12-adult-2-adult-4-adult-8:adult-9'
p2027
F37542834.64872656
sS'adult-10-adult-14-adult-4-adult-9:adult-11'
p2028
I0
sS'adult-11-adult-12-adult-14-adult-4-adult-8-adult-9:adult-10'
p2029
I0
sS'adult-10-adult-12-adult-14-adult-4-adult-9:adult-11'
p2030
I0
sS'adult-0-adult-12-adult-14-adult-8-adult-9:adult-10'
p2031
I0
sS'adult-0-adult-12-adult-14-adult-8-adult-9:adult-11'
p2032
I0
sS'adult-0-adult-11-adult-14:adult-4'
p2033
I0
sS'adult-10-adult-4:adult-12'
p2034
I0
sS'adult-0-adult-11-adult-14:adult-8'
p2035
F356907.1170324136
sS'adult-0-adult-10-adult-11-adult-14-adult-2-adult-4:adult-9'
p2036
F12622941.352020793
sS'adult-10-adult-12-adult-2-adult-8:adult-0'
p2037
I0
sS'adult-12-adult-2-adult-4-adult-8:adult-10'
p2038
I0
sS'adult-0-adult-10-adult-12-adult-4-adult-8-adult-9:adult-2'
p2039
I0
sS'adult-0-adult-10-adult-14-adult-2-adult-8:adult-11'
p2040
I0
sS'adult-0-adult-11-adult-2-adult-9:adult-4'
p2041
I0
sS'adult-11-adult-12-adult-2-adult-4-adult-9:adult-14'
p2042
F1921186.4872197094
sS'adult-0-adult-11-adult-2-adult-4-adult-8:adult-12'
p2043
I0
sS'adult-0-adult-10-adult-14-adult-2-adult-4-adult-8:adult-12'
p2044
I0
sS'adult-0-adult-10-adult-14-adult-2-adult-4-adult-8:adult-11'
p2045
I0
sS'adult-0-adult-11-adult-2-adult-4-adult-8:adult-14'
p2046
F3542214.3579154634
sS'adult-10-adult-11-adult-4-adult-8:adult-9'
p2047
F520512.4966964069
sS'adult-0-adult-10-adult-12-adult-2-adult-4-adult-8-adult-9:adult-11'
p2048
I0
sS'adult-0-adult-10-adult-12-adult-2-adult-4-adult-8-adult-9:adult-14'
p2049
F7096154.642254515
sS'adult-0-adult-10-adult-9:adult-11'
p2050
I0
sS'adult-0-adult-10-adult-9:adult-12'
p2051
I0
sS'adult-0-adult-10-adult-9:adult-14'
p2052
F253883.63895396003
sS'adult-0-adult-14-adult-4-adult-8:adult-2'
p2053
I0
sS'adult-10-adult-14-adult-9:adult-12'
p2054
I0
sS'adult-10-adult-11-adult-12-adult-14-adult-2-adult-9:adult-4'
p2055
I0
sS'adult-10-adult-14-adult-9:adult-11'
p2056
I0
sS'adult-10-adult-11-adult-12-adult-14-adult-2-adult-9:adult-0'
p2057
I0
sS'adult-10-adult-11-adult-12-adult-14-adult-2-adult-9:adult-8'
p2058
F3086242.702831763
sS'adult-0-adult-10-adult-8:adult-9'
p2059
F306035.9902040081
sS'adult-10-adult-11-adult-12:adult-8'
p2060
F627015.3825373189
sS'adult-10-adult-11-adult-12:adult-9'
p2061
F711724.1411237856
sS'adult-14-adult-2-adult-4-adult-9:adult-11'
p2062
I0
sS'adult-0-adult-10-adult-8:adult-2'
p2063
I0
sS'adult-10-adult-11-adult-12:adult-4'
p2064
I0
sS'adult-11-adult-9:adult-14'
p2065
F68539.85037077534
sS'adult-10-adult-11-adult-12:adult-2'
p2066
I0
sS'adult-11-adult-9:adult-12'
p2067
I0
sS'adult-10-adult-11-adult-12:adult-0'
p2068
I0
sS'adult-11-adult-9:adult-10'
p2069
I0
sS'adult-14:adult-10'
p2070
I0
sS'adult-0-adult-11-adult-14:adult-10'
p2071
I0
sS'adult-0-adult-11-adult-14:adult-12'
p2072
I0
sS'adult-0-adult-12-adult-14-adult-2:adult-4'
p2073
I0
sS'adult-0-adult-10-adult-11-adult-2-adult-4-adult-9:adult-14'
p2074
F10062321.62448604
sS'adult-0-adult-10-adult-11-adult-2-adult-4-adult-9:adult-12'
p2075
I0
sS'adult-0-adult-10-adult-11-adult-4-adult-9:adult-12'
p2076
I0
sS'adult-10-adult-14-adult-4:adult-2'
p2077
I0
sS'adult-0-adult-10-adult-11-adult-4-adult-9:adult-14'
p2078
F2012464.324897155
sS'adult-0-adult-12-adult-14-adult-8-adult-9:adult-4'
p2079
I0
sS'adult-0-adult-12-adult-14-adult-8-adult-9:adult-2'
p2080
I0
sS'adult-0-adult-10-adult-4:adult-9'
p2081
F657743.1118989016
sS'adult-0-adult-10-adult-4:adult-8'
p2082
F578473.0908973891
sS'adult-10-adult-11-adult-12-adult-2-adult-4:adult-0'
p2083
I0
sS'adult-0-adult-10-adult-4:adult-2'
p2084
I0
sS'adult-12-adult-14-adult-8:adult-11'
p2085
I0
sS'adult-12-adult-14-adult-8:adult-10'
p2086
I0
sS'adult-10-adult-14-adult-8-adult-9:adult-0'
p2087
I0
sS'adult-10-adult-14-adult-8-adult-9:adult-2'
p2088
I0
sS'adult-10-adult-14-adult-8-adult-9:adult-4'
p2089
I0
sS'adult-0-adult-10-adult-12:adult-14'
p2090
F749943.9952179216
sS'adult-10-adult-11-adult-14-adult-9:adult-4'
p2091
I0
sS'adult-10-adult-11-adult-14-adult-9:adult-0'
p2092
I0
sS'adult-10-adult-11-adult-14-adult-9:adult-2'
p2093
I0
sS'adult-0-adult-10-adult-12-adult-2-adult-8-adult-9:adult-14'
p2094
F3569563.4376277556
sS'adult-10-adult-12-adult-2-adult-4-adult-9:adult-11'
p2095
I0
sS'adult-10-adult-11-adult-14-adult-9:adult-8'
p2096
F211841.2171131136
sS'adult-10-adult-12-adult-2-adult-4-adult-9:adult-14'
p2097
F1425303.433074728
sS'adult-0-adult-10-adult-12-adult-2-adult-8-adult-9:adult-11'
p2098
I0
sS'adult-10-adult-11-adult-12-adult-14-adult-2:adult-0'
p2099
I0
sS'adult-0-adult-10-adult-11-adult-4-adult-8-adult-9:adult-12'
p2100
I0
sS'adult-0-adult-10-adult-11-adult-4-adult-8-adult-9:adult-14'
p2101
F2002659.9832376426
sS'adult-10-adult-11-adult-14-adult-8:adult-9'
p2102
F235683.0509979807
sS'adult-0-adult-10-adult-11-adult-12-adult-4:adult-2'
p2103
I0
sS'adult-0-adult-10-adult-11-adult-12-adult-4:adult-8'
p2104
F6735308.241659874
sS'adult-0-adult-10-adult-11-adult-12-adult-4:adult-9'
p2105
F7577167.291217594
sS'adult-0-adult-12-adult-4-adult-8:adult-11'
p2106
I0
sS'adult-0-adult-12-adult-4-adult-8:adult-10'
p2107
I0
sS'adult-12-adult-14-adult-2-adult-4-adult-8:adult-9'
p2108
F605832.8066475178
sS'adult-0-adult-12-adult-4-adult-8:adult-14'
p2109
F499066.1249210492
sS'adult-10-adult-4-adult-9:adult-12'
p2110
I0
sS'adult-0-adult-10-adult-14-adult-2:adult-8'
p2111
F1334587.0046480983
sS'adult-11-adult-12-adult-4:adult-14'
p2112
F402514.324567904
sS'adult-0-adult-10-adult-14-adult-2:adult-4'
p2113
I0
sS'adult-12-adult-14-adult-2-adult-4-adult-8:adult-0'
p2114
I0
sS'adult-11-adult-12-adult-4:adult-10'
p2115
I0
sS'adult-0-adult-11-adult-12-adult-2-adult-4:adult-8'
p2116
F11251522.695372896
sS'adult-0-adult-11-adult-12-adult-2-adult-4:adult-9'
p2117
F12655932.029416814
sS'adult-0-adult-10-adult-11-adult-8-adult-9:adult-4'
p2118
I0
sS'adult-11-adult-4-adult-8-adult-9:adult-2'
p2119
I0
sS'adult-11-adult-4-adult-8-adult-9:adult-0'
p2120
I0
sS'adult-10-adult-11-adult-12-adult-4-adult-8-adult-9:adult-2'
p2121
I0
sS'adult-12-adult-4-adult-9:adult-10'
p2122
I0
sS'adult-10-adult-11-adult-12-adult-4-adult-8-adult-9:adult-0'
p2123
I0
sS'adult-12-adult-4-adult-9:adult-14'
p2124
F96060.66589976825
sS'adult-0-adult-10-adult-12-adult-14-adult-8-adult-9:adult-2'
p2125
I0
sS'adult-0-adult-10-adult-12-adult-14-adult-8-adult-9:adult-4'
p2126
I0
sS'adult-0-adult-2-adult-8-adult-9:adult-12'
p2127
I0
sS'adult-0-adult-10-adult-2-adult-8:adult-14'
p2128
F1317513.1167749504
sS'adult-0-adult-12-adult-14-adult-2-adult-8-adult-9:adult-4'
p2129
I0
sS'adult-0-adult-10-adult-2-adult-8:adult-12'
p2130
I0
sS'adult-0-adult-2-adult-8-adult-9:adult-14'
p2131
F425437.64345049154
sS'adult-0-adult-10-adult-11-adult-8-adult-9:adult-2'
p2132
I0
sS'adult-10-adult-11-adult-14-adult-4-adult-9:adult-8'
p2133
F455346.0060580457
sS'adult-10-adult-11-adult-14-adult-4-adult-9:adult-0'
p2134
I0
sS'adult-10-adult-11-adult-14-adult-4-adult-9:adult-2'
p2135
I0
sS'adult-10-adult-12-adult-8:adult-9'
p2136
F176405.82138294514
sS'adult-10-adult-12-adult-14-adult-2-adult-4-adult-9:adult-11'
p2137
I0
sS'adult-10-adult-11-adult-12-adult-14-adult-2-adult-8-adult-9:adult-0'
p2138
I0
sS'adult-11-adult-12-adult-14-adult-9:adult-8'
p2139
F206195.97857579825
sS'adult-11-adult-12-adult-14-adult-9:adult-0'
p2140
I0
sS'adult-11-adult-12-adult-14-adult-9:adult-2'
p2141
I0
sS'adult-11-adult-12-adult-14-adult-9:adult-4'
p2142
I0
sS'adult-10-adult-11-adult-12-adult-2-adult-4-adult-8-adult-9:adult-14'
p2143
F5681112.239212836
sS'adult-10-adult-8:adult-9'
p2144
F61207.19804080168
sS'adult-11-adult-4-adult-8-adult-9:adult-12'
p2145
I0
sS'adult-11-adult-4-adult-8-adult-9:adult-10'
p2146
I0
sS'adult-11-adult-2-adult-4:adult-10'
p2147
I0
sS'adult-11-adult-4-adult-8-adult-9:adult-14'
p2148
F135060.84670793195
sS'adult-0-adult-2-adult-8-adult-9:adult-4'
p2149
I0
sS'adult-10-adult-11-adult-2-adult-4-adult-8-adult-9:adult-0'
p2150
I0
sS'adult-0-adult-10-adult-12-adult-2-adult-4-adult-9:adult-8'
p2151
F8329831.420910501
sS'adult-14-adult-9:adult-4'
p2152
I0
sS'adult-0-adult-10-adult-11-adult-12-adult-8-adult-9:adult-14'
p2153
F2856186.7762401253
sS'adult-14-adult-9:adult-2'
p2154
I0
sS'adult-14-adult-9:adult-0'
p2155
I0
sS'adult-10-adult-11-adult-8:adult-14'
p2156
F210788.64391101658
sS'adult-0-adult-10-adult-12-adult-4-adult-8:adult-14'
p2157
F1481487.3836236468
sS'adult-10-adult-11-adult-8:adult-12'
p2158
I0
sS'adult-0-adult-10-adult-12-adult-4-adult-8:adult-11'
p2159
I0
sS'adult-10-adult-2:adult-0'
p2160
I0
sS'adult-10-adult-2-adult-4-adult-9:adult-0'
p2161
I0
sS'adult-10-adult-2-adult-4-adult-9:adult-8'
p2162
F571529.7799029761
sS'adult-12-adult-14-adult-2:adult-11'
p2163
I0
sS'adult-0-adult-11-adult-8-adult-9:adult-14'
p2164
F340347.8558820142
sS'adult-0-adult-11-adult-8-adult-9:adult-12'
p2165
I0
sS'adult-12-adult-14-adult-2:adult-10'
p2166
I0
sS'adult-0-adult-11-adult-12-adult-4-adult-8-adult-9:adult-2'
p2167
I0
sS'adult-10-adult-14-adult-2-adult-9:adult-8'
p2168
F264763.91463432525
sS'adult-0-adult-12-adult-14-adult-2-adult-8-adult-9:adult-10'
p2169
I0
sS'adult-0-adult-12-adult-14-adult-2-adult-8-adult-9:adult-11'
p2170
I0
sS'adult-0-adult-11-adult-2:adult-12'
p2171
I0
sS'adult-0-adult-11-adult-2:adult-10'
p2172
I0
sS'adult-0-adult-2:adult-12'
p2173
I0
sS'adult-0-adult-2:adult-11'
p2174
I0
sS'adult-0-adult-2:adult-10'
p2175
I0
sS'adult-0-adult-2:adult-14'
p2176
F449375.9929402846
sS'adult-0-adult-11-adult-12-adult-14-adult-8-adult-9:adult-10'
p2177
I0
sS'adult-10-adult-11-adult-2-adult-4:adult-12'
p2178
I0
sS'adult-14-adult-2-adult-4-adult-9:adult-12'
p2179
I0
sS'adult-14-adult-2-adult-4-adult-9:adult-10'
p2180
I0
sS'adult-0-adult-11-adult-4-adult-9:adult-8'
p2181
F764065.8976235555
sS'adult-11-adult-12-adult-14-adult-2-adult-4-adult-8:adult-0'
p2182
I0
sS'adult-11-adult-12-adult-14-adult-2-adult-4-adult-8:adult-9'
p2183
F2423528.954784882
sS'adult-10-adult-11-adult-12-adult-14-adult-2-adult-8:adult-4'
p2184
I0
sS'adult-10-adult-11-adult-12-adult-14-adult-2-adult-8:adult-0'
p2185
I0
sS'adult-0-adult-10-adult-12-adult-14-adult-2-adult-4-adult-8:adult-11'
p2186
I0
sS'adult-10-adult-11-adult-12-adult-14-adult-2-adult-8:adult-9'
p2187
F3411948.6544807362
sS'adult-0-adult-10-adult-11-adult-14-adult-2:adult-8'
p2188
F5338312.146625387
sS'adult-0-adult-10-adult-11-adult-14-adult-2:adult-9'
p2189
F5934357.993747187
sS'adult-12-adult-14-adult-2-adult-4:adult-9'
p2190
F610149.6774505829
sS'adult-12-adult-14-adult-2-adult-4:adult-8'
p2191
F558424.9193906761
sS'adult-0-adult-10-adult-11-adult-14-adult-2-adult-4:adult-12'
p2192
I0
sS'adult-10-adult-2-adult-8:adult-14'
p2193
F263502.62335499364
sS'adult-12-adult-14-adult-2-adult-4:adult-0'
p2194
I0
sS'adult-0-adult-10-adult-11-adult-14-adult-2:adult-4'
p2195
I0
sS'adult-0-adult-11-adult-12-adult-14:adult-8'
p2196
F1038213.8018598274
sS'adult-14-adult-4:adult-12'
p2197
I0
sS'adult-12-adult-14-adult-9:adult-8'
p2198
F51537.49941422424
sS'adult-14-adult-4:adult-10'
p2199
I0
sS'adult-0-adult-10-adult-11-adult-12-adult-4-adult-8:adult-14'
p2200
F5927562.073926127
sS'adult-12-adult-14-adult-9:adult-4'
p2201
I0
sS'adult-12-adult-14-adult-9:adult-2'
p2202
I0
sS'adult-12-adult-14-adult-9:adult-0'
p2203
I0
sS'adult-10-adult-11-adult-14-adult-4-adult-9:adult-12'
p2204
I0
sS'adult-10-adult-12-adult-2-adult-4:adult-9'
p2205
F1894971.944430984
sS'adult-10-adult-12-adult-2-adult-4:adult-8'
p2206
F1683613.233443627
sS'adult-10-adult-12-adult-2-adult-4:adult-0'
p2207
I0
sS'adult-0-adult-10-adult-8-adult-9:adult-12'
p2208
I0
sS'adult-0-adult-10-adult-12-adult-14-adult-4:adult-2'
p2209
I0
sS'adult-0-adult-10-adult-8-adult-9:adult-14'
p2210
F252144.9318039923
sS'adult-11-adult-12-adult-14-adult-4-adult-8-adult-9:adult-0'
p2211
I0
sS'adult-12-adult-14-adult-2-adult-4:adult-11'
p2212
I0
sS'adult-12-adult-14-adult-2-adult-4:adult-10'
p2213
I0
sS'adult-0-adult-11-adult-12-adult-8-adult-9:adult-2'
p2214
I0
sS'adult-0-adult-11-adult-12-adult-8-adult-9:adult-4'
p2215
I0
sS'adult-0-adult-11-adult-2-adult-4-adult-9:adult-10'
p2216
I0
sS'adult-0-adult-11-adult-2-adult-4-adult-9:adult-12'
p2217
I0
sS'adult-0-adult-11-adult-2-adult-4-adult-9:adult-14'
p2218
F3394517.0824833754
sS'adult-10-adult-11-adult-9:adult-14'
p2219
F203083.33626981167
sS'adult-10-adult-11-adult-9:adult-12'
p2220
I0
sS'adult-12-adult-14-adult-2-adult-9:adult-10'
p2221
I0
sS'adult-12-adult-14-adult-2-adult-9:adult-11'
p2222
I0
sS'adult-2-adult-9:adult-0'
p2223
I0
sS'adult-10-adult-12-adult-14-adult-2-adult-4-adult-8-adult-9:adult-0'
p2224
I0
sS'adult-2-adult-9:adult-8'
p2225
F89097.93596179668
sS'adult-10-adult-12-adult-8:adult-14'
p2226
F148569.5903022064
sS'adult-0-adult-12-adult-14-adult-2-adult-9:adult-4'
p2227
I0
sS'adult-0-adult-12-adult-14-adult-2-adult-9:adult-8'
p2228
F1288437.485355575
sS'adult-0-adult-11-adult-14-adult-8:adult-9'
p2229
F393577.4435349409
sS'adult-0-adult-11-adult-14-adult-8:adult-2'
p2230
I0
sS'adult-0-adult-11-adult-14-adult-8:adult-4'
p2231
I0
sS'adult-10-adult-11-adult-2-adult-4:adult-8'
p2232
F2313910.2651679246
sS'adult-10-adult-11-adult-2-adult-4:adult-9'
p2233
F2629938.376700221
sS'adult-10-adult-11-adult-2-adult-4:adult-0'
p2234
I0
sS'adult-0-adult-11-adult-14-adult-8-adult-9:adult-10'
p2235
I0
sS'adult-10-adult-12-adult-2-adult-8:adult-14'
p2236
F742847.9515110312
sS'adult-10-adult-12-adult-2-adult-8:adult-11'
p2237
I0
sS'adult-0-adult-8:adult-2'
p2238
I0
sS'adult-0-adult-11-adult-12-adult-8-adult-9:adult-10'
p2239
I0
sS'adult-0-adult-11-adult-12-adult-8-adult-9:adult-14'
p2240
F962403.4959329304
sS'adult-0-adult-10-adult-11-adult-12-adult-14:adult-2'
p2241
I0
sS'adult-0-adult-10-adult-12-adult-9:adult-14'
p2242
F718460.8676274824
sS'adult-0-adult-10-adult-11-adult-12-adult-14:adult-4'
p2243
I0
sS'adult-10-adult-2-adult-8-adult-9:adult-0'
p2244
I0
sS'adult-0-adult-10-adult-11-adult-12-adult-14:adult-8'
p2245
F3107098.1853283714
sS'adult-0-adult-10-adult-11-adult-12-adult-14:adult-9'
p2246
F3432804.136977344
sS'adult-10:adult-2'
p2247
I0
sS'adult-10:adult-0'
p2248
I0
sS'adult-10:adult-4'
p2249
I0
sS'adult-10:adult-9'
p2250
F61832.917332727724
sS'adult-10:adult-8'
p2251
F53926.243648786214
sS'adult-11-adult-14-adult-9:adult-0'
p2252
I0
sS'adult-9:adult-4'
p2253
I0
sS'adult-0-adult-11-adult-9:adult-8'
p2254
F356374.7140602466
sS'adult-0-adult-10-adult-14-adult-4-adult-8-adult-9:adult-12'
p2255
I0
sS'adult-0-adult-11-adult-2-adult-4-adult-8-adult-9:adult-10'
p2256
I0
sS'adult-0-adult-10-adult-14-adult-4-adult-8-adult-9:adult-11'
p2257
I0
sS'adult-0-adult-11-adult-9:adult-2'
p2258
I0
sS'adult-0-adult-10-adult-11-adult-14-adult-2-adult-4:adult-8'
p2259
F11480054.38651674
sS'adult-0-adult-10-adult-12-adult-14-adult-4-adult-8:adult-2'
p2260
I0
sS'adult-10-adult-11-adult-12:adult-14'
p2261
F599878.1149960284
sS'adult-14-adult-2:adult-9'
p2262
F99154.1139243625
sS'adult-14:adult-11'
p2263
I0
sS'adult-14-adult-2:adult-8'
p2264
F89230.71355303664
sS'adult-12-adult-14-adult-2-adult-4-adult-9:adult-8'
p2265
F554108.0485876276
sS'adult-0-adult-10-adult-11-adult-12-adult-14-adult-4-adult-9:adult-8'
p2266
F6646437.310293228
sS'adult-12-adult-14-adult-2-adult-4-adult-9:adult-0'
p2267
I0
sS'adult-0-adult-10-adult-11-adult-12-adult-14-adult-4-adult-9:adult-2'
p2268
I0
sS'adult-10-adult-14-adult-2-adult-4-adult-8:adult-12'
p2269
I0
sS'adult-10-adult-14-adult-2-adult-4-adult-8:adult-11'
p2270
I0
sS'adult-0-adult-10-adult-11-adult-14-adult-9:adult-2'
p2271
I0
sS'adult-0-adult-10-adult-11-adult-14-adult-9:adult-8'
p2272
F1059206.0855655484
sS'adult-10-adult-12-adult-14-adult-9:adult-0'
p2273
I0
sS'adult-10-adult-12-adult-14-adult-9:adult-2'
p2274
I0
sS'adult-10-adult-12-adult-14-adult-9:adult-4'
p2275
I0
sS'adult-10-adult-12-adult-14-adult-9:adult-8'
p2276
F154257.63452067398
sS'adult-14-adult-2:adult-4'
p2277
I0
sS'adult-10-adult-14-adult-8:adult-9'
p2278
F58935.65973060126
sS'adult-0-adult-11-adult-12-adult-14:adult-2'
p2279
I0
sS'adult-0-adult-11-adult-12-adult-14:adult-4'
p2280
I0
sS'adult-11-adult-14-adult-4:adult-8'
p2281
F153439.98678590416
sS'adult-11-adult-14-adult-4:adult-9'
p2282
F168642.6950585726
sS'adult-0-adult-10-adult-12-adult-8-adult-9:adult-14'
p2283
F713912.6875255541
sS'adult-0-adult-11-adult-12-adult-14:adult-9'
p2284
F1146483.517003255
sS'adult-11-adult-14-adult-4:adult-2'
p2285
I0
sS'adult-0-adult-10-adult-12-adult-8-adult-9:adult-11'
p2286
I0
sS'adult-11-adult-14-adult-4:adult-0'
p2287
I0
sS'adult-10-adult-8-adult-9:adult-11'
p2288
I0
sS'adult-10-adult-8-adult-9:adult-12'
p2289
I0
sS'adult-10-adult-8-adult-9:adult-14'
p2290
F50428.98636079843
sS'adult-0-adult-10-adult-11-adult-14-adult-4-adult-8:adult-12'
p2291
I0
sS'adult-10-adult-2-adult-8-adult-9:adult-4'
p2292
I0
sS'adult-12-adult-14-adult-2-adult-4-adult-8-adult-9:adult-0'
p2293
I0
sS'adult-0-adult-11-adult-12-adult-14-adult-4-adult-8-adult-9:adult-2'
p2294
I0
sS'adult-2:adult-4'
p2295
I0
sS'adult-2:adult-0'
p2296
I0
sS'adult-2:adult-9'
p2297
F103343.82421335524
sS'adult-2:adult-8'
p2298
F90156.146588678
sS'adult-11-adult-14-adult-8-adult-9:adult-2'
p2299
I0
sS'adult-11-adult-14-adult-8-adult-9:adult-0'
p2300
I0
sS'adult-14-adult-2-adult-4-adult-8:adult-0'
p2301
I0
sS'adult-11-adult-14-adult-8-adult-9:adult-4'
p2302
I0
sS'adult-14-adult-2-adult-4-adult-8:adult-9'
p2303
F209149.27975077776
sS'adult-0-adult-14-adult-4:adult-12'
p2304
I0
s.