(dp0
S'bot2-0:bot2-2'
p1
F5743.905039939869
sS'bot2-0:bot2-1'
p2
F611.6395339182709
sS'bot2-1:bot2-0'
p3
F3406.6389733521937
sS'bot2-0-bot2-2:bot2-1'
p4
F399.54313725337124
sS'bot2-1:bot2-2'
p5
F6248.787539063333
sS':bot2-1'
p6
F626.1509435304869
sS':bot2-0'
p7
F3421.1503829644134
sS':bot2-2'
p8
F6487.4169950419655
sS'bot2-1-bot2-2:bot2-0'
p9
F2689.6600775638526
sS'bot2-0-bot2-1:bot2-2'
p10
F5531.808643274984
sS'bot2-2:bot2-1'
p11
F387.52148755185226
sS'bot2-2:bot2-0'
p12
F2677.6384278623245
s.