(dp0
S'bot4-3:bot4-4'
p1
F5805.947724320513
sS'bot4-3:bot4-2'
p2
F4478.35014095205
sS'bot4-1-bot4-3-bot4-4:bot4-2'
p3
F4663.449722730485
sS'bot4-3:bot4-0'
p4
F3307.206914220449
sS'bot4-3:bot4-1'
p5
F462.0191410959777
sS'bot4-1-bot4-4:bot4-2'
p6
F4504.9568349025485
sS'bot4-1-bot4-4:bot4-3'
p7
F2972.9210263316327
sS'bot4-1-bot4-4:bot4-0'
p8
F2689.6600775638526
sS'bot4-1-bot4-3:bot4-4'
p9
F5739.007999108542
sS':bot4-3'
p10
F3646.8323687209336
sS'bot4-1-bot4-3:bot4-2'
p11
F4503.737068938983
sS':bot4-1'
p12
F626.1509435304869
sS':bot4-0'
p13
F3421.1503829644134
sS'bot4-0-bot4-1-bot4-3:bot4-2'
p14
F4591.453111243278
sS':bot4-4'
p15
F6487.4169950419655
sS'bot4-1:bot4-4'
p16
F6248.787539063333
sS'bot4-0:bot4-4'
p17
F5743.905039939869
sS'bot4-0-bot4-1:bot4-4'
p18
F5531.808643274984
sS'bot4-0-bot4-3-bot4-4:bot4-1'
p19
F669.1666486953181
sS'bot4-0-bot4-3:bot4-4'
p20
F5125.467455013049
sS'bot4-1:bot4-3'
p21
F3482.7005662864212
sS'bot4-0-bot4-3:bot4-2'
p22
F4235.488364296212
sS'bot4-0-bot4-3-bot4-4:bot4-2'
p23
F4395.029576158995
sS'bot4-0-bot4-3:bot4-1'
p24
F511.31750515453314
sS'bot4-1-bot4-3-bot4-4:bot4-0'
p25
F2900.8138777243057
sS'bot4-2-bot4-4:bot4-0'
p26
F2407.6914949283137
sS'bot4-2-bot4-4:bot4-3'
p27
F2863.323328080861
sS'bot4-1-bot4-2-bot4-3:bot4-4'
p28
F5898.720652900041
sS'bot4-3-bot4-4:bot4-0'
p29
F2626.7266449129984
sS'bot4-3-bot4-4:bot4-1'
p30
F395.07941588400354
sS'bot4-3-bot4-4:bot4-2'
p31
F4384.406879559612
sS'bot4-1-bot4-2-bot4-3:bot4-0'
p32
F3444.2213205833104
sS'bot4-0-bot4-1-bot4-4:bot4-2'
p33
F4518.1952865825315
sS'bot4-0-bot4-2-bot4-3:bot4-1'
p34
F867.282252101606
sS'bot4-2-bot4-3-bot4-4:bot4-0'
p35
F2637.3493415123767
sS'bot4-2-bot4-3-bot4-4:bot4-1'
p36
F674.1222590548814
sS'bot4-0-bot4-2-bot4-3:bot4-4'
p37
F5285.008666875829
sS'bot4-0-bot4-1-bot4-3-bot4-4:bot4-2'
p38
F5978.025761863442
sS'bot4-0:bot4-2'
p39
F4265.953171575395
sS'bot4-1-bot4-2:bot4-4'
p40
F6219.595636223277
sS'bot4-0-bot4-1-bot4-2-bot4-3:bot4-4'
p41
F6669.889249173992
sS'bot4-0-bot4-4:bot4-3'
p42
F2914.45131505015
sS'bot4-0-bot4-4:bot4-2'
p43
F4216.499716544224
sS'bot4-0-bot4-4:bot4-1'
p44
F399.54313725337124
sS'bot4-2-bot4-4:bot4-1'
p45
F406.0316729761671
sS'bot4-1-bot4-2-bot4-4:bot4-3'
p46
F3131.4139141595742
sS'bot4-1-bot4-2-bot4-4:bot4-0'
p47
F2702.8985292438274
sS'bot4-4:bot4-0'
p48
F2677.6384278623245
sS'bot4-2:bot4-1'
p49
F594.5064941950113
sS'bot4-0-bot4-1-bot4-4:bot4-3'
p50
F3184.074826492082
sS'bot4-1:bot4-0'
p51
F3406.6389733521937
sS'bot4-1-bot4-2:bot4-0'
p52
F3172.0501607788647
sS'bot4-1:bot4-2'
p53
F4534.148737742606
sS'bot4-0-bot4-1-bot4-2:bot4-3'
p54
F3724.4600572872514
sS'bot4-0-bot4-1-bot4-2:bot4-4'
p55
F5750.444004688239
sS'bot4-1-bot4-2-bot4-3-bot4-4:bot4-0'
p56
F4215.389916857258
sS'bot4-0:bot4-3'
p57
F3532.8888999769806
sS'bot4-0-bot4-2-bot4-4:bot4-1'
p58
F701.2387072916881
sS'bot4-0:bot4-1'
p59
F611.6395339182709
sS'bot4-4:bot4-3'
p60
F2965.3630979994796
sS'bot4-4:bot4-2'
p61
F4486.446649478234
sS'bot4-4:bot4-1'
p62
F387.52148755185226
sS':bot4-2'
p63
F4565.793187078074
sS'bot4-0-bot4-2:bot4-4'
p64
F5694.451584908709
sS'bot4-1-bot4-2:bot4-3'
p65
F3452.2888974828093
sS'bot4-0-bot4-2:bot4-1'
p66
F645.2462875121528
sS'bot4-0-bot4-2-bot4-4:bot4-3'
p67
F3092.981174664923
sS'bot4-0-bot4-2:bot4-3'
p68
F3502.424092697798
sS'bot4-2:bot4-4'
p69
F6408.070457442116
sS'bot4-0-bot4-1-bot4-2-bot4-4:bot4-3'
p70
F4643.905301772999
sS'bot4-1-bot4-3:bot4-0'
p71
F3356.505278279008
sS'bot4-0-bot4-1-bot4-3:bot4-4'
p72
F5283.316598553834
sS'bot4-2-bot4-3:bot4-4'
p73
F5712.0044629280765
sS'bot4-2:bot4-0'
p74
F3121.310367461727
sS'bot4-2:bot4-3'
p75
F3559.389322594914
sS'bot4-0-bot4-2-bot4-3-bot4-4:bot4-1'
p76
F2252.162834399762
sS'bot4-2-bot4-3:bot4-0'
p77
F3064.345137564618
sS'bot4-2-bot4-3:bot4-1'
p78
F487.4060690829101
sS'bot4-0-bot4-1:bot4-2'
p79
F4299.55992516928
sS'bot4-0-bot4-1:bot4-3'
p80
F3432.5668712132356
s.