(dp0
S''
p1
(dp2
S'Religion'
p3
F349.4077135549344
sS'Landmass'
p4
F339.6508474817907
sS'Language'
p5
F395.64942440098247
sS'Name'
p6
F1214.9644828582857
sS'Zone'
p7
F236.95757452811586
ssS'Landmass,Religion'
p8
(dp9
g5
F592.6337916313278
sg6
F9749.346355669843
sg7
F235.1227493003065
ssg4
(dp10
g3
F243.96727970665427
sg7
F128.05755562717246
sg6
F1845.313635376495
sg5
F305.7908165854505
ssS'Language,Religion,Zone'
p11
(dp12
g4
F1663.0408160730067
sg6
F62087.700577975294
ssg7
(dp13
g3
F312.37670367288047
sg4
F230.75082858084733
sg6
F1560.00690833017
sg5
F334.0926873990101
ssS'Landmass,Language,Religion,Zone'
p14
(dp15
g6
F370824.6597619028
ssS'Landmass,Name,Zone'
p16
(dp17
g3
F32592.0
sg5
F41904.0
ssS'Landmass,Language,Zone'
p18
(dp19
g3
F1773.5934474751512
sg6
F46678.25320937743
ssS'Landmass,Religion,Zone'
p20
(dp21
g6
F37450.22360636952
sg5
F1857.563844467239
ssg3
(dp22
g4
F234.21041363351063
sg5
F306.54813424563343
sg6
F2223.5567693033513
sg7
F199.9265646460618
ssS'Landmass,Language'
p23
(dp24
g3
F530.8102547525316
sg6
F12015.522818791045
sg7
F257.26960941359687
ssS'Language,Name,Religion,Zone'
p25
(dp26
g4
F310400.0
ssS'Name,Religion'
p27
(dp28
g4
F7760.0
sg5
F13968.0
sg7
F4656.0
ssS'Name,Zone'
p29
(dp30
g3
F5432.0
sg4
F3880.0
sg5
F6984.0
ssg5
(dp31
g3
F260.3064233995853
sg4
F249.79223966625875
sg6
F2565.3150584573036
sg7
F175.40083752614348
ssS'Language,Religion'
p32
(dp33
g4
F520.2960710192051
sg6
F15885.008635057717
sg7
F357.3080570824147
ssS'Religion,Zone'
p34
(dp35
g4
F269.40659828775534
sg6
F6679.630204657288
sg5
F463.9296266819863
ssS'Landmass,Language,Name'
p36
(dp37
g3
F81480.0
sg7
F34920.0
ssS'Landmass,Name'
p38
(dp39
g3
F8148.0
sg7
F3492.0
sg5
F10476.0
ssg6
(dp40
g3
F1358.0
sg4
F970.0
sg5
F1746.0
sg7
F582.0
ssS'Landmass,Language,Name,Religion'
p41
(dp42
g7
F279360.0
ssS'Landmass,Name,Religion'
p43
(dp44
g5
F83808.0
sg7
F27936.0
ssS'Language,Zone'
p45
(dp46
g3
F442.2136429558565
sg4
F331.66101155371217
sg6
F8209.914220931158
ssS'Name,Religion,Zone'
p47
(dp48
g4
F31040.0
sg5
F55872.0
ssS'Landmass,Language,Name,Zone'
p49
(dp50
g3
F325920.0
ssS'Landmass,Zone'
p51
(dp52
g3
F351.0324733797883
sg6
F5209.256079749322
sg5
F435.0028703718749
ssS'Language,Name,Zone'
p53
(dp54
g3
F54320.0
sg4
F38800.0
ssS'Landmass,Language,Religion'
p55
(dp56
g6
F92964.7125640385
sg7
F1500.0528021362165
ssS'Landmass,Name,Religion,Zone'
p57
(dp58
g5
F335232.0
ssS'Language,Name,Religion'
p59
(dp60
g4
F77600.0
sg7
F46560.0
ssS'Language,Name'
p61
(dp62
g3
F13580.0
sg4
F9700.0
sg7
F5820.0
ss.