(dp0
S'Landmass-Language-Zone:Name'
p1
F20888.358648259313
sS':Zone'
p2
F236.95757452811586
sS'Landmass-Language-Religion:Name'
p3
F26572.026126899655
sS'Name-Religion:Language'
p4
F3880.0
sS'Landmass-Language-Name-Religion:Zone'
p5
F72750.0
sS'Landmass-Zone:Name'
p6
F4915.551853229946
sS'Landmass-Name:Zone'
p7
F2910.0
sS'Landmass-Name:Language'
p8
F3880.0
sS'Language-Name:Landmass'
p9
F3880.0
sS'Name-Religion:Landmass'
p10
F3880.0
sS'Religion:Landmass'
p11
I0
sS'Name-Zone:Landmass'
p12
F3104.0
sS':Landmass'
p13
I0
sS'Name-Religion-Zone:Language'
p14
F15520.0
sS'Religion:Name'
p15
F2240.986429129165
sS'Landmass:Zone'
p16
F284.0192638015176
sS'Religion-Zone:Language'
p17
I0
sS':Name'
p18
F1214.9644828582857
sS'Language-Name:Religion'
p19
F3880.0
sS':Language'
p20
I0
sS'Landmass-Zone:Language'
p21
I0
sS'Landmass-Language-Name:Zone'
p22
F14550.0
sS'Landmass:Language'
p23
I0
sS'Landmass-Language-Religion:Zone'
p24
F853.1872345177252
sS'Landmass-Name-Zone:Language'
p25
F15520.0
sS'Landmass-Name-Religion:Language'
p26
F19400.0
sS'Landmass-Language-Name-Zone:Religion'
p27
F77600.0
sS'Language-Name-Religion-Zone:Landmass'
p28
F77600.0
sS'Landmass-Language-Name:Religion'
p29
F19400.0
sS'Zone:Religion'
p30
I0
sS'Landmass-Religion:Zone'
p31
F448.5664031984776
sS'Religion-Zone:Landmass'
p32
I0
sS'Language-Name:Zone'
p33
F2910.0
sS'Name-Zone:Religion'
p34
F3104.0
sS'Language-Name-Zone:Religion'
p35
F15520.0
sS'Language-Zone:Landmass'
p36
I0
sS'Language-Name-Zone:Landmass'
p37
F15520.0
sS'Landmass-Name-Religion-Zone:Language'
p38
F77600.0
sS'Landmass-Language:Name'
p39
F6810.823818894813
sS'Language-Religion:Landmass'
p40
I0
sS'Landmass:Religion'
p41
I0
sS'Language-Religion:Zone'
p42
F478.87819504909214
sS'Religion-Zone:Name'
p43
F4818.584492123052
sS'Name:Language'
p44
F776.0
sS'Language-Religion:Name'
p45
F6600.360789456467
sS'Landmass-Religion-Zone:Name'
p46
F20622.357115648352
sS'Language:Landmass'
p47
I0
sS'Name:Landmass'
p48
F776.0
sS'Language:Religion'
p49
I0
sS'Landmass-Religion:Language'
p50
I0
sS'Landmass-Religion:Name'
p51
F6520.923518846819
sS'Landmass-Religion-Zone:Language'
p52
I0
sS'Language:Name'
p53
F2453.1210735972863
sS'Zone:Landmass'
p54
I0
sS'Landmass-Language-Religion-Zone:Name'
p55
F98468.83889238167
sS'Name:Zone'
p56
F582.0
sS'Landmass:Name'
p57
F2289.571117031463
sS'Name-Religion-Zone:Landmass'
p58
F15520.0
sS'Language-Zone:Religion'
p59
I0
sS'Religion:Language'
p60
I0
sS'Zone:Language'
p61
I0
sS'Landmass-Name-Zone:Religion'
p62
F15520.0
sS'Name:Religion'
p63
F776.0
sS'Landmass-Name-Religion:Zone'
p64
F14550.0
sS'Zone:Name'
p65
F1560.00690833017
sS':Religion'
p66
I0
sS'Landmass-Name:Religion'
p67
F3880.0
sS'Landmass-Language:Religion'
p68
I0
sS'Landmass-Zone:Religion'
p69
I0
sS'Language-Religion-Zone:Name'
p70
F20671.482594407385
sS'Language-Name-Religion:Landmass'
p71
F19400.0
sS'Religion:Zone'
p72
F332.4019370061123
sS'Name-Religion:Zone'
p73
F2910.0
sS'Landmass-Language:Zone'
p74
F472.4651706355004
sS'Language-Name-Religion:Zone'
p75
F14550.0
sS'Name-Zone:Language'
p76
F3104.0
sS'Landmass-Language-Zone:Religion'
p77
F19.519755877419264
sS'Language-Religion-Zone:Landmass'
p78
I0
sS'Language-Zone:Name'
p79
F5019.076224994105
sS'Language:Zone'
p80
F344.0448486031778
s.