(dp0
(c__builtin__
frozenset
p1
((lp2
ccopy_reg
_reconstructor
p3
(cdata
Variable
p4
c__builtin__
object
p5
Ntp6
Rp7
(dp8
S'domain'
p9
c__builtin__
set
p10
((lp11
I0
aI1
aI2
aI3
aI4
aI5
aI6
aI7
atp12
Rp13
sS'name'
p14
S'Religion'
p15
sS'var_type'
p16
c__builtin__
int
p17
sbag3
(g4
g5
Ntp18
Rp19
(dp20
g9
g10
((lp21
I1
aI2
aI3
aI4
aI5
aI6
atp22
Rp23
sg14
S'Landmass'
p24
sg16
g17
sbatp25
Rp26
g3
(g4
g5
Ntp27
Rp28
(dp29
g9
g10
((lp30
I1
aI2
aI3
aI4
atp31
Rp32
sg14
S'Zone'
p33
sg16
g17
sbtp34
F235.1227493003065
s(g1
((lp35
g28
ag7
atp36
Rp37
g19
tp38
F269.40659828775534
s(g1
((lp39
tp40
Rp41
g19
tp42
F339.6508474817907
s(g1
((lp43
g3
(g4
g5
Ntp44
Rp45
(dp46
g9
g10
((lp47
S'Canada'
p48
aS'Saudi-Arabia'
p49
aS'Ethiopia'
p50
aS'Swaziland'
p51
aS'Argentina'
p52
aS'Bolivia'
p53
aS'Cameroon'
p54
aS'Argentine'
p55
aS'North-Korea'
p56
aS'Bahrain'
p57
aS'Papua-New-Guinea'
p58
aS'Japan'
p59
aS'North-Yemen'
p60
aS'Guatemala'
p61
aS'Kuwait'
p62
aS'UAE'
p63
aS'Dominica'
p64
aS'Liberia'
p65
aS'Netherlands'
p66
aS'Jamaica'
p67
aS'Oman'
p68
aS'Tanzania'
p69
aS'Zambia'
p70
aS'French-Guiana'
p71
aS'Albania'
p72
aS'Gabon'
p73
aS'Niue'
p74
aS'Monaco'
p75
aS'Cape-Verde-Islands'
p76
aS'Sierra-Leone'
p77
aS'Andorra'
p78
aS'South-Africa'
p79
aS'Greenland'
p80
aS'El-Salvador'
p81
aS'Guam'
p82
aS'India'
p83
aS'Lesotho'
p84
aS'Kenya'
p85
aS'Turkey'
p86
aS'Afghanistan'
p87
aS'Bangladesh'
p88
aS'Mongolia'
p89
aS'France'
p90
aS'Bermuda'
p91
aS'Soloman-Islands'
p92
aS'Peru'
p93
aS'Laos'
p94
aS'Nauru'
p95
aS'Seychelles'
p96
aS'Norway'
p97
aS'Malawi'
p98
aS'Benin'
p99
aS'Sri-Lanka'
p100
aS'Cuba'
p101
aS'Togo'
p102
aS'China'
p103
aS'Equatorial-Guinea'
p104
aS'Ghana'
p105
aS'Tonga'
p106
aS'Finland'
p107
aS'Libya'
p108
aS'Indonesia'
p109
aS'Costa-Rica'
p110
aS'Mauritius'
p111
aS'UK'
p112
aS'Liechtenstein'
p113
aS'USSR'
p114
aS'San-Marino'
p115
aS'Mali'
p116
aS'French-Polynesia'
p117
aS'Bulgaria'
p118
aS'British-Virgin-Isles'
p119
aS'Angola'
p120
aS'Chad'
p121
aS'Burkina'
p122
aS'Trinidad-Tobago'
p123
aS'Cyprus'
p124
aS'Falklands-Malvinas'
p125
aS'Sweden'
p126
aS'Malaysia'
p127
aS'Austria'
p128
aS'Vietnam'
p129
aS'Mozambique'
p130
aS'St-Vincent'
p131
aS'Hungary'
p132
aS'Niger'
p133
aS'Brazil'
p134
aS'Guinea'
p135
aS'Panama'
p136
aS'Luxembourg'
p137
aS'Bahamas'
p138
aS'Gibraltar'
p139
aS'Ireland'
p140
aS'Pakistan'
p141
aS'Germany-FRG'
p142
aS'St-Helena'
p143
aS'Nigeria'
p144
aS'Ecuador'
p145
aS'Malagasy'
p146
aS'Brunei'
p147
aS'Australia'
p148
aS'Iran'
p149
aS'USA'
p150
aS'Algeria'
p151
aS'Tuvalu'
p152
aS'Zaire'
p153
aS'Chile'
p154
aS'Belgium'
p155
aS'Kiribati'
p156
aS'Haiti'
p157
aS'Belize'
p158
aS'Maldive-Islands'
p159
aS'St-Kitts-Nevis'
p160
aS'Gambia'
p161
aS'Philippines'
p162
aS'Romania'
p163
aS'Morocco'
p164
aS'Vatican-City'
p165
aS'Micronesia'
p166
aS'Guinea-Bissau'
p167
aS'Thailand'
p168
aS'Switzerland'
p169
aS'Grenada'
p170
aS'Central-African-Republic'
p171
aS'New-Zealand'
p172
aS'Iraq'
p173
aS'Portugal'
p174
aS'Uruguay'
p175
aS'Kampuchea'
p176
aS'Lebanon'
p177
aS'Puerto-Rico'
p178
aS'Tunisia'
p179
aS'Djibouti'
p180
aS'Rwanda'
p181
aS'Spain'
p182
aS'Colombia'
p183
aS'South-Yemen'
p184
aS'Burundi'
p185
aS'Western-Samoa'
p186
aS'Taiwan'
p187
aS'Fiji'
p188
aS'Barbados'
p189
aS'Somalia'
p190
aS'Turks-Cocos-Islands'
p191
aS'Qatar'
p192
aS'Dominican-Republic'
p193
aS'Italy'
p194
aS'Netherlands-Antilles'
p195
aS'Bhutan'
p196
aS'Sudan'
p197
aS'Ivory-Coast'
p198
aS'Nepal'
p199
aS'Malta'
p200
aS'Antigua-Barbuda'
p201
aS'Anguilla'
p202
aS'Venezuela'
p203
aS'Israel'
p204
aS'St-Lucia'
p205
aS'Iceland'
p206
aS'Czechoslovakia'
p207
aS'Senegal'
p208
aS'Zimbabwe'
p209
aS'Jordan'
p210
aS'Vanuatu'
p211
aS'Denmark'
p212
aS'Poland'
p213
aS'Parguay'
p214
aS'Mauritania'
p215
aS'Faeroes'
p216
aS'Uganda'
p217
aS'Montserrat'
p218
aS'South-Korea'
p219
aS'Guyana'
p220
aS'Marianas'
p221
aS'Syria'
p222
aS'Cook-Islands'
p223
aS'Comorro-Islands'
p224
aS'Burma'
p225
aS'American-Samoa'
p226
aS'Honduras'
p227
aS'Mexico'
p228
aS'Egypt'
p229
aS'Nicaragua'
p230
aS'Singapore'
p231
aS'Surinam'
p232
aS'Botswana'
p233
aS'Cayman-Islands'
p234
aS'Congo'
p235
aS'Yugoslavia'
p236
aS'Hong-Kong'
p237
aS'Greece'
p238
aS'Sao-Tome'
p239
aS'US-Virgin-Isles'
p240
aS'Germany-DDR'
p241
atp242
Rp243
sg14
S'Name'
p244
sg16
c__builtin__
str
p245
sbag19
ag3
(g4
g5
Ntp246
Rp247
(dp248
g9
g10
((lp249
I1
aI2
aI3
aI4
aI5
aI6
aI7
aI8
aI9
aI10
atp250
Rp251
sg14
S'Language'
p252
sg16
g17
sbatp253
Rp254
g7
tp255
F81480.0
s(g1
((lp256
g45
ag28
atp257
Rp258
g7
tp259
F5432.0
s(g1
((lp260
g247
atp261
Rp262
g19
tp263
F249.79223966625875
s(g1
((lp264
g7
ag19
atp265
Rp266
g247
tp267
F592.6337916313278
s(g1
((lp268
g45
ag19
atp269
Rp270
g28
tp271
F3492.0
s(g1
((lp272
g28
ag45
ag247
ag19
atp273
Rp274
g7
tp275
F325920.0
s(g41
g28
tp276
F236.95757452811586
s(g1
((lp277
g7
ag19
ag45
atp278
Rp279
g28
tp280
F27936.0
s(g1
((lp281
g45
ag28
atp282
Rp283
g247
tp284
F6984.0
s(g1
((lp285
g19
atp286
Rp287
g247
tp288
F305.7908165854505
s(g1
((lp289
g45
ag7
ag247
ag28
atp290
Rp291
g19
tp292
F310400.0
s(g1
((lp293
g45
ag19
atp294
Rp295
g247
tp296
F10476.0
s(g1
((lp297
g45
atp298
Rp299
g19
tp300
F970.0
s(g1
((lp301
g7
atp302
Rp303
g28
tp304
F199.9265646460618
s(g1
((lp305
g45
ag247
atp306
Rp307
g19
tp308
F9700.0
s(g1
((lp309
g7
ag247
atp310
Rp311
g45
tp312
F15885.008635057717
s(g1
((lp313
g28
ag7
atp314
Rp315
g247
tp316
F463.9296266819863
s(g41
g247
tp317
F395.64942440098247
s(g1
((lp318
g7
ag28
atp319
Rp320
g45
tp321
F6679.630204657288
s(g1
((lp322
g19
atp323
Rp324
g28
tp325
F128.05755562717246
s(g1
((lp326
g28
atp327
Rp328
g247
tp329
F334.0926873990101
s(g1
((lp330
g45
ag19
atp331
Rp332
g7
tp333
F8148.0
s(g1
((lp334
g28
atp335
Rp336
g45
tp337
F1560.00690833017
s(g1
((lp338
g7
ag45
atp339
Rp340
g28
tp341
F4656.0
s(g1
((lp342
g7
atp343
Rp344
g247
tp345
F306.54813424563343
s(g41
g7
tp346
F349.4077135549344
s(g1
((lp347
g45
ag247
ag28
atp348
Rp349
g7
tp350
F54320.0
s(g1
((lp351
g45
ag28
atp352
Rp353
g19
tp354
F3880.0
s(g1
((lp355
g28
ag247
atp356
Rp357
g19
tp358
F331.66101155371217
s(g1
((lp359
g7
ag19
ag28
atp360
Rp361
g45
tp362
F37450.22360636952
s(g1
((lp363
g28
ag247
atp364
Rp365
g45
tp366
F8209.914220931158
s(g1
((lp367
g7
ag19
ag45
atp368
Rp369
g247
tp370
F83808.0
s(g1
((lp371
g7
ag19
ag247
atp372
Rp373
g45
tp374
F92964.7125640385
s(g1
((lp375
g19
atp376
Rp377
g7
tp378
F243.96727970665427
s(g1
((lp379
g7
ag247
ag28
atp380
Rp381
g45
tp382
F62087.700577975294
s(g1
((lp383
g45
ag28
ag7
atp384
Rp385
g19
tp386
F31040.0
s(g1
((lp387
g45
ag19
ag28
atp388
Rp389
g247
tp390
F41904.0
s(g1
((lp391
g7
ag247
atp392
Rp393
g19
tp394
F520.2960710192051
s(g1
((lp395
g7
atp396
Rp397
g19
tp398
F234.21041363351063
s(g1
((lp399
g28
ag19
atp400
Rp401
g7
tp402
F351.0324733797883
s(g1
((lp403
g45
ag7
atp404
Rp405
g19
tp406
F7760.0
s(g1
((lp407
g45
atp408
Rp409
g28
tp410
F582.0
s(g1
((lp411
g7
ag247
ag28
atp412
Rp413
g19
tp414
F1663.0408160730067
s(g1
((lp415
g19
ag247
atp416
Rp417
g28
tp418
F257.26960941359687
s(g1
((lp419
g28
atp420
Rp421
g19
tp422
F230.75082858084733
s(g1
((lp423
g28
ag19
atp424
Rp425
g45
tp426
F5209.256079749322
s(g1
((lp427
g7
atp428
Rp429
g45
tp430
F2223.5567693033513
s(g1
((lp431
g28
ag247
ag19
atp432
Rp433
g45
tp434
F46678.25320937743
s(g1
((lp435
g45
atp436
Rp437
g247
tp438
F1746.0
s(g1
((lp439
g28
ag247
atp440
Rp441
g7
tp442
F442.2136429558565
s(g1
((lp443
g247
atp444
Rp445
g28
tp446
F175.40083752614348
s(g1
((lp447
g28
ag19
ag247
atp448
Rp449
g7
tp450
F1773.5934474751512
s(g1
((lp451
g45
ag7
ag19
ag28
atp452
Rp453
g247
tp454
F335232.0
s(g1
((lp455
g7
ag247
ag45
atp456
Rp457
g19
tp458
F77600.0
s(g1
((lp459
g45
ag247
atp460
Rp461
g7
tp462
F13580.0
s(g1
((lp463
g45
atp464
Rp465
g7
tp466
F1358.0
s(g1
((lp467
g7
ag45
ag19
ag247
atp468
Rp469
g28
tp470
F279360.0
s(g1
((lp471
g247
atp472
Rp473
g7
tp474
F260.3064233995853
s(g1
((lp475
g19
ag247
atp476
Rp477
g7
tp478
F530.8102547525316
s(g1
((lp479
g247
atp480
Rp481
g45
tp482
F2565.3150584573036
s(g41
g45
tp483
F1214.9644828582857
s(g1
((lp484
g45
ag19
ag28
atp485
Rp486
g7
tp487
F32592.0
s(g1
((lp488
g7
ag19
atp489
Rp490
g45
tp491
F9749.346355669843
s(g1
((lp492
g45
ag247
ag28
atp493
Rp494
g19
tp495
F38800.0
s(g1
((lp496
g7
ag19
ag247
atp497
Rp498
g28
tp499
F1500.0528021362165
s(g1
((lp500
g45
ag28
ag7
atp501
Rp502
g247
tp503
F55872.0
s(g1
((lp504
g28
atp505
Rp506
g7
tp507
F312.37670367288047
s(g1
((lp508
g45
ag247
ag19
atp509
Rp510
g28
tp511
F34920.0
s(g1
((lp512
g19
atp513
Rp514
g45
tp515
F1845.313635376495
s(g1
((lp516
g45
ag247
atp517
Rp518
g28
tp519
F5820.0
s(g1
((lp520
g28
ag19
atp521
Rp522
g247
tp523
F435.0028703718749
s(g1
((lp524
g7
ag19
ag28
atp525
Rp526
g247
tp527
F1857.563844467239
s(g1
((lp528
g19
ag247
atp529
Rp530
g45
tp531
F12015.522818791045
s(g1
((lp532
g7
ag28
ag19
ag247
atp533
Rp534
g45
tp535
F370824.6597619028
s(g1
((lp536
g7
ag247
atp537
Rp538
g28
tp539
F357.3080570824147
s(g1
((lp540
g7
ag247
ag45
atp541
Rp542
g28
tp543
F46560.0
s(g1
((lp544
g45
ag7
atp545
Rp546
g247
tp547
F13968.0
s.