(dp0
S'water-10:water-12'
p1
I0
sS'water-10:water-16'
p2
F364.42796225476013
sS':water-22'
p3
I0
sS'water-12-water-15-water-22:water-9'
p4
I0
sS'water-9:water-16'
p5
F2919.761178400466
sS'water-12-water-15-water-22:water-3'
p6
F60971.266640066926
sS'water-12:water-10'
p7
F3312.4701329508644
sS'water-12:water-16'
p8
F2919.761178400466
sS'water-12:water-15'
p9
I0
sS'water-10-water-12-water-15-water-16-water-9:water-3'
p10
F40306.41992565938
sS'water-12-water-15-water-16:water-3'
p11
F8568.92264407948
sS'water-10-water-15-water-9:water-3'
p12
F6645.6126095741565
sS'water-9:water-15'
p13
I0
sS'water-10-water-12-water-16-water-9:water-22'
p14
I0
sS'water-12-water-15-water-16:water-9'
p15
I0
sS'water-10-water-12-water-3:water-22'
p16
I0
sS'water-10-water-16-water-9:water-15'
p17
I0
sS'water-10-water-16-water-9:water-12'
p18
I0
sS'water-10-water-12-water-15-water-3:water-16'
p19
F10526.370431926774
sS'water-10-water-15-water-16-water-3:water-9'
p20
I0
sS'water-15-water-16-water-22-water-9:water-12'
p21
I0
sS'water-15-water-16-water-22-water-9:water-10'
p22
F55371.219145604504
sS'water-10-water-12-water-22-water-3:water-16'
p23
F10526.370431926704
sS'water-16-water-3:water-22'
p24
I0
sS'water-10-water-12-water-22-water-3:water-15'
p25
I0
sS'water-15-water-9:water-22'
p26
I0
sS'water-10-water-9:water-12'
p27
I0
sS'water-10-water-9:water-15'
p28
I0
sS'water-10-water-9:water-16'
p29
F1822.1398112738066
sS'water-3:water-10'
p30
F440.54839785260606
sS'water-10-water-15-water-22-water-9:water-3'
p31
F33228.06304787036
sS'water-16-water-3-water-9:water-22'
p32
I0
sS'water-10-water-12-water-15-water-22:water-9'
p33
I0
sS'water-10-water-12-water-15-water-22:water-3'
p34
F33228.063047870346
sS'water-12-water-22-water-3-water-9:water-10'
p35
F55068.54973157555
sS'water-12-water-15:water-16'
p36
F14598.805892002418
sS'water-12-water-22-water-3-water-9:water-15'
p37
I0
sS'water-12-water-15:water-10'
p38
F16562.350664754333
sS'water-12-water-22-water-3-water-9:water-16'
p39
F54867.37604034286
sS'water-12-water-16-water-22-water-3:water-15'
p40
I0
sS'water-10-water-12-water-15-water-3-water-9:water-22'
p41
I0
sS'water-12-water-16-water-22-water-3:water-10'
p42
F10566.605170173327
sS'water-10-water-16-water-3-water-9:water-15'
p43
I0
sS'water-10-water-16-water-3-water-9:water-12'
p44
I0
sS'water-12-water-15-water-16-water-3:water-9'
p45
I0
sS'water-10-water-12-water-15-water-22-water-3-water-9:water-16'
p46
F263159.2607981803
sS'water-12-water-15-water-16-water-3-water-9:water-10'
p47
F52833.02585086643
sS'water-10-water-15-water-16-water-22:water-9'
p48
I0
sS'water-10-water-15-water-16-water-3:water-22'
p49
I0
sS'water-10-water-15-water-16-water-3-water-9:water-12'
p50
I0
sS'water-12-water-22:water-16'
p51
F14598.805892002343
sS'water-12-water-22:water-15'
p52
I0
sS'water-10-water-12-water-15-water-16:water-22'
p53
I0
sS'water-12-water-15-water-16:water-10'
p54
F11074.243829120964
sS'water-12-water-22:water-10'
p55
F16562.350664754333
sS'water-15-water-16-water-3:water-10'
p56
F2113.321034034667
sS'water-15-water-16-water-3:water-12'
p57
I0
sS'water-15-water-16:water-22'
p58
I0
sS'water-12-water-15-water-16-water-22-water-3-water-9:water-10'
p59
F264165.1292543286
sS'water-16-water-22-water-3:water-15'
p60
I0
sS'water-16-water-22-water-3:water-10'
p61
F2113.3210340346664
sS'water-16-water-22-water-3:water-12'
p62
I0
sS'water-10-water-15-water-22-water-3:water-9'
p63
I0
sS'water-10-water-16-water-22-water-3:water-15'
p64
I0
sS'water-10-water-16-water-22-water-3:water-12'
p65
I0
sS'water-10-water-15-water-3:water-22'
p66
I0
sS'water-10-water-16-water-22-water-3-water-9:water-15'
p67
I0
sS'water-10-water-16-water-22-water-3-water-9:water-12'
p68
I0
sS'water-10-water-15-water-22-water-9:water-16'
p69
F45553.49528184485
sS'water-10-water-15-water-22-water-9:water-12'
p70
I0
sS'water-10-water-12-water-16:water-22'
p71
I0
sS'water-10-water-16-water-22-water-9:water-3'
p72
F8061.283985131841
sS'water-16-water-22-water-3-water-9:water-15'
p73
I0
sS'water-16-water-22-water-3-water-9:water-10'
p74
F10566.605170173316
sS'water-16-water-22-water-3-water-9:water-12'
p75
I0
sS'water-10-water-16-water-22-water-9:water-12'
p76
I0
sS'water-10-water-16-water-22-water-9:water-15'
p77
I0
sS'water-10-water-12-water-15-water-22-water-9:water-3'
p78
F166140.31523935462
sS'water-10-water-3:water-22'
p79
I0
sS'water-12-water-16:water-22'
p80
I0
sS'water-10-water-12-water-16-water-9:water-15'
p81
I0
sS'water-10-water-16-water-22:water-15'
p82
I0
sS'water-10-water-15-water-22:water-9'
p83
I0
sS'water-16-water-9:water-15'
p84
I0
sS'water-16-water-3:water-10'
p85
F422.664206806933
sS'water-10-water-15-water-22:water-3'
p86
F6645.612609574163
sS'water-16-water-9:water-12'
p87
I0
sS'water-16-water-9:water-10'
p88
F2214.8487658241934
sS'water-15-water-16-water-22:water-9'
p89
I0
sS'water-15-water-16-water-3-water-9:water-22'
p90
I0
sS'water-16-water-3-water-9:water-15'
p91
I0
sS'water-16-water-3-water-9:water-10'
p92
F2113.321034034669
sS'water-10-water-16-water-22:water-12'
p93
I0
sS'water-16-water-3-water-9:water-12'
p94
I0
sS'water-10-water-12-water-15-water-16-water-3-water-9:water-22'
p95
I0
sS'water-10-water-12-water-15:water-9'
p96
I0
sS'water-10-water-15-water-16-water-9:water-3'
p97
F8061.2839851318195
sS'water-10-water-12-water-3-water-9:water-22'
p98
I0
sS'water-10-water-16-water-3:water-15'
p99
I0
sS'water-10-water-12-water-16-water-3-water-9:water-22'
p100
I0
sS'water-10-water-12-water-15:water-3'
p101
F6645.612609574163
sS'water-10-water-16-water-3:water-12'
p102
I0
sS'water-12-water-15:water-9'
p103
I0
sS'water-12-water-16-water-22-water-9:water-10'
p104
F55371.219145604504
sS'water-10-water-9:water-3'
p105
F1329.1225219148323
sS'water-12-water-15:water-3'
p106
F12194.253328013308
sS'water-12-water-16-water-22-water-9:water-15'
p107
I0
sS'water-10-water-15-water-3:water-16'
p108
F2105.2740863853373
sS'water-22-water-3:water-12'
p109
I0
sS'water-22-water-3:water-10'
p110
F2202.7419892630296
sS'water-15-water-3:water-9'
p111
I0
sS'water-22-water-3:water-16'
p112
F2194.695041613706
sS'water-22-water-3:water-15'
p113
I0
sS'water-15-water-16-water-22:water-3'
p114
F8568.922644079492
sS'water-12-water-3-water-9:water-22'
p115
I0
sS'water-15-water-16:water-3'
p116
F1713.7845288159017
sS'water-10-water-12-water-16:water-3'
p117
F1612.2567970263765
sS'water-15-water-16:water-9'
p118
I0
sS'water-16-water-22:water-12'
p119
I0
sS'water-16-water-22:water-10'
p120
F2214.8487658241916
sS'water-16-water-22:water-15'
p121
I0
sS'water-10-water-15-water-9:water-12'
p122
I0
sS'water-3:water-22'
p123
I0
sS'water-10-water-15-water-9:water-16'
p124
F9110.699056368963
sS'water-10-water-15-water-16-water-3-water-9:water-22'
p125
I0
sS'water-15:water-9'
p126
I0
sS'water-10-water-12-water-15-water-22-water-3:water-9'
p127
I0
sS'water-12-water-16-water-9:water-10'
p128
F11074.24382912096
sS'water-15:water-3'
p129
F2438.8506656026657
sS'water-10-water-12-water-16:water-9'
p130
I0
sS'water-12-water-15-water-16:water-22'
p131
I0
sS'water-10-water-12:water-9'
p132
I0
sS'water-10-water-12-water-16:water-15'
p133
I0
sS'water-16-water-3:water-9'
p134
I0
sS'water-12-water-3-water-9:water-16'
p135
F10973.47520806859
sS'water-12-water-15-water-3:water-16'
p136
F10973.47520806859
sS'water-15-water-22-water-3:water-16'
p137
F10973.475208068521
sS'water-15-water-22-water-3:water-12'
p138
I0
sS'water-15-water-22-water-3:water-10'
p139
F11013.709946315159
sS'water-10-water-12-water-16-water-22:water-9'
p140
I0
sS'water-10-water-12:water-3'
p141
F1329.1225219148319
sS'water-15-water-22-water-9:water-3'
p142
F60971.266640066926
sS'water-10-water-15-water-16-water-22:water-12'
p143
I0
sS'water-22-water-3:water-9'
p144
I0
sS'water-10-water-12-water-15-water-3:water-22'
p145
I0
sS'water-22:water-3'
p146
F2438.8506656026657
sS'water-15-water-3:water-10'
p147
F2202.7419892630296
sS'water-15-water-3:water-12'
p148
I0
sS'water-15-water-3:water-16'
p149
F2194.6950416136997
sS'water-22:water-9'
p150
I0
sS'water-10-water-22-water-3:water-9'
p151
I0
sS'water-10-water-12-water-3:water-15'
p152
I0
sS'water-10-water-12-water-3:water-16'
p153
F2105.2740863853373
sS'water-10-water-12-water-15-water-16-water-22-water-3:water-9'
p154
I0
sS'water-10:water-9'
p155
I0
sS'water-10-water-12-water-9:water-3'
p156
F6645.6126095741565
sS'water-10:water-3'
p157
F265.82450438296615
sS'water-12-water-15-water-22:water-16'
p158
F72994.02946001188
sS'water-10-water-15-water-16:water-22'
p159
I0
sS'water-12-water-15-water-22:water-10'
p160
F82811.75332377084
sS'water-10-water-12-water-15-water-16-water-9:water-22'
p161
I0
sS'water-10-water-16:water-22'
p162
I0
sS'water-10-water-3-water-9:water-12'
p163
I0
sS'water-12-water-15:water-22'
p164
I0
sS'water-12-water-16-water-3:water-22'
p165
I0
sS'water-10-water-3-water-9:water-15'
p166
I0
sS'water-12-water-22-water-3:water-9'
p167
I0
sS'water-10-water-3-water-9:water-16'
p168
F2105.274086385338
sS'water-10-water-12-water-22:water-3'
p169
F6645.612609574163
sS'water-16-water-9:water-3'
p170
F1713.7845288159017
sS'water-12-water-3-water-9:water-10'
p171
F11013.709946315163
sS'water-9:water-3'
p172
F2438.8506656026657
sS'water-12-water-3-water-9:water-15'
p173
I0
sS'water-10-water-12-water-22:water-9'
p174
I0
sS'water-12-water-15-water-16-water-3-water-9:water-22'
p175
I0
sS'water-10-water-15-water-16-water-9:water-12'
p176
I0
sS'water-12-water-16-water-3:water-9'
p177
I0
sS'water-10-water-15-water-9:water-22'
p178
I0
sS'water-10-water-12-water-15-water-3-water-9:water-16'
p179
F52631.85215963874
sS'water-15-water-16-water-3:water-22'
p180
I0
sS'water-12-water-15-water-3-water-9:water-10'
p181
F55068.54973157555
sS'water-15-water-16-water-9:water-12'
p182
I0
sS'water-15-water-16-water-9:water-10'
p183
F11074.24382912096
sS'water-16:water-22'
p184
I0
sS'water-3:water-12'
p185
I0
sS'water-12-water-15-water-16-water-22-water-3:water-9'
p186
I0
sS'water-3:water-16'
p187
F438.9390083227411
sS'water-10-water-12-water-15-water-16-water-22-water-9:water-3'
p188
F201532.0996283034
sS'water-12-water-15-water-3-water-9:water-16'
p189
F54867.37604034161
sS'water-10-water-12-water-16-water-3:water-9'
p190
I0
sS'water-10-water-15-water-16-water-22-water-9:water-3'
p191
F40306.41992565949
sS':water-12'
p192
I0
sS'water-10-water-12-water-15-water-3:water-9'
p193
I0
sS'water-12-water-15-water-3:water-22'
p194
I0
sS'water-12-water-15-water-16-water-22:water-9'
p195
I0
sS'water-12-water-15-water-16-water-22:water-3'
p196
F42844.613220397565
sS'water-16:water-9'
p197
I0
sS'water-12-water-9:water-15'
p198
I0
sS'water-16:water-3'
p199
F342.75690576318027
sS'water-10-water-3:water-12'
p200
I0
sS'water-10-water-3:water-16'
p201
F421.0548172770688
sS'water-10-water-3:water-15'
p202
I0
sS'water-15-water-3:water-22'
p203
I0
sS'water-10-water-12-water-22-water-3-water-9:water-16'
p204
F52631.85215963367
sS'water-10-water-12-water-22-water-3-water-9:water-15'
p205
I0
sS'water-12-water-16:water-15'
p206
I0
sS'water-12-water-16:water-10'
p207
F2214.8487658241943
sS'water-3:water-15'
p208
I0
sS'water-12-water-15-water-22-water-9:water-3'
p209
F304856.3332003375
sS'water-10-water-16-water-3:water-9'
p210
I0
sS'water-12-water-15-water-16-water-22-water-3:water-10'
p211
F52833.02585086692
sS'water-15-water-3-water-9:water-10'
p212
F11013.709946315163
sS'water-10-water-12-water-22-water-9:water-15'
p213
I0
sS'water-12-water-22-water-9:water-15'
p214
I0
sS'water-12-water-22-water-9:water-10'
p215
F82811.7533237711
sS'water-10-water-15:water-12'
p216
I0
sS'water-10-water-12-water-16-water-3-water-9:water-15'
p217
I0
sS'water-10-water-15:water-16'
p218
F1822.1398112737998
sS'water-22-water-3-water-9:water-12'
p219
I0
sS'water-10-water-15-water-22:water-16'
p220
F9110.699056368994
sS'water-22-water-3-water-9:water-10'
p221
F11013.709946315163
sS'water-22-water-3-water-9:water-16'
p222
F10973.475208068521
sS'water-10-water-15-water-22:water-12'
p223
I0
sS'water-22-water-3-water-9:water-15'
p224
I0
sS'water-10-water-16:water-15'
p225
I0
sS'water-10-water-16:water-12'
p226
I0
sS'water-10-water-12-water-15-water-16-water-3:water-22'
p227
I0
sS'water-10-water-12:water-22'
p228
I0
sS'water-12-water-16-water-3:water-15'
p229
I0
sS'water-12-water-16-water-3:water-10'
p230
F2113.321034034667
sS'water-10-water-3-water-9:water-22'
p231
I0
sS'water-10-water-12-water-3-water-9:water-15'
p232
I0
sS'water-10-water-12-water-3-water-9:water-16'
p233
F10526.370431926753
sS'water-12-water-15-water-3-water-9:water-22'
p234
I0
sS'water-12-water-15-water-22-water-9:water-16'
p235
F364970.14730005607
sS'water-12-water-15-water-22-water-9:water-10'
p236
F414058.7666188602
sS'water-10-water-16-water-9:water-3'
p237
F1612.2567970263765
sS'water-10-water-12-water-15-water-16:water-3'
p238
F8061.283985131821
sS'water-12-water-15-water-22-water-3-water-9:water-16'
p239
F274336.88020171557
sS'water-10-water-12-water-15-water-16:water-9'
p240
I0
sS'water-12-water-15-water-22-water-3-water-9:water-10'
p241
F275342.7486578713
sS'water-9:water-22'
p242
I0
sS'water-15-water-16-water-9:water-22'
p243
I0
sS'water-3:water-9'
p244
I0
sS'water-10-water-12-water-15-water-16-water-3:water-9'
p245
I0
sS'water-10-water-22-water-3:water-12'
p246
I0
sS'water-10-water-22-water-3:water-16'
p247
F2105.274086385341
sS'water-10-water-22-water-3:water-15'
p248
I0
sS'water-10-water-12-water-15-water-16-water-22:water-3'
p249
F40306.41992565927
sS'water-15:water-22'
p250
I0
sS'water-12-water-15-water-16-water-22-water-9:water-3'
p251
F214223.066102005
sS'water-10-water-12-water-15-water-16-water-22:water-9'
p252
I0
sS'water-10-water-12-water-16-water-22-water-9:water-3'
p253
F40306.41992565949
sS'water-15-water-3-water-9:water-12'
p254
I0
sS'water-15-water-3-water-9:water-16'
p255
F10973.47520806859
sS'water-10-water-12-water-22:water-15'
p256
I0
sS'water-10-water-12-water-22:water-16'
p257
F9110.699056368994
sS'water-16-water-22-water-9:water-3'
p258
F8568.922644079492
sS'water-22-water-9:water-15'
p259
I0
sS'water-22-water-9:water-16'
p260
F14598.805892002343
sS'water-22-water-9:water-10'
p261
F16562.35066475432
sS'water-10-water-12-water-15-water-22-water-9:water-16'
p262
F227767.4764092397
sS'water-12-water-3:water-22'
p263
I0
sS'water-12-water-15-water-9:water-16'
p264
F72994.02946000794
sS'water-22-water-9:water-12'
p265
I0
sS'water-12-water-16-water-9:water-15'
p266
I0
sS'water-12-water-15-water-16-water-3:water-10'
p267
F10566.605170173345
sS'water-12-water-15-water-9:water-10'
p268
F82811.7533237711
sS'water-12-water-9:water-22'
p269
I0
sS'water-12-water-15-water-9:water-3'
p270
F60971.266640066926
sS'water-10-water-15-water-22-water-3:water-16'
p271
F10526.370431926704
sS'water-10-water-15-water-22-water-3:water-12'
p272
I0
sS'water-10-water-12-water-16-water-3:water-22'
p273
I0
sS'water-10-water-12-water-15-water-9:water-3'
p274
F33228.06304787036
sS'water-15-water-16-water-22-water-3:water-9'
p275
I0
sS'water-10-water-15:water-9'
p276
I0
sS'water-12-water-16:water-9'
p277
I0
sS'water-10-water-15:water-3'
p278
F1329.1225219148319
sS'water-12-water-16:water-3'
p279
F1713.7845288159017
sS'water-10-water-3:water-9'
p280
I0
sS'water-10-water-15-water-16-water-9:water-22'
p281
I0
sS'water-12-water-9:water-3'
p282
F12194.253328013308
sS'water-10-water-15-water-16:water-12'
p283
I0
sS'water-10-water-15-water-16-water-22-water-9:water-12'
p284
I0
sS'water-10:water-22'
p285
I0
sS'water-10-water-15-water-16-water-22:water-3'
p286
F8061.283985131838
sS'water-16-water-22-water-9:water-12'
p287
I0
sS'water-16-water-22-water-9:water-10'
p288
F11074.243829120964
sS'water-10-water-12:water-16'
p289
F1822.1398112737998
sS'water-16-water-22-water-9:water-15'
p290
I0
sS'water-10-water-12:water-15'
p291
I0
sS'water-12-water-16-water-22-water-9:water-3'
p292
F42844.613220397565
sS'water-16:water-15'
p293
I0
sS'water-16:water-12'
p294
I0
sS'water-16:water-10'
p295
F442.9697531648381
sS'water-10-water-12-water-3:water-9'
p296
I0
sS'water-12-water-22-water-3:water-10'
p297
F11013.709946315159
sS'water-10-water-12-water-16-water-9:water-3'
p298
F8061.2839851318195
sS'water-22-water-9:water-3'
p299
F12194.253328013308
sS'water-12-water-22-water-3:water-16'
p300
F10973.475208068521
sS'water-12-water-16-water-3-water-9:water-22'
p301
I0
sS'water-10-water-16:water-3'
p302
F322.451359405275
sS'water-10-water-15-water-3-water-9:water-16'
p303
F10526.370431926753
sS'water-10-water-16:water-9'
p304
I0
sS'water-10-water-15-water-3-water-9:water-12'
p305
I0
sS'water-10-water-12-water-22-water-3:water-9'
p306
I0
sS'water-10-water-12-water-16-water-22-water-3:water-9'
p307
I0
sS'water-16-water-22:water-3'
p308
F1713.7845288159017
sS'water-10-water-12-water-15-water-9:water-16'
p309
F45553.49528184424
sS'water-16-water-22:water-9'
p310
I0
sS'water-10-water-12-water-22-water-9:water-3'
p311
F33228.06304787036
sS'water-15-water-3-water-9:water-22'
p312
I0
sS'water-10-water-16-water-22-water-3:water-9'
p313
I0
sS':water-16'
p314
F583.9522356800941
sS':water-15'
p315
I0
sS'water-15-water-16-water-9:water-3'
p316
F8568.92264407948
sS':water-10'
p317
F662.4940265901723
sS'water-12:water-22'
p318
I0
sS'water-12-water-3:water-9'
p319
I0
sS'water-10-water-22-water-3-water-9:water-12'
p320
I0
sS'water-10-water-22-water-3-water-9:water-16'
p321
F10526.370431926687
sS'water-10-water-22-water-3-water-9:water-15'
p322
I0
sS'water-10-water-12-water-16-water-22-water-9:water-15'
p323
I0
sS'water-10-water-15-water-16-water-22-water-3-water-9:water-12'
p324
I0
sS'water-10-water-15-water-22-water-3-water-9:water-16'
p325
F52631.85215963367
sS'water-10-water-15-water-22-water-3-water-9:water-12'
p326
I0
sS'water-12-water-3:water-10'
p327
F2202.7419892630296
sS'water-15-water-9:water-3'
p328
F12194.253328013308
sS'water-12-water-3:water-15'
p329
I0
sS'water-12-water-15-water-16-water-9:water-10'
p330
F55371.21914560454
sS'water-12-water-3:water-16'
p331
F2194.6950416136997
sS'water-12-water-15-water-3:water-10'
p332
F11013.709946315159
sS'water-10-water-15-water-16:water-3'
p333
F1612.2567970263765
sS'water-12-water-22-water-9:water-3'
p334
F60971.266640066926
sS'water-10-water-15-water-16:water-9'
p335
I0
sS'water-12-water-15-water-16-water-9:water-3'
p336
F42844.613220397696
sS'water-10-water-12-water-16-water-22-water-3-water-9:water-15'
p337
I0
sS'water-3-water-9:water-22'
p338
I0
sS'water-15-water-22-water-9:water-16'
p339
F72994.02946001188
sS'water-15-water-22-water-9:water-10'
p340
F82811.7533237711
sS'water-15-water-22-water-9:water-12'
p341
I0
sS'water-15-water-9:water-16'
p342
F14598.805892002418
sS'water-15-water-22:water-9'
p343
I0
sS'water-15-water-9:water-12'
p344
I0
sS'water-15-water-9:water-10'
p345
F16562.35066475432
sS'water-15-water-22:water-3'
p346
F12194.253328013308
sS'water-12-water-16-water-22:water-10'
p347
F11074.243829120962
sS'water-10-water-16-water-3-water-9:water-22'
p348
I0
sS'water-12-water-16-water-22:water-15'
p349
I0
sS'water-15-water-16-water-22:water-12'
p350
I0
sS'water-15-water-16-water-22:water-10'
p351
F11074.243829120962
sS'water-10-water-12-water-9:water-22'
p352
I0
sS'water-10-water-12-water-15:water-16'
p353
F9110.699056368974
sS'water-10-water-12-water-16-water-22:water-3'
p354
F8061.283985131838
sS'water-16-water-22-water-3:water-9'
p355
I0
sS'water-10-water-22-water-9:water-15'
p356
I0
sS'water-12-water-15-water-3:water-9'
p357
I0
sS'water-10-water-22-water-9:water-16'
p358
F9110.699056369005
sS'water-10:water-15'
p359
I0
sS'water-10-water-22-water-9:water-12'
p360
I0
sS'water-9:water-12'
p361
I0
sS'water-15-water-16-water-22-water-3:water-10'
p362
F10566.605170173327
sS'water-9:water-10'
p363
F3312.4701329508684
sS'water-15-water-16-water-22-water-3:water-12'
p364
I0
sS'water-10-water-12-water-15-water-22-water-3:water-16'
p365
F52631.85215963379
sS'water-12-water-16-water-9:water-3'
p366
F8568.92264407948
sS'water-15-water-22-water-3-water-9:water-16'
p367
F54867.37604034286
sS'water-15-water-22-water-3-water-9:water-12'
p368
I0
sS'water-15-water-22-water-3-water-9:water-10'
p369
F55068.54973157555
sS'water-15-water-16-water-3:water-9'
p370
I0
sS'water-12:water-9'
p371
I0
sS'water-10-water-15-water-3:water-9'
p372
I0
sS'water-12:water-3'
p373
F2438.8506656026657
sS':water-3'
p374
F487.7701331205326
sS':water-9'
p375
I0
sS'water-15-water-16-water-22-water-9:water-3'
p376
F42844.613220397565
sS'water-12-water-16-water-3-water-9:water-15'
p377
I0
sS'water-12-water-16-water-3-water-9:water-10'
p378
F10566.605170173316
sS'water-10-water-15-water-3:water-12'
p379
I0
sS'water-10-water-12-water-15-water-22:water-16'
p380
F45553.49528184488
sS'water-12-water-16-water-22-water-3:water-9'
p381
I0
sS'water-12-water-15-water-16-water-22:water-10'
p382
F55371.21914560447
sS'water-10-water-12-water-15-water-9:water-22'
p383
I0
sS'water-12-water-15-water-9:water-22'
p384
I0
sS'water-10-water-16-water-9:water-22'
p385
I0
sS'water-12-water-15-water-16-water-9:water-22'
p386
I0
sS'water-10-water-15-water-16-water-22-water-3:water-12'
p387
I0
sS'water-12-water-15-water-16-water-3:water-22'
p388
I0
sS'water-10-water-9:water-22'
p389
I0
sS'water-12-water-9:water-10'
p390
F16562.35066475432
sS'water-12-water-9:water-16'
p391
F14598.805892002418
sS'water-10-water-22:water-3'
p392
F1329.1225219148319
sS'water-12-water-16-water-22-water-3-water-9:water-15'
p393
I0
sS'water-10-water-15:water-22'
p394
I0
sS'water-10-water-22:water-9'
p395
I0
sS'water-10-water-12-water-16-water-22:water-15'
p396
I0
sS'water-16-water-9:water-22'
p397
I0
sS'water-10-water-15-water-16-water-22-water-3:water-9'
p398
I0
sS'water-15-water-16-water-3-water-9:water-10'
p399
F10566.605170173316
sS'water-15-water-16-water-3-water-9:water-12'
p400
I0
sS'water-10-water-12-water-16-water-3:water-15'
p401
I0
sS'water-22:water-15'
p402
I0
sS'water-22:water-16'
p403
F2919.7611784004685
sS'water-22:water-10'
p404
F3312.4701329508644
sS'water-22:water-12'
p405
I0
sS'water-10-water-22:water-15'
p406
I0
sS'water-10-water-22:water-16'
p407
F1822.139811273798
sS'water-10-water-22:water-12'
p408
I0
sS'water-12-water-16-water-9:water-22'
p409
I0
sS'water-12-water-15-water-22-water-3:water-9'
p410
I0
sS'water-15-water-22:water-16'
p411
F14598.805892002343
sS'water-10-water-16-water-3:water-22'
p412
I0
sS'water-15-water-22:water-10'
p413
F16562.350664754333
sS'water-15-water-22:water-12'
p414
I0
sS'water-10-water-15-water-16-water-3:water-12'
p415
I0
sS'water-15-water-16:water-12'
p416
I0
sS'water-15-water-16:water-10'
p417
F2214.8487658241943
sS'water-3-water-9:water-10'
p418
F2202.7419892630323
sS'water-10-water-12-water-15:water-22'
p419
I0
sS'water-3-water-9:water-12'
p420
I0
sS'water-10-water-12-water-9:water-16'
p421
F9110.699056368963
sS'water-3-water-9:water-15'
p422
I0
sS'water-3-water-9:water-16'
p423
F2194.6950416136997
sS'water-10-water-12-water-9:water-15'
p424
I0
sS'water-12-water-22:water-3'
p425
F12194.253328013308
sS'water-10-water-12-water-16-water-22-water-3:water-15'
p426
I0
sS'water-12-water-22:water-9'
p427
I0
sS'water-12-water-16-water-22:water-3'
p428
F8568.922644079492
sS'water-12-water-16-water-22:water-9'
p429
I0
sS'water-15:water-16'
p430
F2919.761178400466
sS'water-15:water-12'
p431
I0
sS'water-15:water-10'
p432
F3312.4701329508644
sS'water-12-water-22-water-9:water-16'
p433
F72994.02946001188
sS'water-12-water-22-water-3:water-15'
p434
I0
sS'water-10-water-12-water-22-water-9:water-16'
p435
F45553.49528184485
sS'water-16-water-3:water-15'
p436
I0
sS'water-10-water-16-water-22:water-3'
p437
F1612.2567970263756
sS'water-12-water-16-water-22-water-3-water-9:water-10'
p438
F52833.02585086679
sS'water-15-water-22-water-3:water-9'
p439
I0
sS'water-16-water-3:water-12'
p440
I0
sS'water-10-water-16-water-22:water-9'
p441
I0
sS'water-12-water-15-water-22-water-3:water-16'
p442
F54867.37604034286
sS'water-10-water-15-water-3-water-9:water-22'
p443
I0
sS'water-10-water-22-water-9:water-3'
p444
F6645.6126095741565
sS'water-12-water-15-water-22-water-3:water-10'
p445
F55068.5497315755
sS'water-15-water-16-water-22-water-3-water-9:water-10'
p446
F52833.02585086679
sS'water-15-water-16-water-22-water-3-water-9:water-12'
p447
I0
sS'water-12-water-15-water-16-water-22-water-9:water-10'
p448
F276856.09572802746
s.