(dp0
S'L-Dist-R-Weight:L-Weight'
p1
F1105.898695271314
sS'Class-L-Weight-R-Dist:L-Dist'
p2
F1162.463414063571
sS'Class-L-Dist-L-Weight-R-Dist:R-Weight'
p3
F2221.4656281649145
sS'L-Dist-R-Dist-R-Weight:L-Weight'
p4
F1505.8986952713062
sS'L-Weight-R-Weight:L-Dist'
p5
F1105.8986952713128
sS'L-Weight-R-Dist:L-Dist'
p6
F1105.8986952713128
sS'Class-L-Dist:L-Weight'
p7
F988.6781350115187
sS'Class:R-Weight'
p8
F959.2609062173291
sS'R-Weight:L-Dist'
p9
F1025.8986952713133
sS'Class-L-Dist-R-Dist:L-Weight'
p10
F1162.4634140635724
sS':L-Weight'
p11
F1009.8986952713121
sS'Class-L-Dist-L-Weight:R-Weight'
p12
F1155.159761771953
sS'L-Weight:R-Dist'
p13
F1025.8986952713133
sS'L-Dist-L-Weight-R-Weight:R-Dist'
p14
F1505.8986952713062
sS'L-Dist-L-Weight-R-Dist-R-Weight:Class'
p15
F1250.0
sS'Class-R-Weight:R-Dist'
p16
F988.6781350115192
sS'L-Weight-R-Weight:Class'
p17
F477.8683483141275
sS'L-Weight:R-Weight'
p18
F1025.8986952713133
sS'Class-R-Weight:L-Weight'
p19
F981.3744827198988
sS'L-Dist-L-Weight-R-Weight:Class'
p20
F534.4330671063874
sS'L-Dist-R-Dist:Class'
p21
F477.8683483141275
sS'R-Dist:Class'
p22
F522.3925608655421
sS'L-Dist-L-Weight-R-Dist:R-Weight'
p23
F1505.8986952713062
sS'Class-L-Weight:L-Dist'
p24
F988.6781350115186
sS'Class-L-Weight-R-Weight:R-Dist'
p25
F1162.4634140635728
sS'L-Dist:L-Weight'
p26
F1025.8986952713133
sS'L-Weight:Class'
p27
F522.3925608655421
sS'Class-L-Dist-R-Dist-R-Weight:L-Weight'
p28
F2221.4656281649145
sS'R-Weight:Class'
p29
F522.3925608655421
sS'Class-R-Dist-R-Weight:L-Weight'
p30
F1155.1597617719517
sS'Class-L-Dist:R-Weight'
p31
F981.3744827198991
sS'Class-R-Dist-R-Weight:L-Dist'
p32
F1155.1597617719517
sS'L-Weight:L-Dist'
p33
F1025.8986952713133
sS'Class-L-Weight-R-Dist-R-Weight:L-Dist'
p34
F2221.4656281649145
sS'L-Dist-R-Dist-R-Weight:Class'
p35
F534.4330671063874
sS'Class-R-Dist:L-Weight'
p36
F981.3744827198988
sS'R-Weight:L-Weight'
p37
F1025.8986952713133
sS'L-Dist-R-Dist:R-Weight'
p38
F1105.8986952713128
sS'Class-R-Dist:R-Weight'
p39
F988.6781350115187
sS'L-Dist:R-Dist'
p40
F1025.8986952713133
sS':Class'
p41
F573.0303499195252
sS'L-Dist-R-Weight:Class'
p42
F477.8683483141275
sS':R-Dist'
p43
F1009.8986952713121
sS'R-Weight:R-Dist'
p44
F1025.8986952713133
sS':L-Dist'
p45
F1009.8986952713121
sS'Class:L-Weight'
p46
F959.2609062173291
sS'L-Weight-R-Dist:Class'
p47
F477.8683483141275
sS'L-Dist-L-Weight:R-Weight'
p48
F1105.8986952713128
sS'R-Dist-R-Weight:L-Dist'
p49
F1105.898695271314
sS'L-Weight-R-Dist:R-Weight'
p50
F1105.8986952713128
sS'L-Weight-R-Weight:R-Dist'
p51
F1105.8986952713128
sS'Class-L-Weight:R-Dist'
p52
F981.3744827198991
sS'L-Dist-L-Weight:Class'
p53
F485.17200060574777
sS'L-Dist-R-Dist:L-Weight'
p54
F1105.898695271314
sS'L-Dist:Class'
p55
F522.3925608655421
sS'Class-L-Weight-R-Dist:R-Weight'
p56
F1162.4634140635715
sS'Class-L-Dist-L-Weight:R-Dist'
p57
F1155.159761771953
sS'Class-R-Weight:L-Dist'
p58
F981.3744827198988
sS'Class-L-Dist-R-Weight:L-Weight'
p59
F1162.4634140635724
sS':R-Weight'
p60
F1009.8986952713121
sS'R-Dist-R-Weight:L-Weight'
p61
F1105.898695271314
sS'Class-L-Dist-L-Weight-R-Weight:R-Dist'
p62
F2221.4656281649145
sS'L-Weight-R-Dist-R-Weight:L-Dist'
p63
F1505.8986952713062
sS'Class:L-Dist'
p64
F959.2609062173291
sS'R-Dist:L-Weight'
p65
F1025.8986952713133
sS'L-Dist-L-Weight:R-Dist'
p66
F1105.8986952713128
sS'Class:R-Dist'
p67
F959.2609062173291
sS'Class-L-Weight-R-Weight:L-Dist'
p68
F1162.463414063571
sS'R-Dist-R-Weight:Class'
p69
F485.1720006057479
sS'L-Weight-R-Dist-R-Weight:Class'
p70
F534.4330671063874
sS'Class-R-Dist:L-Dist'
p71
F981.3744827198988
sS'Class-L-Dist-R-Weight:R-Dist'
p72
F1162.4634140635728
sS'L-Dist:R-Weight'
p73
F1025.8986952713133
sS'Class-L-Weight:R-Weight'
p74
F981.3744827198991
sS'R-Dist:L-Dist'
p75
F1025.8986952713133
sS'L-Dist-R-Weight:R-Dist'
p76
F1105.8986952713128
sS'Class-L-Dist-R-Dist:R-Weight'
p77
F1162.4634140635715
sS'L-Dist-L-Weight-R-Dist:Class'
p78
F534.4330671063874
sS'Class-L-Dist:R-Dist'
p79
F981.3744827198991
sS'R-Dist:R-Weight'
p80
F1025.8986952713133
s.