(dp0
S''
p1
(dp2
S'R-Dist'
p3
F1009.8986952713121
sS'L-Dist'
p4
F1009.8986952713121
sS'Class'
p5
F573.0303499195252
sS'R-Weight'
p6
F1009.8986952713121
sS'L-Weight'
p7
F1009.8986952713121
ssS'Class,L-Weight,R-Dist,R-Weight'
p8
(dp9
g4
F2221.4656281649145
ssS'L-Dist,L-Weight,R-Weight'
p10
(dp11
g3
F1505.8986952713062
sg5
F534.4330671063879
ssS'L-Dist,L-Weight,R-Dist,R-Weight'
p12
(dp13
g5
F1250.0
ssg7
(dp14
g3
F1025.8986952713133
sg6
F1025.8986952713133
sg5
F522.3925608655422
sg4
F1025.8986952713133
ssS'Class,L-Dist,R-Dist'
p15
(dp16
g7
F1162.4634140635724
sg6
F1162.463414063571
ssS'L-Dist,R-Weight'
p17
(dp18
g3
F1105.898695271314
sg5
F477.86834831412784
sg7
F1105.8986952713128
ssS'L-Weight,R-Dist'
p19
(dp20
g6
F1105.8986952713128
sg5
F477.86834831412784
sg4
F1105.8986952713128
ssS'Class,R-Weight'
p21
(dp22
g3
F988.6781350115186
sg7
F981.3744827198988
sg4
F981.3744827198988
ssS'L-Weight,R-Dist,R-Weight'
p23
(dp24
g5
F534.4330671063879
sg4
F1505.8986952713062
ssg3
(dp25
g4
F1025.8986952713133
sg5
F522.3925608655418
sg6
F1025.8986952713133
sg7
F1025.8986952713133
ssS'Class,L-Dist,L-Weight,R-Weight'
p26
(dp27
g3
F2221.4656281649145
ssS'L-Dist,R-Dist'
p28
(dp29
g6
F1105.8986952713128
sg5
F477.86834831412784
sg7
F1105.8986952713128
ssS'Class,L-Weight,R-Weight'
p30
(dp31
g3
F1162.4634140635724
sg4
F1162.4634140635717
ssS'L-Dist,L-Weight,R-Dist'
p32
(dp33
g5
F534.4330671063879
sg6
F1505.8986952713062
ssS'Class,L-Dist,R-Weight'
p34
(dp35
g3
F1162.4634140635724
sg7
F1162.4634140635724
ssg6
(dp36
g3
F1025.8986952713133
sg4
F1025.8986952713133
sg5
F522.3925608655418
sg7
F1025.8986952713133
ssg5
(dp37
g3
F959.2609062173287
sg6
F959.2609062173287
sg7
F959.260906217329
sg4
F959.260906217329
ssS'Class,R-Dist'
p38
(dp39
g6
F988.678135011519
sg7
F981.3744827198988
sg4
F981.3744827198988
ssS'Class,L-Dist'
p40
(dp41
g3
F981.3744827198988
sg7
F988.6781350115186
sg6
F981.3744827198988
ssS'L-Dist,R-Dist,R-Weight'
p42
(dp43
g5
F534.4330671063879
sg7
F1505.8986952713062
ssS'Class,L-Weight,R-Dist'
p44
(dp45
g6
F1162.463414063571
sg4
F1162.4634140635717
ssS'L-Weight,R-Weight'
p46
(dp47
g3
F1105.898695271314
sg5
F477.86834831412784
sg4
F1105.8986952713128
ssS'Class,L-Dist,R-Dist,R-Weight'
p48
(dp49
g7
F2221.4656281649145
ssS'Class,L-Dist,L-Weight,R-Dist'
p50
(dp51
g6
F2221.4656281649145
ssS'Class,L-Weight'
p52
(dp53
g3
F981.3744827198988
sg4
F988.6781350115183
sg6
F981.3744827198988
ssS'R-Dist,R-Weight'
p54
(dp55
g4
F1105.8986952713128
sg5
F485.1720006057476
sg7
F1105.8986952713128
ssS'Class,R-Dist,R-Weight'
p56
(dp57
g7
F1155.1597617719517
sg4
F1155.1597617719517
ssS'Class,L-Dist,L-Weight'
p58
(dp59
g3
F1155.159761771953
sg6
F1155.159761771953
ssS'L-Dist,L-Weight'
p60
(dp61
g3
F1105.898695271314
sg5
F485.1720006057469
sg6
F1105.898695271314
ssg4
(dp62
g3
F1025.8986952713133
sg6
F1025.8986952713133
sg5
F522.3925608655422
sg7
F1025.8986952713133
ss.