(dp0
(c__builtin__
frozenset
p1
((lp2
ccopy_reg
_reconstructor
p3
(cdata
Variable
p4
c__builtin__
object
p5
Ntp6
Rp7
(dp8
S'domain'
p9
c__builtin__
set
p10
((lp11
I1
aI2
aI3
aI4
aI5
atp12
Rp13
sS'name'
p14
S'R-Weight'
p15
sS'var_type'
p16
c__builtin__
int
p17
sbag3
(g4
g5
Ntp18
Rp19
(dp20
g9
g10
((lp21
I1
aI2
aI3
aI4
aI5
atp22
Rp23
sg14
S'L-Dist'
p24
sg16
g17
sbatp25
Rp26
g3
(g4
g5
Ntp27
Rp28
(dp29
g9
g10
((lp30
I1
aI2
aI3
aI4
aI5
atp31
Rp32
sg14
S'R-Dist'
p33
sg16
g17
sbtp34
F1105.898695271314
s(g1
((lp35
g3
(g4
g5
Ntp36
Rp37
(dp38
g9
g10
((lp39
I1
aI2
aI3
aI4
aI5
atp40
Rp41
sg14
S'L-Weight'
p42
sg16
g17
sbatp43
Rp44
g19
tp45
F1025.8986952713133
s(g1
((lp46
g3
(g4
g5
Ntp47
Rp48
(dp49
g9
g10
((lp50
S'R'
p51
aS'B'
p52
aS'L'
p53
atp54
Rp55
sg14
S'Class'
p56
sg16
c__builtin__
str
p57
sbag19
ag7
atp58
Rp59
g37
tp60
F1162.4634140635724
s(g1
((lp61
g37
atp62
Rp63
g48
tp64
F522.3925608655422
s(g1
((lp65
tp66
Rp67
g28
tp68
F1009.8986952713121
s(g1
((lp69
g48
ag28
ag19
atp70
Rp71
g37
tp72
F1162.4634140635724
s(g1
((lp73
g19
ag28
atp74
Rp75
g37
tp76
F1105.8986952713128
s(g1
((lp77
g7
atp78
Rp79
g48
tp80
F522.3925608655418
s(g67
g48
tp81
F573.0303499195252
s(g1
((lp82
g37
ag28
ag7
atp83
Rp84
g48
tp85
F534.4330671063879
s(g1
((lp86
g48
ag37
atp87
Rp88
g19
tp89
F988.6781350115183
s(g1
((lp90
g37
atp91
Rp92
g7
tp93
F1025.8986952713133
s(g1
((lp94
g48
ag37
ag19
ag28
atp95
Rp96
g7
tp97
F2221.4656281649145
s(g1
((lp98
g48
ag28
atp99
Rp100
g37
tp101
F981.3744827198988
s(g1
((lp102
g48
ag7
ag37
atp103
Rp104
g19
tp105
F1162.4634140635717
s(g1
((lp106
g37
ag7
atp107
Rp108
g28
tp109
F1105.898695271314
s(g1
((lp110
g37
ag19
ag7
atp111
Rp112
g28
tp113
F1505.8986952713062
s(g1
((lp114
g37
ag19
ag28
ag7
atp115
Rp116
g48
tp117
F1250.0
s(g1
((lp118
g37
ag28
ag19
atp119
Rp120
g48
tp121
F534.4330671063879
s(g1
((lp122
g48
ag19
atp123
Rp124
g28
tp125
F981.3744827198988
s(g1
((lp126
g37
atp127
Rp128
g28
tp129
F1025.8986952713133
s(g1
((lp130
g48
ag19
atp131
Rp132
g37
tp133
F988.6781350115186
s(g1
((lp134
g48
ag37
ag19
ag7
atp135
Rp136
g28
tp137
F2221.4656281649145
s(g1
((lp138
g19
ag28
atp139
Rp140
g7
tp141
F1105.8986952713128
s(g1
((lp142
g37
ag28
atp143
Rp144
g48
tp145
F477.86834831412784
s(g1
((lp146
g48
ag37
atp147
Rp148
g28
tp149
F981.3744827198988
s(g1
((lp150
g48
ag19
ag37
atp151
Rp152
g28
tp153
F1155.159761771953
s(g1
((lp154
g48
ag7
atp155
Rp156
g37
tp157
F981.3744827198988
s(g1
((lp158
g48
ag28
ag7
atp159
Rp160
g37
tp161
F1155.1597617719517
s(g1
((lp162
g7
ag28
atp163
Rp164
g48
tp165
F485.1720006057476
s(g1
((lp166
g7
ag28
ag19
atp167
Rp168
g48
tp169
F534.4330671063879
s(g1
((lp170
g48
ag37
atp171
Rp172
g7
tp173
F981.3744827198988
s(g1
((lp174
g19
atp175
Rp176
g7
tp177
F1025.8986952713133
s(g1
((lp178
g19
atp179
Rp180
g37
tp181
F1025.8986952713133
s(g1
((lp182
g7
ag19
ag37
atp183
Rp184
g48
tp185
F534.4330671063879
s(g1
((lp186
g7
ag28
atp187
Rp188
g19
tp189
F1105.8986952713128
s(g1
((lp190
g48
ag28
atp191
Rp192
g19
tp193
F981.3744827198988
s(g1
((lp194
g48
ag19
ag37
atp195
Rp196
g7
tp197
F1155.159761771953
s(g1
((lp198
g48
ag37
ag28
ag7
atp199
Rp200
g19
tp201
F2221.4656281649145
s(g1
((lp202
g19
atp203
Rp204
g48
tp205
F522.3925608655422
s(g1
((lp206
g37
ag28
atp207
Rp208
g7
tp209
F1105.8986952713128
s(g1
((lp210
g48
ag19
atp211
Rp212
g7
tp213
F981.3744827198988
s(g1
((lp214
g7
ag19
atp215
Rp216
g37
tp217
F1105.8986952713128
s(g1
((lp218
g37
ag28
ag19
atp219
Rp220
g7
tp221
F1505.8986952713062
s(g1
((lp222
g7
ag28
ag19
atp223
Rp224
g37
tp225
F1505.8986952713062
s(g1
((lp226
g28
atp227
Rp228
g19
tp229
F1025.8986952713133
s(g1
((lp230
g7
atp231
Rp232
g28
tp233
F1025.8986952713133
s(g1
((lp234
g48
ag7
atp235
Rp236
g28
tp237
F988.6781350115186
s(g1
((lp238
g48
atp239
Rp240
g7
tp241
F959.2609062173287
s(g1
((lp242
g28
atp243
Rp244
g7
tp245
F1025.8986952713133
s(g1
((lp246
g37
ag28
atp247
Rp248
g19
tp249
F1105.8986952713128
s(g1
((lp250
g28
atp251
Rp252
g48
tp253
F522.3925608655418
s(g1
((lp254
g37
ag19
atp255
Rp256
g7
tp257
F1105.898695271314
s(g1
((lp258
g7
atp259
Rp260
g37
tp261
F1025.8986952713133
s(g1
((lp262
g48
ag19
ag7
atp263
Rp264
g28
tp265
F1162.4634140635724
s(g1
((lp266
g7
atp267
Rp268
g19
tp269
F1025.8986952713133
s(g1
((lp270
g48
atp271
Rp272
g28
tp273
F959.2609062173287
s(g67
g37
tp274
F1009.8986952713121
s(g1
((lp275
g48
ag7
atp276
Rp277
g19
tp278
F981.3744827198988
s(g1
((lp279
g7
ag19
atp280
Rp281
g48
tp282
F477.86834831412784
s(g1
((lp283
g48
ag28
ag7
atp284
Rp285
g19
tp286
F1155.1597617719517
s(g1
((lp287
g48
ag19
ag28
ag7
atp288
Rp289
g37
tp290
F2221.4656281649145
s(g1
((lp291
g48
ag28
atp292
Rp293
g7
tp294
F988.678135011519
s(g1
((lp295
g37
ag19
atp296
Rp297
g28
tp298
F1105.898695271314
s(g1
((lp299
g19
atp300
Rp301
g28
tp302
F1025.8986952713133
s(g1
((lp303
g48
ag28
ag37
atp304
Rp305
g7
tp306
F1162.463414063571
s(g1
((lp307
g37
ag19
atp308
Rp309
g48
tp310
F485.1720006057469
s(g1
((lp311
g48
atp312
Rp313
g37
tp314
F959.260906217329
s(g67
g19
tp315
F1009.8986952713121
s(g1
((lp316
g48
ag28
ag19
atp317
Rp318
g7
tp319
F1162.463414063571
s(g1
((lp320
g7
ag37
atp321
Rp322
g48
tp323
F477.86834831412784
s(g1
((lp324
g28
atp325
Rp326
g37
tp327
F1025.8986952713133
s(g1
((lp328
g19
ag28
atp329
Rp330
g48
tp331
F477.86834831412784
s(g1
((lp332
g7
ag28
atp333
Rp334
g37
tp335
F1105.8986952713128
s(g1
((lp336
g37
ag28
ag7
atp337
Rp338
g19
tp339
F1505.8986952713062
s(g1
((lp340
g48
ag28
ag37
atp341
Rp342
g19
tp343
F1162.4634140635717
s(g1
((lp344
g48
atp345
Rp346
g19
tp347
F959.260906217329
s(g67
g7
tp348
F1009.8986952713121
s(g1
((lp349
g48
ag37
ag7
atp350
Rp351
g28
tp352
F1162.4634140635724
s(g1
((lp353
g37
ag7
atp354
Rp355
g19
tp356
F1105.8986952713128
s.