(dp0
S'abalone-0-abalone-2-abalone-3-abalone-4:abalone-7'
p1
F2567.7904566854554
sS'abalone-1-abalone-2-abalone-3-abalone-5-abalone-6-abalone-8:abalone-0'
p2
F35885.982449460025
sS'abalone-1-abalone-2-abalone-3-abalone-5-abalone-6-abalone-8:abalone-7'
p3
F53870.96949792824
sS'abalone-1-abalone-2-abalone-3-abalone-5-abalone-6-abalone-8:abalone-4'
p4
F53420.69728274168
sS'abalone-0-abalone-4-abalone-5-abalone-6:abalone-7'
p5
F2767.7897786162644
sS'abalone-1-abalone-2-abalone-3-abalone-4-abalone-6-abalone-7:abalone-0'
p6
F28690.937910686956
sS'abalone-1-abalone-2-abalone-3-abalone-4-abalone-6-abalone-7:abalone-5'
p7
F51135.24614468176
sS'abalone-1-abalone-2-abalone-3-abalone-4-abalone-6-abalone-7:abalone-8'
p8
F4963.737882403268
sS'abalone-4-abalone-8:abalone-0'
p9
F11418.01124885574
sS'abalone-4-abalone-8:abalone-3'
p10
F161.51044253681937
sS'abalone-4-abalone-8:abalone-2'
p11
F7694.297267598225
sS'abalone-4-abalone-8:abalone-5'
p12
F4324.744547340295
sS'abalone-4-abalone-8:abalone-7'
p13
F4284.612671653467
sS'abalone-4-abalone-8:abalone-6'
p14
F4508.669656066944
sS'abalone-0-abalone-1-abalone-2-abalone-4-abalone-8:abalone-3'
p15
F5696.4397249066615
sS'abalone-0-abalone-1-abalone-2-abalone-4-abalone-8:abalone-6'
p16
F11295.576111165503
sS'abalone-0-abalone-1-abalone-2-abalone-4-abalone-8:abalone-7'
p17
F11146.304829657332
sS'abalone-0-abalone-1-abalone-2-abalone-4-abalone-8:abalone-5'
p18
F11197.074431447889
sS'abalone-0-abalone-1-abalone-4-abalone-5-abalone-7-abalone-8:abalone-6'
p19
F40627.59473393444
sS'abalone-5-abalone-7:abalone-8'
p20
I0
sS'abalone-0-abalone-1-abalone-4-abalone-5-abalone-7-abalone-8:abalone-2'
p21
F40789.664502241285
sS'abalone-0-abalone-1-abalone-4-abalone-5-abalone-7-abalone-8:abalone-3'
p22
F28176.63706249024
sS'abalone-5-abalone-7:abalone-3'
p23
F103.80068980699798
sS'abalone-5-abalone-7:abalone-2'
p24
F2912.4309772771076
sS'abalone-5-abalone-7:abalone-1'
p25
F2908.144900585434
sS'abalone-5-abalone-7:abalone-0'
p26
F3936.4480916631383
sS'abalone-5-abalone-7:abalone-6'
p27
F1519.7241255275349
sS'abalone-5-abalone-7:abalone-4'
p28
F1660.5401513718516
sS'abalone-0-abalone-1-abalone-2-abalone-4-abalone-5-abalone-7:abalone-8'
p29
I0
sS'abalone-0-abalone-4-abalone-6-abalone-8:abalone-7'
p30
F5094.588516076397
sS'abalone-0-abalone-4-abalone-6-abalone-8:abalone-5'
p31
F5002.071665546759
sS'abalone-0-abalone-1-abalone-2-abalone-4-abalone-5-abalone-7:abalone-3'
p32
F28142.227404451973
sS'abalone-0-abalone-4-abalone-6-abalone-8:abalone-3'
p33
F1201.2373700394162
sS'abalone-0-abalone-4-abalone-6-abalone-8:abalone-2'
p34
F8565.688445461605
sS'abalone-0-abalone-1-abalone-2-abalone-4-abalone-5-abalone-7:abalone-6'
p35
F38577.53980712768
sS'abalone-2-abalone-3:abalone-4'
p36
F2405.4719895990274
sS'abalone-2-abalone-3:abalone-5'
p37
F2287.765707310784
sS'abalone-2-abalone-3:abalone-6'
p38
F2254.561224107336
sS'abalone-2-abalone-3:abalone-7'
p39
F2211.6545547372225
sS'abalone-2-abalone-3:abalone-0'
p40
F3981.8506217031636
sS'abalone-2-abalone-3:abalone-1'
p41
F1515.7336785282591
sS'abalone-2-abalone-3:abalone-8'
p42
I0
sS'abalone-0-abalone-2-abalone-3-abalone-8:abalone-1'
p43
F5276.2253407697635
sS'abalone-0-abalone-2-abalone-3-abalone-6:abalone-1'
p44
F2453.3398667805936
sS'abalone-0-abalone-2-abalone-3-abalone-8:abalone-4'
p45
F7454.736788240504
sS'abalone-0-abalone-2-abalone-3-abalone-8:abalone-5'
p46
F7221.009987566867
sS'abalone-0-abalone-2-abalone-3-abalone-8:abalone-6'
p47
F7022.896031103642
sS'abalone-0-abalone-2-abalone-3-abalone-8:abalone-7'
p48
F6757.5380485713495
sS'abalone-1-abalone-3-abalone-4-abalone-8:abalone-2'
p49
F5522.547856020753
sS'abalone-1-abalone-3-abalone-4-abalone-8:abalone-0'
p50
F12060.0048148932
sS'abalone-1-abalone-3-abalone-4-abalone-8:abalone-7'
p51
F5827.290043687692
sS'abalone-1-abalone-3-abalone-4-abalone-8:abalone-6'
p52
F6046.882333314228
sS'abalone-1-abalone-3-abalone-4-abalone-8:abalone-5'
p53
F5863.701289301756
sS'abalone-1-abalone-3-abalone-4-abalone-5-abalone-7:abalone-6'
p54
F11129.566225301629
sS'abalone-1-abalone-3-abalone-4-abalone-5-abalone-7:abalone-0'
p55
F8721.700615938502
sS'abalone-1-abalone-3-abalone-4-abalone-5-abalone-7:abalone-2'
p56
F11151.839425409193
sS'abalone-1-abalone-3-abalone-4-abalone-5-abalone-7:abalone-8'
p57
I0
sS'abalone-0-abalone-3-abalone-5:abalone-7'
p58
F2113.2297776908754
sS'abalone-0-abalone-3-abalone-5:abalone-6'
p59
F1868.7892171435242
sS'abalone-0-abalone-3-abalone-5:abalone-4'
p60
F2229.770881660429
sS'abalone-0-abalone-1-abalone-3-abalone-5:abalone-6'
p61
F2626.024818904839
sS'abalone-0-abalone-1-abalone-3-abalone-5:abalone-7'
p62
F2833.524023279845
sS'abalone-0-abalone-1-abalone-3-abalone-5:abalone-4'
p63
F2700.959937452414
sS'abalone-0-abalone-1-abalone-3-abalone-5:abalone-8'
p64
I0
sS'abalone-0-abalone-3-abalone-5:abalone-8'
p65
I0
sS'abalone-2-abalone-3-abalone-4-abalone-5-abalone-6-abalone-7-abalone-8:abalone-0'
p66
F135739.71111064122
sS'abalone-2-abalone-3-abalone-4-abalone-5-abalone-6-abalone-7-abalone-8:abalone-1'
p67
F253363.81463388875
sS'abalone-2-abalone-3-abalone-4-abalone-6:abalone-7'
p68
F3275.0540436172937
sS'abalone-4-abalone-8:abalone-1'
p69
F7888.445828437686
sS'abalone-0-abalone-3-abalone-4-abalone-6-abalone-7:abalone-8'
p70
I0
sS'abalone-0-abalone-1-abalone-2-abalone-5-abalone-6-abalone-7:abalone-8'
p71
I0
sS'abalone-0-abalone-1-abalone-2-abalone-5-abalone-6-abalone-7:abalone-4'
p72
F38444.65144974845
sS'abalone-0-abalone-2-abalone-4-abalone-5-abalone-6-abalone-7-abalone-8:abalone-1'
p73
F190788.16524853013
sS'abalone-3-abalone-4:abalone-7'
p74
F1575.0422628174233
sS'abalone-0-abalone-3-abalone-5-abalone-7-abalone-8:abalone-1'
p75
F13892.075150072262
sS'abalone-0-abalone-3-abalone-5-abalone-7-abalone-8:abalone-2'
p76
F13877.881978950378
sS'abalone-0-abalone-3-abalone-5-abalone-7-abalone-8:abalone-4'
p77
F10321.8123262515
sS'abalone-0-abalone-3-abalone-5-abalone-7-abalone-8:abalone-6'
p78
F9910.156586281171
sS'abalone-1-abalone-4-abalone-5-abalone-6-abalone-7:abalone-8'
p79
I0
sS'abalone-0-abalone-2-abalone-4-abalone-6-abalone-8:abalone-3'
p80
F5696.504621874474
sS'abalone-0-abalone-2-abalone-4-abalone-6-abalone-8:abalone-5'
p81
F10853.230920025357
sS'abalone-0-abalone-2-abalone-4-abalone-6-abalone-8:abalone-7'
p82
F10921.58341975161
sS'abalone-0-abalone-3-abalone-4-abalone-6-abalone-7:abalone-2'
p83
F8337.37148743649
sS'abalone-1-abalone-4-abalone-5-abalone-6-abalone-7:abalone-0'
p84
F9939.75933122297
sS'abalone-1-abalone-4-abalone-5-abalone-6-abalone-7:abalone-2'
p85
F13635.105042155346
sS'abalone-1-abalone-4-abalone-5-abalone-6-abalone-7:abalone-3'
p86
F9394.448851600755
sS'abalone-0-abalone-3-abalone-4-abalone-6-abalone-7:abalone-1'
p87
F8364.226093690124
sS'abalone-2-abalone-3-abalone-6-abalone-7-abalone-8:abalone-1'
p88
F13622.94759778244
sS'abalone-2-abalone-3-abalone-6-abalone-7-abalone-8:abalone-0'
p89
F15933.015317199463
sS'abalone-2-abalone-3-abalone-6-abalone-7-abalone-8:abalone-5'
p90
F14069.120267172151
sS'abalone-2-abalone-3-abalone-6-abalone-7-abalone-8:abalone-4'
p91
F13762.024032720736
sS'abalone-1-abalone-3-abalone-4-abalone-5-abalone-6-abalone-7:abalone-8'
p92
F4850.658002537892
sS'abalone-0-abalone-3-abalone-4-abalone-6-abalone-7:abalone-5'
p93
F7182.880308010595
sS'abalone-0-abalone-1-abalone-2-abalone-4-abalone-7-abalone-8:abalone-5'
p94
F41020.5370110724
sS'abalone-1-abalone-3-abalone-4-abalone-5-abalone-6-abalone-7:abalone-2'
p95
F51134.85742736136
sS'abalone-0-abalone-1-abalone-2-abalone-4-abalone-7-abalone-8:abalone-6'
p96
F40975.70544260372
sS'abalone-0-abalone-1-abalone-2-abalone-4-abalone-7-abalone-8:abalone-3'
p97
F28177.855072650116
sS'abalone-2-abalone-3-abalone-4-abalone-5:abalone-1'
p98
F3203.18125311915
sS'abalone-2-abalone-3-abalone-4-abalone-5:abalone-0'
p99
F4754.541222717656
sS'abalone-2-abalone-3-abalone-4-abalone-5:abalone-7'
p100
F3341.371349620348
sS'abalone-2-abalone-3-abalone-4-abalone-5:abalone-6'
p101
F3233.1920729161275
sS'abalone-2-abalone-3-abalone-4-abalone-5:abalone-8'
p102
I0
sS'abalone-1-abalone-2-abalone-3-abalone-5-abalone-6:abalone-7'
p103
F11455.533261503468
sS'abalone-1-abalone-2-abalone-3-abalone-5-abalone-6:abalone-4'
p104
F11215.76930079814
sS'abalone-1-abalone-2-abalone-3-abalone-5-abalone-6:abalone-0'
p105
F8731.714365182896
sS'abalone-2-abalone-7:abalone-1'
p106
F1395.7712146329666
sS'abalone-1-abalone-2-abalone-3-abalone-5-abalone-6:abalone-8'
p107
I0
sS'abalone-2-abalone-7:abalone-3'
p108
F98.74154367058236
sS'abalone-0-abalone-1-abalone-2-abalone-3-abalone-4-abalone-5-abalone-6-abalone-7:abalone-8'
p109
F769301.7145564206
sS'abalone-0-abalone-1-abalone-2-abalone-7:abalone-8'
p110
I0
sS'abalone-2-abalone-7:abalone-5'
p111
F1854.2695655160471
sS'abalone-1-abalone-2-abalone-4-abalone-5:abalone-8'
p112
I0
sS'abalone-1-abalone-2-abalone-4-abalone-5:abalone-7'
p113
F3811.2329679988716
sS'abalone-1-abalone-2-abalone-4-abalone-5:abalone-6'
p114
F3701.4571127507143
sS'abalone-1-abalone-2-abalone-4-abalone-5:abalone-3'
p115
F1900.9179495295095
sS'abalone-1-abalone-2-abalone-4-abalone-5:abalone-0'
p116
F4988.002789737288
sS'abalone-2-abalone-4-abalone-5:abalone-8'
p117
I0
sS'abalone-2-abalone-4-abalone-5:abalone-3'
p118
F401.27181006216256
sS'abalone-2-abalone-4-abalone-5:abalone-0'
p119
F4007.0954710309106
sS'abalone-2-abalone-4-abalone-5:abalone-1'
p120
F1703.5351136518018
sS'abalone-2-abalone-4-abalone-5:abalone-6'
p121
F1733.2774278881109
sS'abalone-2-abalone-4-abalone-5:abalone-7'
p122
F1848.1449023602138
sS'abalone-1-abalone-4-abalone-6:abalone-7'
p123
F1769.7249671884679
sS'abalone-2-abalone-3-abalone-7:abalone-0'
p124
F4002.4159660460546
sS'abalone-1-abalone-2-abalone-3-abalone-4-abalone-6-abalone-8:abalone-0'
p125
F35830.207042108545
sS'abalone-1-abalone-2-abalone-3-abalone-4-abalone-6-abalone-8:abalone-7'
p126
F53391.207365102935
sS'abalone-1-abalone-2-abalone-3-abalone-4-abalone-6-abalone-8:abalone-5'
p127
F53307.397137940374
sS'abalone-0-abalone-1-abalone-2-abalone-4-abalone-6:abalone-8'
p128
I0
sS'abalone-0-abalone-1-abalone-2-abalone-4-abalone-6:abalone-3'
p129
F5648.80928215211
sS'abalone-0-abalone-1-abalone-2-abalone-4-abalone-6:abalone-5'
p130
F8645.777326934263
sS'abalone-0-abalone-1-abalone-2-abalone-4-abalone-6:abalone-7'
p131
F8730.4483492868
sS'abalone-0-abalone-1-abalone-5-abalone-6:abalone-7'
p132
F2968.375841781272
sS'abalone-0-abalone-1-abalone-2-abalone-3-abalone-4-abalone-6-abalone-7:abalone-5'
p133
F151107.8640608346
sS'abalone-0-abalone-1-abalone-2-abalone-3-abalone-4-abalone-6-abalone-7:abalone-8'
p134
F112019.60431233993
sS'abalone-0-abalone-1-abalone-3-abalone-4-abalone-5-abalone-7-abalone-8:abalone-2'
p135
F153289.0907847972
sS'abalone-0-abalone-1-abalone-3-abalone-4-abalone-5-abalone-7-abalone-8:abalone-6'
p136
F153127.26829739264
sS'abalone-0-abalone-4-abalone-6-abalone-8:abalone-1'
p137
F8673.736594345535
sS'abalone-0-abalone-1-abalone-2-abalone-5:abalone-7'
p138
F3082.5445441031998
sS'abalone-0-abalone-3-abalone-4-abalone-6:abalone-8'
p139
I0
sS'abalone-0-abalone-3-abalone-4-abalone-5-abalone-8:abalone-7'
p140
F9754.282187507992
sS'abalone-0-abalone-3-abalone-4-abalone-5-abalone-8:abalone-6'
p141
F9581.224807075121
sS'abalone-0-abalone-3-abalone-4-abalone-6:abalone-2'
p142
F3596.031525295547
sS'abalone-0-abalone-3-abalone-4-abalone-5-abalone-8:abalone-2'
p143
F13054.06034554402
sS'abalone-0-abalone-3-abalone-4-abalone-5-abalone-8:abalone-1'
p144
F13149.163106519316
sS'abalone-0-abalone-3-abalone-4-abalone-6:abalone-7'
p145
F2512.1310136791426
sS'abalone-0-abalone-1-abalone-2-abalone-3-abalone-7-abalone-8:abalone-6'
p146
F34257.347807968086
sS'abalone-0-abalone-1-abalone-2-abalone-3-abalone-7-abalone-8:abalone-4'
p147
F34241.43271841155
sS'abalone-0-abalone-1-abalone-2-abalone-3-abalone-7-abalone-8:abalone-5'
p148
F34628.985564177856
sS'abalone-4-abalone-5-abalone-6-abalone-8:abalone-2'
p149
F9678.12209864298
sS'abalone-4-abalone-5-abalone-6-abalone-8:abalone-3'
p150
F1959.5986916732331
sS'abalone-4-abalone-5-abalone-6-abalone-8:abalone-0'
p151
F12355.32998789935
sS'abalone-4-abalone-5-abalone-6-abalone-8:abalone-1'
p152
F9737.92114607606
sS'abalone-4-abalone-5-abalone-6-abalone-8:abalone-7'
p153
F6012.670784214562
sS'abalone-1-abalone-3-abalone-4:abalone-0'
p154
F3978.0335206886302
sS'abalone-0-abalone-1-abalone-3-abalone-4-abalone-5-abalone-8:abalone-2'
p155
F33367.627045385736
sS'abalone-0-abalone-1-abalone-3-abalone-4-abalone-5-abalone-8:abalone-6'
p156
F33398.320280193606
sS'abalone-0-abalone-1-abalone-3-abalone-4-abalone-5-abalone-8:abalone-7'
p157
F33529.793217024395
sS'abalone-1-abalone-3-abalone-4:abalone-8'
p158
I0
sS'abalone-0-abalone-6-abalone-8:abalone-7'
p159
F5078.529602880482
sS'abalone-0-abalone-1-abalone-2-abalone-7-abalone-8:abalone-4'
p160
F11745.728671008044
sS'abalone-0-abalone-6-abalone-8:abalone-5'
p161
F5288.732768744943
sS'abalone-0-abalone-1-abalone-2-abalone-7-abalone-8:abalone-6'
p162
F11759.30073020402
sS'abalone-0-abalone-6-abalone-8:abalone-3'
p163
F307.35028088444096
sS'abalone-0-abalone-6-abalone-8:abalone-2'
p164
F8960.676177592271
sS'abalone-0-abalone-1-abalone-2-abalone-7-abalone-8:abalone-3'
p165
F5682.151025246612
sS'abalone-1-abalone-2-abalone-3-abalone-4-abalone-5-abalone-6-abalone-8:abalone-7'
p166
F253286.97269730375
sS'abalone-0-abalone-1-abalone-6-abalone-7:abalone-3'
p167
F1143.7775032759537
sS'abalone-0-abalone-1-abalone-6-abalone-7:abalone-2'
p168
F2715.996998729664
sS'abalone-0-abalone-1-abalone-6-abalone-7:abalone-5'
p169
F2902.27097636232
sS'abalone-0-abalone-1-abalone-6-abalone-7:abalone-4'
p170
F2777.3281986164616
sS'abalone-1-abalone-2-abalone-3-abalone-4-abalone-5-abalone-6-abalone-8:abalone-0'
p171
F135764.33902272367
sS'abalone-0-abalone-1-abalone-6-abalone-7:abalone-8'
p172
I0
sS'abalone-0-abalone-2-abalone-3-abalone-4-abalone-6:abalone-8'
p173
I0
sS'abalone-2-abalone-5:abalone-7'
p174
F1783.0350176847644
sS'abalone-0-abalone-2-abalone-3-abalone-4-abalone-6:abalone-7'
p175
F7253.470975820083
sS'abalone-0-abalone-2-abalone-3-abalone-4-abalone-6:abalone-5'
p176
F7182.283908609007
sS'abalone-0-abalone-2-abalone-3-abalone-4-abalone-6:abalone-1'
p177
F7186.747330963053
sS'abalone-1-abalone-2-abalone-3-abalone-6:abalone-0'
p178
F4757.879852795757
sS'abalone-1-abalone-2-abalone-3-abalone-6:abalone-7'
p179
F3528.8720603490287
sS'abalone-1-abalone-2-abalone-3-abalone-6:abalone-5'
p180
F3459.5982275399615
sS'abalone-1-abalone-2-abalone-3-abalone-6:abalone-4'
p181
F3510.237779306695
sS'abalone-1-abalone-3-abalone-4-abalone-6-abalone-7:abalone-5'
p182
F11152.120795328326
sS'abalone-1-abalone-2-abalone-3-abalone-6:abalone-8'
p183
I0
sS'abalone-3-abalone-4-abalone-6-abalone-7:abalone-2'
p184
F4422.873524286453
sS'abalone-3-abalone-4-abalone-6-abalone-7:abalone-1'
p185
F4447.217871281173
sS'abalone-3-abalone-4-abalone-6-abalone-7:abalone-0'
p186
F4795.045691971627
sS'abalone-3-abalone-4-abalone-6-abalone-7:abalone-5'
p187
F3201.4855554155183
sS'abalone-3-abalone-4-abalone-6-abalone-7:abalone-8'
p188
I0
sS'abalone-5-abalone-6:abalone-2'
p189
F2957.7656028904366
sS'abalone-1-abalone-3-abalone-4-abalone-5-abalone-6-abalone-7-abalone-8:abalone-2'
p190
F253315.85363268634
sS'abalone-5-abalone-6:abalone-0'
p191
F3941.308062104384
sS'abalone-1-abalone-3-abalone-4-abalone-5-abalone-6-abalone-7-abalone-8:abalone-0'
p192
F135741.55417691654
sS'abalone-5-abalone-6:abalone-7'
p193
F1771.818427198892
sS'abalone-5-abalone-6:abalone-4'
p194
F1792.6893521604015
sS'abalone-5-abalone-6:abalone-8'
p195
I0
sS'abalone-0-abalone-1-abalone-2-abalone-3-abalone-5-abalone-6-abalone-7-abalone-8:abalone-4'
p196
F807985.6215180649
sS'abalone-0-abalone-3-abalone-4-abalone-5-abalone-6-abalone-7-abalone-8:abalone-2'
p197
F156752.56327179365
sS'abalone-2-abalone-3-abalone-4-abalone-7-abalone-8:abalone-6'
p198
F13712.134486241477
sS'abalone-2-abalone-3-abalone-4-abalone-7-abalone-8:abalone-5'
p199
F13737.511303604178
sS'abalone-0-abalone-3-abalone-4-abalone-5-abalone-6-abalone-7-abalone-8:abalone-1'
p200
F156802.36733927188
sS'abalone-2-abalone-3-abalone-4-abalone-7-abalone-8:abalone-1'
p201
F13560.07865268192
sS'abalone-2-abalone-3-abalone-4-abalone-7-abalone-8:abalone-0'
p202
F15943.193479880785
sS'abalone-2-abalone-4-abalone-5-abalone-8:abalone-6'
p203
F6080.4734158292795
sS'abalone-2-abalone-4-abalone-5-abalone-8:abalone-7'
p204
F6197.112201112259
sS'abalone-2-abalone-4-abalone-5-abalone-8:abalone-3'
p205
F1953.116637516763
sS'abalone-2-abalone-4-abalone-5-abalone-8:abalone-0'
p206
F12234.966564187434
sS'abalone-2-abalone-4-abalone-5-abalone-8:abalone-1'
p207
F6029.34796804368
sS'abalone-0-abalone-1-abalone-2-abalone-3-abalone-6-abalone-7:abalone-8'
p208
I0
sS'abalone-2-abalone-4-abalone-5-abalone-7-abalone-8:abalone-6'
p209
F15763.20170701894
sS'abalone-2-abalone-4-abalone-5-abalone-7-abalone-8:abalone-1'
p210
F15919.498120113381
sS'abalone-2-abalone-4-abalone-5-abalone-7-abalone-8:abalone-0'
p211
F17124.639940487064
sS'abalone-2-abalone-4-abalone-5-abalone-7-abalone-8:abalone-3'
p212
F9432.944835687038
sS'abalone-0-abalone-2-abalone-3-abalone-4-abalone-8:abalone-5'
p213
F9877.294882264587
sS'abalone-0-abalone-2-abalone-3-abalone-4-abalone-8:abalone-6'
p214
F9964.693939853625
sS'abalone-0-abalone-2-abalone-3-abalone-4-abalone-8:abalone-7'
p215
F9782.630446054563
sS'abalone-0-abalone-2-abalone-3-abalone-4-abalone-8:abalone-1'
p216
F9644.81618419237
sS'abalone-0-abalone-1-abalone-2-abalone-6-abalone-7:abalone-4'
p217
F8692.145234529848
sS'abalone-3-abalone-4-abalone-5:abalone-2'
p218
F2886.0634166552168
sS'abalone-3-abalone-4-abalone-5:abalone-1'
p219
F2916.9183405133003
sS'abalone-3-abalone-4-abalone-5:abalone-7'
p220
F1802.7266542460743
sS'abalone-0-abalone-3-abalone-8:abalone-2'
p221
F11483.011507366597
sS'abalone-2-abalone-4-abalone-7:abalone-5'
p222
F1827.4165948692892
sS'abalone-2-abalone-4-abalone-7:abalone-6'
p223
F1794.7394675802745
sS'abalone-0-abalone-3-abalone-8:abalone-1'
p224
F11471.709674540985
sS'abalone-0-abalone-3-abalone-8:abalone-6'
p225
F8650.165265574078
sS'abalone-2-abalone-3-abalone-4-abalone-6-abalone-7:abalone-8'
p226
I0
sS'abalone-0-abalone-3-abalone-8:abalone-4'
p227
F10445.277423746464
sS'abalone-0-abalone-3-abalone-8:abalone-5'
p228
F8962.789333428942
sS'abalone-2-abalone-3-abalone-4-abalone-6-abalone-7:abalone-5'
p229
F11164.308124361436
sS'abalone-2-abalone-4-abalone-7:abalone-8'
p230
I0
sS'abalone-2-abalone-3-abalone-4-abalone-6-abalone-7:abalone-0'
p231
F8709.543655121668
sS'abalone-1-abalone-2-abalone-8:abalone-3'
p232
F464.77818587218223
sS'abalone-1-abalone-2-abalone-8:abalone-0'
p233
F11669.814650907509
sS'abalone-1-abalone-2-abalone-8:abalone-6'
p234
F6371.84380592766
sS'abalone-1-abalone-2-abalone-8:abalone-7'
p235
F6065.36760860814
sS'abalone-1-abalone-2-abalone-8:abalone-4'
p236
F6755.15152558362
sS'abalone-1-abalone-2-abalone-8:abalone-5'
p237
F6453.899020491772
sS'abalone-0-abalone-1:abalone-4'
p238
F2298.642284003432
sS'abalone-1-abalone-6-abalone-8:abalone-7'
p239
F4800.592282625935
sS'abalone-1-abalone-6-abalone-8:abalone-4'
p240
F5170.096179995881
sS'abalone-1-abalone-6-abalone-8:abalone-5'
p241
F4889.260775523023
sS'abalone-1-abalone-6-abalone-8:abalone-2'
p242
F4262.837923893875
sS'abalone-1-abalone-6-abalone-8:abalone-3'
p243
F460.24973130943215
sS'abalone-1-abalone-6-abalone-8:abalone-0'
p244
F11297.99782482567
sS'abalone-0-abalone-1:abalone-3'
p245
F73.1169839018211
sS'abalone-0-abalone-1:abalone-8'
p246
I0
sS'abalone-0-abalone-2-abalone-3-abalone-4-abalone-5-abalone-6-abalone-8:abalone-7'
p247
F153263.08462696802
sS'abalone-0-abalone-2-abalone-3-abalone-4-abalone-5-abalone-6-abalone-8:abalone-1'
p248
F153364.5544756355
sS'abalone-1-abalone-3-abalone-6-abalone-7-abalone-8:abalone-4'
p249
F13835.618704948854
sS'abalone-1-abalone-3-abalone-6-abalone-7-abalone-8:abalone-5'
p250
F14095.767704344169
sS'abalone-1-abalone-3-abalone-6-abalone-7-abalone-8:abalone-2'
p251
F13620.887667285326
sS'abalone-1-abalone-3-abalone-6-abalone-7-abalone-8:abalone-0'
p252
F15940.977144480648
sS'abalone-0-abalone-1-abalone-5-abalone-7:abalone-6'
p253
F2754.098776485584
sS'abalone-0-abalone-1-abalone-5-abalone-7:abalone-4'
p254
F2661.687888065768
sS'abalone-0-abalone-1-abalone-5-abalone-7:abalone-2'
p255
F2704.989597763401
sS'abalone-0-abalone-1-abalone-5-abalone-7:abalone-3'
p256
F1143.4227433730412
sS'abalone-0-abalone-1-abalone-5-abalone-7:abalone-8'
p257
I0
sS'abalone-0-abalone-1-abalone-2-abalone-8:abalone-6'
p258
F6928.095134383096
sS'abalone-0-abalone-1-abalone-2-abalone-8:abalone-7'
p259
F6734.89661682442
sS'abalone-0-abalone-1-abalone-2-abalone-8:abalone-4'
p260
F7334.320458175124
sS'abalone-0-abalone-1-abalone-2-abalone-8:abalone-5'
p261
F7106.602612134741
sS'abalone-0-abalone-1-abalone-2-abalone-8:abalone-3'
p262
F1207.432551418684
sS'abalone-2-abalone-3-abalone-4-abalone-8:abalone-5'
p263
F5963.348035783295
sS'abalone-2-abalone-3-abalone-4-abalone-8:abalone-6'
p264
F6135.353675178702
sS'abalone-2-abalone-3-abalone-4-abalone-8:abalone-7'
p265
F5902.777131461676
sS'abalone-2-abalone-3-abalone-4-abalone-8:abalone-0'
p266
F12063.340165287871
sS'abalone-2-abalone-3-abalone-4-abalone-8:abalone-1'
p267
F5716.539460963219
sS'abalone-0-abalone-3-abalone-4:abalone-8'
p268
I0
sS'abalone-0-abalone-1-abalone-3:abalone-4'
p269
F2474.8066440609036
sS'abalone-0-abalone-3-abalone-4:abalone-6'
p270
F1698.7787451515871
sS'abalone-1-abalone-6-abalone-7-abalone-8:abalone-0'
p271
F12198.09407551403
sS'abalone-1-abalone-6-abalone-7-abalone-8:abalone-3'
p272
F1937.7678353288757
sS'abalone-1-abalone-6-abalone-7-abalone-8:abalone-2'
p273
F6121.471346204885
sS'abalone-1-abalone-6-abalone-7-abalone-8:abalone-5'
p274
F6597.661139834661
sS'abalone-1-abalone-6-abalone-7-abalone-8:abalone-4'
p275
F6338.973563591866
sS'abalone-0-abalone-3-abalone-4:abalone-1'
p276
F2782.3964757278377
sS'abalone-4-abalone-6-abalone-7:abalone-8'
p277
I0
sS'abalone-4-abalone-6-abalone-7:abalone-0'
p278
F4048.7598386608433
sS'abalone-4-abalone-6-abalone-7:abalone-1'
p279
F2951.9886051038034
sS'abalone-4-abalone-6-abalone-7:abalone-2'
p280
F2927.704826374471
sS'abalone-4-abalone-6-abalone-7:abalone-3'
p281
F399.7051481561484
sS'abalone-4-abalone-6-abalone-7:abalone-5'
p282
F1701.9707224917365
sS'abalone-3-abalone-5-abalone-6:abalone-2'
p283
F3255.404865425418
sS'abalone-0-abalone-2-abalone-3-abalone-5-abalone-8:abalone-4'
p284
F10111.021682938233
sS'abalone-0-abalone-2-abalone-3-abalone-5-abalone-8:abalone-7'
p285
F10367.31317760107
sS'abalone-2-abalone-4-abalone-5-abalone-6:abalone-7'
p286
F3746.9844662552614
sS'abalone-0-abalone-2-abalone-3-abalone-5-abalone-8:abalone-1'
p287
F9656.005186288046
sS'abalone-2-abalone-4-abalone-5-abalone-6:abalone-1'
p288
F3671.714798514399
sS'abalone-2-abalone-4-abalone-5-abalone-6:abalone-3'
p289
F1901.1864550901778
sS'abalone-2-abalone-4-abalone-5-abalone-6:abalone-8'
p290
I0
sS'abalone-0-abalone-2-abalone-4-abalone-7:abalone-5'
p291
F2804.7515369126954
sS'abalone-4-abalone-6:abalone-3'
p292
F103.90869106673233
sS'abalone-1-abalone-2-abalone-5-abalone-6-abalone-7:abalone-8'
p293
I0
sS'abalone-1-abalone-4-abalone-5:abalone-8'
p294
I0
sS'abalone-1-abalone-2-abalone-5-abalone-6-abalone-7:abalone-3'
p295
F9395.235923157554
sS'abalone-1-abalone-2-abalone-5-abalone-6-abalone-7:abalone-0'
p296
F9948.08765363587
sS'abalone-1-abalone-4-abalone-5:abalone-6'
p297
F1720.9870395324378
sS'abalone-4-abalone-6:abalone-1'
p298
F2617.851403853659
sS'abalone-1-abalone-2-abalone-5-abalone-6-abalone-7:abalone-4'
p299
F13477.110328618923
sS'abalone-1-abalone-4-abalone-5:abalone-2'
p300
F1672.6234861220655
sS'abalone-4-abalone-6:abalone-0'
p301
F3867.5395617151144
sS'abalone-4-abalone-5-abalone-7:abalone-8'
p302
I0
sS'abalone-4-abalone-5-abalone-7:abalone-6'
p303
F1671.1273000868769
sS'abalone-0-abalone-3-abalone-5-abalone-6-abalone-7-abalone-8:abalone-4'
p304
F33661.23083412681
sS'abalone-0-abalone-3-abalone-5-abalone-6-abalone-7-abalone-8:abalone-2'
p305
F37536.876478907834
sS'abalone-4-abalone-5-abalone-7:abalone-2'
p306
F2929.538531258626
sS'abalone-4-abalone-5-abalone-7:abalone-1'
p307
F2944.0769431541594
sS'abalone-0-abalone-3-abalone-5-abalone-6-abalone-7-abalone-8:abalone-1'
p308
F37575.52188210909
sS'abalone-4-abalone-6:abalone-5'
p309
F1346.4860874603655
sS'abalone-0-abalone-2-abalone-5-abalone-6:abalone-1'
p310
F2704.4671463468426
sS'abalone-0-abalone-2-abalone-5-abalone-6:abalone-3'
p311
F1150.2924857068494
sS'abalone-0-abalone-2-abalone-5-abalone-6:abalone-4'
p312
F2732.7615022809982
sS'abalone-0-abalone-2-abalone-5-abalone-6:abalone-7'
p313
F2952.396475899973
sS'abalone-0-abalone-2-abalone-5-abalone-6:abalone-8'
p314
I0
sS'abalone-0-abalone-1-abalone-3-abalone-5:abalone-2'
p315
F2463.2754829959968
sS'abalone-0-abalone-3-abalone-5:abalone-2'
p316
F3169.192090803529
sS'abalone-1-abalone-3-abalone-7:abalone-8'
p317
I0
sS'abalone-0-abalone-3-abalone-5:abalone-1'
p318
F3154.364592910585
sS'abalone-1-abalone-3-abalone-7:abalone-0'
p319
F4008.876210438865
sS'abalone-1-abalone-3-abalone-7:abalone-2'
p320
F1707.486538740177
sS'abalone-1-abalone-4-abalone-7:abalone-3'
p321
F395.1194563439758
sS'abalone-1-abalone-3-abalone-7:abalone-5'
p322
F2160.7858432134035
sS'abalone-1-abalone-3-abalone-7:abalone-6'
p323
F2022.882233697399
sS'abalone-0-abalone-1-abalone-3-abalone-4-abalone-6-abalone-8:abalone-5'
p324
F33298.100796006984
sS'abalone-0-abalone-1-abalone-3-abalone-4-abalone-6-abalone-8:abalone-7'
p325
F33371.96253825438
sS'abalone-0-abalone-1-abalone-3-abalone-4-abalone-6-abalone-8:abalone-2'
p326
F33366.97869286444
sS'abalone-0-abalone-1-abalone-4:abalone-8'
p327
I0
sS'abalone-1-abalone-4-abalone-7:abalone-2'
p328
F1676.3698404279858
sS'abalone-1-abalone-4-abalone-7:abalone-0'
p329
F3995.378516040563
sS'abalone-1-abalone-4-abalone-7:abalone-6'
p330
F1779.0057776704252
sS'abalone-1-abalone-4-abalone-7:abalone-5'
p331
F1801.9375381256377
sS'abalone-0-abalone-1-abalone-4:abalone-2'
p332
F1481.654267128268
sS'abalone-1-abalone-4-abalone-7:abalone-8'
p333
I0
sS'abalone-0-abalone-1-abalone-4:abalone-5'
p334
F1632.2940600040222
sS'abalone-0-abalone-1-abalone-4:abalone-6'
p335
F1647.9603891298086
sS'abalone-0-abalone-1-abalone-4:abalone-7'
p336
F1651.4051304083462
sS'abalone-0-abalone-2-abalone-4-abalone-7-abalone-8:abalone-1'
p337
F10990.353533606487
sS'abalone-0-abalone-2-abalone-4-abalone-7-abalone-8:abalone-3'
p338
F5678.302690718011
sS'abalone-0-abalone-2-abalone-4-abalone-7-abalone-8:abalone-5'
p339
F11164.315619241423
sS'abalone-0-abalone-2-abalone-4-abalone-7-abalone-8:abalone-6'
p340
F11085.444982394218
sS'abalone-1-abalone-4-abalone-6-abalone-7:abalone-0'
p341
F4964.235110095076
sS'abalone-1-abalone-3-abalone-5-abalone-8:abalone-2'
p342
F5754.402583941274
sS'abalone-1-abalone-3-abalone-4-abalone-5-abalone-7-abalone-8:abalone-0'
p343
F35870.002486102
sS'abalone-1-abalone-3-abalone-5-abalone-8:abalone-0'
p344
F12143.238937898943
sS'abalone-1-abalone-3-abalone-4-abalone-5-abalone-7-abalone-8:abalone-2'
p345
F53363.708999539645
sS'abalone-1-abalone-3-abalone-5-abalone-8:abalone-6'
p346
F6297.529511255699
sS'abalone-1-abalone-3-abalone-5-abalone-8:abalone-7'
p347
F6549.165908462585
sS'abalone-1-abalone-3-abalone-5-abalone-8:abalone-4'
p348
F6391.289865852618
sS'abalone-1-abalone-3-abalone-4-abalone-5-abalone-7-abalone-8:abalone-6'
p349
F53255.71660657813
sS'abalone-4:abalone-0'
p350
F3888.8799678979594
sS'abalone-3-abalone-5-abalone-6-abalone-8:abalone-1'
p351
F10323.678050331144
sS'abalone-3-abalone-5-abalone-6-abalone-8:abalone-0'
p352
F12321.985847880633
sS'abalone-3-abalone-5-abalone-6-abalone-8:abalone-2'
p353
F10328.322201477164
sS'abalone-3-abalone-5-abalone-6-abalone-8:abalone-4'
p354
F6731.9269178099075
sS'abalone-3-abalone-5-abalone-6-abalone-8:abalone-7'
p355
F6426.44458492487
sS'abalone-0-abalone-2-abalone-5:abalone-1'
p356
F1548.743867923189
sS'abalone-1-abalone-5-abalone-6-abalone-7:abalone-4'
p357
F3533.70331316331
sS'abalone-1-abalone-5-abalone-6-abalone-7:abalone-0'
p358
F4970.274842943151
sS'abalone-1-abalone-5-abalone-6-abalone-7:abalone-2'
p359
F3691.6980266997393
sS'abalone-1-abalone-5-abalone-6-abalone-7:abalone-3'
p360
F1895.447375955815
sS'abalone-1-abalone-5-abalone-6-abalone-7:abalone-8'
p361
I0
sS'abalone-0-abalone-1-abalone-2-abalone-5:abalone-3'
p362
F1150.7291494289948
sS'abalone-1-abalone-4-abalone-6-abalone-8:abalone-7'
p363
F5969.469666221931
sS'abalone-1-abalone-4-abalone-6-abalone-8:abalone-5'
p364
F5863.8202840083
sS'abalone-1-abalone-4-abalone-6-abalone-8:abalone-2'
p365
F5932.746699615881
sS'abalone-1-abalone-4-abalone-6-abalone-8:abalone-3'
p366
F1954.1903607361032
sS'abalone-1-abalone-4-abalone-6-abalone-8:abalone-0'
p367
F12152.89405463035
sS'abalone-3-abalone-4:abalone-6'
p368
F1600.1691280405716
sS'abalone-0-abalone-1-abalone-2-abalone-3-abalone-6-abalone-7:abalone-4'
p369
F31191.076616939674
sS'abalone-3-abalone-4:abalone-5'
p370
F1559.2936476223654
sS'abalone-3-abalone-4:abalone-2'
p371
F2652.8718642386116
sS'abalone-3-abalone-4:abalone-0'
p372
F3915.6892842092166
sS'abalone-3-abalone-4:abalone-1'
p373
F2720.052239248423
sS'abalone-3-abalone-4:abalone-8'
p374
I0
sS'abalone-1-abalone-2-abalone-4-abalone-5-abalone-7-abalone-8:abalone-0'
p375
F42051.71674581104
sS'abalone-1-abalone-2-abalone-4-abalone-5-abalone-7-abalone-8:abalone-3'
p376
F46932.39581949763
sS'abalone-1-abalone-2-abalone-4-abalone-5-abalone-7-abalone-8:abalone-6'
p377
F65708.06793365692
sS'abalone-0-abalone-3-abalone-5-abalone-7:abalone-1'
p378
F3874.6588384995466
sS'abalone-0-abalone-3-abalone-5-abalone-7:abalone-2'
p379
F3875.711290903575
sS'abalone-0-abalone-3-abalone-5-abalone-7:abalone-4'
p380
F2683.393192469928
sS'abalone-0-abalone-3-abalone-5-abalone-7:abalone-6'
p381
F2561.9581062840916
sS'abalone-0-abalone-1-abalone-5-abalone-6:abalone-8'
p382
I0
sS'abalone-0-abalone-3-abalone-5-abalone-7:abalone-8'
p383
I0
sS'abalone-0-abalone-1-abalone-5-abalone-6:abalone-4'
p384
F2754.807033995918
sS'abalone-0-abalone-1-abalone-5-abalone-6:abalone-3'
p385
F1150.2006042937232
sS'abalone-0-abalone-1-abalone-5-abalone-6:abalone-2'
p386
F2711.2155998478142
sS'abalone-2-abalone-4-abalone-5-abalone-7:abalone-0'
p387
F4970.286688027044
sS'abalone-2-abalone-3-abalone-4-abalone-5-abalone-6-abalone-7:abalone-8'
p388
F4814.854019296854
sS'abalone-0-abalone-2-abalone-3-abalone-7:abalone-5'
p389
F2901.920719725517
sS'abalone-2-abalone-3-abalone-4-abalone-5-abalone-6-abalone-7:abalone-0'
p390
F28684.429663387826
sS'abalone-2-abalone-3-abalone-4-abalone-5-abalone-6-abalone-7:abalone-1'
p391
F51147.01444532296
sS'abalone-0-abalone-1-abalone-2-abalone-3-abalone-4-abalone-5-abalone-7:abalone-6'
p392
F151077.44069155693
sS'abalone-0-abalone-6-abalone-7-abalone-8:abalone-1'
p393
F9568.33729841378
sS'abalone-0-abalone-6-abalone-7-abalone-8:abalone-2'
p394
F9554.162799668271
sS'abalone-0-abalone-6-abalone-7-abalone-8:abalone-3'
p395
F1197.6206686740275
sS'abalone-0-abalone-6-abalone-7-abalone-8:abalone-4'
p396
F6313.493096630946
sS'abalone-0-abalone-6-abalone-7-abalone-8:abalone-5'
p397
F5987.72861945156
sS'abalone-0-abalone-1-abalone-2-abalone-3-abalone-4-abalone-5-abalone-7:abalone-8'
p398
F112033.06210421502
sS'abalone-0-abalone-1-abalone-3-abalone-4-abalone-6:abalone-2'
p399
F7151.421924652001
sS'abalone-0-abalone-1-abalone-3-abalone-4-abalone-6:abalone-5'
p400
F7162.217519238685
sS'abalone-0-abalone-1-abalone-3-abalone-4-abalone-6:abalone-7'
p401
F7245.000175762669
sS'abalone-0-abalone-1-abalone-3-abalone-4-abalone-6:abalone-8'
p402
I0
sS'abalone-0-abalone-2-abalone-3-abalone-5-abalone-7:abalone-6'
p403
F7244.91309013105
sS'abalone-0-abalone-2-abalone-3-abalone-5-abalone-7:abalone-4'
p404
F7141.503544568722
sS'abalone-0-abalone-2-abalone-3-abalone-5-abalone-7:abalone-1'
p405
F7203.747614164821
sS'abalone-0-abalone-2-abalone-3-abalone-5-abalone-7:abalone-8'
p406
I0
sS'abalone-0-abalone-1-abalone-2-abalone-5-abalone-6-abalone-7:abalone-3'
p407
F28142.98442340938
sS'abalone-3-abalone-5-abalone-7:abalone-8'
p408
I0
sS'abalone-3-abalone-5-abalone-7:abalone-4'
p409
F1956.0681381162885
sS'abalone-0-abalone-2-abalone-5-abalone-6-abalone-8:abalone-1'
p410
F11030.350110473379
sS'abalone-3-abalone-5-abalone-7:abalone-6'
p411
F1818.9196421268625
sS'abalone-0-abalone-2-abalone-5-abalone-6-abalone-8:abalone-3'
p412
F5700.299243949869
sS'abalone-0-abalone-2-abalone-5-abalone-6-abalone-8:abalone-4'
p413
F10969.127626077823
sS'abalone-3-abalone-5-abalone-7:abalone-1'
p414
F3200.0554038091577
sS'abalone-3-abalone-5-abalone-7:abalone-2'
p415
F3205.6920119656133
sS'abalone-0-abalone-2-abalone-5-abalone-6-abalone-8:abalone-7'
p416
F11367.361243374127
sS'abalone-1-abalone-2-abalone-3-abalone-5-abalone-6-abalone-7:abalone-8'
p417
F5171.029368013593
sS'abalone-2-abalone-5-abalone-6-abalone-7:abalone-8'
p418
I0
sS'abalone-0-abalone-5:abalone-1'
p419
F2976.0453402360386
sS'abalone-2-abalone-5-abalone-6-abalone-7:abalone-3'
p420
F1896.8060277440482
sS'abalone-1-abalone-2-abalone-3-abalone-5-abalone-6-abalone-7:abalone-0'
p421
F28695.836153887685
sS'abalone-2-abalone-5-abalone-6-abalone-7:abalone-1'
p422
F3696.9904984645523
sS'abalone-2-abalone-5-abalone-6-abalone-7:abalone-0'
p423
F4966.336402327633
sS'abalone-1-abalone-2-abalone-3-abalone-5-abalone-6-abalone-7:abalone-4'
p424
F50976.07564226812
sS'abalone-2-abalone-5-abalone-6-abalone-7:abalone-4'
p425
F3526.8997672098712
sS'abalone-0-abalone-1-abalone-2-abalone-4-abalone-5-abalone-6-abalone-7-abalone-8:abalone-3'
p426
F758445.7299706925
sS'abalone-0-abalone-2-abalone-4-abalone-6:abalone-5'
p427
F2682.747615826094
sS'abalone-0-abalone-5:abalone-6'
p428
F1689.515738598499
sS'abalone-0-abalone-5:abalone-7'
p429
F1936.750069828608
sS'abalone-0-abalone-5:abalone-8'
p430
I0
sS'abalone-1-abalone-2-abalone-5-abalone-8:abalone-3'
p431
F1959.325076350163
sS'abalone-0-abalone-1-abalone-2-abalone-3-abalone-6-abalone-7:abalone-5'
p432
F31355.145362554034
sS'abalone-1-abalone-2-abalone-5-abalone-8:abalone-0'
p433
F12322.518242550492
sS'abalone-1-abalone-2-abalone-5-abalone-8:abalone-7'
p434
F6900.409900736811
sS'abalone-1-abalone-2-abalone-5-abalone-8:abalone-6'
p435
F6640.606498805695
sS'abalone-1-abalone-2-abalone-5-abalone-8:abalone-4'
p436
F6578.0988303275
sS'abalone-0-abalone-3-abalone-5-abalone-8:abalone-2'
p437
F9741.232161504495
sS'abalone-0-abalone-3-abalone-5-abalone-8:abalone-1'
p438
F9721.260763180813
sS'abalone-0-abalone-3-abalone-5-abalone-8:abalone-7'
p439
F6230.663360155182
sS'abalone-0-abalone-3-abalone-5-abalone-8:abalone-6'
p440
F5873.8591340870535
sS'abalone-0-abalone-3-abalone-5-abalone-8:abalone-4'
p441
F6798.193498898712
sS'abalone-0-abalone-1-abalone-4-abalone-5-abalone-8:abalone-3'
p442
F5695.302055977441
sS'abalone-0-abalone-1-abalone-4-abalone-5-abalone-8:abalone-2'
p443
F10868.355303471144
sS'abalone-0-abalone-1-abalone-4-abalone-5-abalone-8:abalone-7'
p444
F11048.45821051165
sS'abalone-0-abalone-1-abalone-4-abalone-5-abalone-8:abalone-6'
p445
F10898.596574989184
sS'abalone-1-abalone-2:abalone-0'
p446
F3951.0840026359897
sS'abalone-0-abalone-2-abalone-4-abalone-6-abalone-8:abalone-1'
p447
F10975.763252472045
sS'abalone-0-abalone-4-abalone-5-abalone-7-abalone-8:abalone-3'
p448
F5686.373084218745
sS'abalone-0-abalone-4-abalone-5-abalone-7-abalone-8:abalone-2'
p449
F14377.499734568162
sS'abalone-0-abalone-4-abalone-5-abalone-7-abalone-8:abalone-1'
p450
F14434.410157764301
sS'abalone-0-abalone-4-abalone-5-abalone-7-abalone-8:abalone-6'
p451
F10749.879834581663
sS'abalone-0-abalone-1-abalone-2-abalone-5-abalone-7-abalone-8:abalone-4'
p452
F40634.28966110022
sS'abalone-0-abalone-1-abalone-2-abalone-5-abalone-7-abalone-8:abalone-6'
p453
F40992.34702197666
sS'abalone-0-abalone-1-abalone-2-abalone-5-abalone-7-abalone-8:abalone-3'
p454
F28179.160568444346
sS'abalone-1-abalone-2-abalone-3-abalone-7-abalone-8:abalone-0'
p455
F16082.685156218266
sS'abalone-1-abalone-2-abalone-3-abalone-7-abalone-8:abalone-6'
p456
F14464.07653051361
sS'abalone-1-abalone-2-abalone-3-abalone-7-abalone-8:abalone-4'
p457
F14451.097131892353
sS'abalone-1-abalone-2-abalone-3-abalone-7-abalone-8:abalone-5'
p458
F14786.070586509393
sS'abalone-0-abalone-2-abalone-4-abalone-8:abalone-3'
p459
F1197.3000943177956
sS'abalone-0-abalone-2-abalone-4-abalone-8:abalone-1'
p460
F5145.676553603506
sS'abalone-0-abalone-2-abalone-4-abalone-8:abalone-7'
p461
F5301.627849654352
sS'abalone-0-abalone-2-abalone-4-abalone-8:abalone-6'
p462
F5465.489412296952
sS'abalone-0-abalone-2-abalone-4-abalone-8:abalone-5'
p463
F5379.157891483893
sS'abalone-6:abalone-3'
p464
F46.20294474984656
sS'abalone-1-abalone-5-abalone-6-abalone-8:abalone-7'
p465
F6508.9926469375805
sS'abalone-2-abalone-3-abalone-7:abalone-6'
p466
F2010.5657471612578
sS'abalone-2-abalone-3-abalone-7:abalone-5'
p467
F2152.5897463409674
sS'abalone-1-abalone-5-abalone-6-abalone-8:abalone-4'
p468
F6144.655688481153
sS'abalone-1-abalone-5-abalone-6-abalone-8:abalone-3'
p469
F1958.0843665995703
sS'abalone-1-abalone-5-abalone-6-abalone-8:abalone-2'
p470
F6096.238861740658
sS'abalone-2-abalone-3-abalone-7:abalone-1'
p471
F1693.6538337112888
sS'abalone-1-abalone-5-abalone-6-abalone-8:abalone-0'
p472
F12209.498143561226
sS'abalone-2-abalone-3-abalone-7:abalone-8'
p473
I0
sS'abalone-6:abalone-5'
p474
F1795.3625974474667
sS'abalone-6:abalone-4'
p475
F2241.5658621475045
sS'abalone-4-abalone-7:abalone-8'
p476
I0
sS'abalone-4-abalone-7:abalone-2'
p477
F2589.6618199798377
sS'abalone-4-abalone-7:abalone-3'
p478
F99.89052109091062
sS'abalone-4-abalone-7:abalone-0'
p479
F3884.9849181439804
sS'abalone-4-abalone-7:abalone-1'
p480
F2629.6792886190215
sS'abalone-4-abalone-7:abalone-6'
p481
F1456.696461185642
sS'abalone-4-abalone-7:abalone-5'
p482
F1487.5398835904998
sS'abalone-0-abalone-3-abalone-4-abalone-5-abalone-6-abalone-8:abalone-1'
p483
F36966.258579637884
sS'abalone-0-abalone-3-abalone-4-abalone-5-abalone-6-abalone-8:abalone-2'
p484
F36912.111119415116
sS'abalone-0-abalone-1-abalone-2-abalone-3-abalone-4-abalone-5-abalone-6-abalone-8:abalone-7'
p485
F808456.2498499774
sS'abalone-0-abalone-3-abalone-4-abalone-5-abalone-6-abalone-8:abalone-7'
p486
F33422.63247458935
sS'abalone-0-abalone-2-abalone-3-abalone-4-abalone-5-abalone-6-abalone-7-abalone-8:abalone-1'
p487
F808557.7196986441
sS'abalone-0-abalone-1-abalone-7:abalone-6'
p488
F1861.185587756521
sS'abalone-0-abalone-1-abalone-7:abalone-5'
p489
F2009.3577876332563
sS'abalone-0-abalone-1-abalone-7:abalone-4'
p490
F1890.6514146480474
sS'abalone-0-abalone-1-abalone-7:abalone-3'
p491
F244.53980304872667
sS'abalone-0-abalone-1-abalone-7:abalone-2'
p492
F1582.695370190613
sS'abalone-0-abalone-1-abalone-7:abalone-8'
p493
I0
sS'abalone-0-abalone-2-abalone-3-abalone-4-abalone-5-abalone-6:abalone-7'
p494
F31210.381199838677
sS'abalone-1-abalone-6-abalone-7:abalone-8'
p495
I0
sS'abalone-0-abalone-2-abalone-3-abalone-4-abalone-5-abalone-6:abalone-1'
p496
F31149.776066665996
sS'abalone-1-abalone-6-abalone-7:abalone-5'
p497
F1930.772967400298
sS'abalone-1-abalone-6-abalone-7:abalone-4'
p498
F1811.8699225025189
sS'abalone-1-abalone-6-abalone-7:abalone-0'
p499
F3998.7768339811296
sS'abalone-1-abalone-6-abalone-7:abalone-3'
p500
F396.1370725318693
sS'abalone-0-abalone-2-abalone-3-abalone-4-abalone-5-abalone-6:abalone-8'
p501
I0
sS'abalone-1-abalone-3:abalone-2'
p502
F1534.088368298644
sS'abalone-1-abalone-3:abalone-0'
p503
F3994.233931006943
sS'abalone-1-abalone-3:abalone-7'
p504
F2216.1765394787158
sS'abalone-1-abalone-3:abalone-6'
p505
F2259.8911813788595
sS'abalone-1-abalone-3:abalone-5'
p506
F2285.776948936445
sS'abalone-1-abalone-3:abalone-4'
p507
F2491.007054379226
sS'abalone-1-abalone-4-abalone-5-abalone-8:abalone-0'
p508
F12235.703067748134
sS'abalone-1-abalone-4-abalone-5-abalone-8:abalone-3'
p509
F1952.9602094420457
sS'abalone-1-abalone-3:abalone-8'
p510
I0
sS'abalone-1-abalone-4-abalone-5-abalone-8:abalone-7'
p511
F6157.664632869695
sS'abalone-1-abalone-4-abalone-5-abalone-8:abalone-6'
p512
F6045.77117672671
sS'abalone-1-abalone-5-abalone-7:abalone-2'
p513
F1727.360560670977
sS'abalone-1-abalone-5-abalone-7:abalone-3'
p514
F395.7111930307201
sS'abalone-1-abalone-5-abalone-7:abalone-0'
p515
F4008.619544840709
sS'abalone-1-abalone-5-abalone-7:abalone-6'
p516
F1792.443478383142
sS'abalone-1-abalone-5-abalone-7:abalone-4'
p517
F1696.4721939405772
sS'abalone-1-abalone-5-abalone-7:abalone-8'
p518
I0
sS'abalone-1-abalone-3-abalone-4-abalone-5-abalone-6-abalone-7:abalone-0'
p519
F28687.637666433788
sS'abalone-0-abalone-4-abalone-7-abalone-8:abalone-6'
p520
F5242.084234679692
sS'abalone-0:abalone-1'
p521
F3862.339531250711
sS'abalone-0-abalone-4-abalone-7-abalone-8:abalone-5'
p522
F5336.138486095525
sS'abalone-0-abalone-4-abalone-7-abalone-8:abalone-2'
p523
F8549.322601422271
sS'abalone-0-abalone-4-abalone-7-abalone-8:abalone-3'
p524
F1188.1581110782192
sS'abalone-0-abalone-4-abalone-7-abalone-8:abalone-1'
p525
F8668.454989456324
sS'abalone-2-abalone-5-abalone-6:abalone-8'
p526
I0
sS'abalone-2-abalone-5-abalone-6:abalone-4'
p527
F1769.539906939296
sS'abalone-2-abalone-5-abalone-6:abalone-7'
p528
F1989.6246059846753
sS'abalone-2-abalone-5-abalone-6:abalone-0'
p529
F4003.5645324123448
sS'abalone-2-abalone-5-abalone-6:abalone-1'
p530
F1723.704457292929
sS'abalone-2-abalone-5-abalone-6:abalone-3'
p531
F402.96576542821776
sS'abalone-0-abalone-1-abalone-4-abalone-6-abalone-8:abalone-7'
p532
F10890.746047344544
sS'abalone-0-abalone-1-abalone-4-abalone-6-abalone-8:abalone-5'
p533
F10799.454695388562
sS'abalone-0-abalone-1-abalone-4-abalone-6-abalone-8:abalone-2'
p534
F10867.715103588127
sS'abalone-0-abalone-1-abalone-4-abalone-6-abalone-8:abalone-3'
p535
F5696.379660563484
sS'abalone-2-abalone-3-abalone-6-abalone-7:abalone-1'
p536
F3233.794197538572
sS'abalone-2-abalone-3-abalone-6-abalone-7:abalone-0'
p537
F4743.29890578545
sS'abalone-2-abalone-3-abalone-6-abalone-7:abalone-5'
p538
F3424.633232354913
sS'abalone-2-abalone-3-abalone-6-abalone-7:abalone-4'
p539
F3284.806698816693
sS'abalone-2-abalone-3-abalone-6-abalone-7:abalone-8'
p540
I0
sS'abalone-2-abalone-6:abalone-8'
p541
I0
sS'abalone-2-abalone-6:abalone-1'
p542
F1372.9353348745353
sS'abalone-2-abalone-6:abalone-0'
p543
F3829.8330950270124
sS'abalone-2-abalone-6:abalone-3'
p544
F103.7243116166868
sS'abalone-2-abalone-6:abalone-5'
p545
F1609.5859880340104
sS'abalone-2-abalone-6:abalone-4'
p546
F1679.4455514884612
sS'abalone-2-abalone-6:abalone-7'
p547
F1673.8710744154723
sS'abalone-1-abalone-2-abalone-4-abalone-5-abalone-7:abalone-6'
p548
F13612.694872366308
sS'abalone-1-abalone-2-abalone-4-abalone-5-abalone-7:abalone-0'
p549
F9950.783840004055
sS'abalone-1-abalone-2-abalone-3-abalone-5-abalone-7:abalone-8'
p550
I0
sS'abalone-1-abalone-2-abalone-3-abalone-5-abalone-7:abalone-6'
p551
F11256.524003019576
sS'abalone-1-abalone-2-abalone-3-abalone-5-abalone-7:abalone-4'
p552
F11120.015418033909
sS'abalone-1-abalone-2-abalone-4-abalone-5-abalone-7:abalone-8'
p553
I0
sS'abalone-1-abalone-2-abalone-3-abalone-5-abalone-7:abalone-0'
p554
F8733.988929561736
sS'abalone-1-abalone-3-abalone-4-abalone-7:abalone-0'
p555
F4743.254377655051
sS'abalone-1-abalone-3-abalone-4-abalone-7:abalone-2'
p556
F3176.1253739903213
sS'abalone-1-abalone-3-abalone-4-abalone-7:abalone-5'
p557
F3301.375305686667
sS'abalone-1-abalone-3-abalone-4-abalone-7:abalone-6'
p558
F3278.820735659968
sS'abalone-1-abalone-3-abalone-4-abalone-7:abalone-8'
p559
I0
sS'abalone-2-abalone-7-abalone-8:abalone-0'
p560
F11405.21403881756
sS'abalone-2-abalone-7-abalone-8:abalone-1'
p561
F4298.849550751302
sS'abalone-2-abalone-7-abalone-8:abalone-3'
p562
F445.14773928585146
sS'abalone-2-abalone-7-abalone-8:abalone-4'
p563
F5193.931870229324
sS'abalone-2-abalone-7-abalone-8:abalone-5'
p564
F5499.093900981748
sS'abalone-2-abalone-7-abalone-8:abalone-6'
p565
F5136.902906791842
sS'abalone-0-abalone-3-abalone-6-abalone-8:abalone-4'
p566
F7191.321272589965
sS'abalone-1-abalone-4-abalone-5-abalone-7:abalone-3'
p567
F1894.5572239050052
sS'abalone-1-abalone-4-abalone-6-abalone-7-abalone-8:abalone-5'
p568
F15762.160360177835
sS'abalone-1-abalone-4-abalone-6-abalone-7-abalone-8:abalone-0'
p569
F17074.17043575299
sS'abalone-1-abalone-4-abalone-6-abalone-7-abalone-8:abalone-3'
p570
F9434.412976685868
sS'abalone-1-abalone-4-abalone-6-abalone-7-abalone-8:abalone-2'
p571
F15874.109762750864
sS'abalone-0-abalone-2-abalone-5-abalone-6-abalone-7-abalone-8:abalone-4'
p572
F40383.82571429935
sS'abalone-0-abalone-2-abalone-5-abalone-6-abalone-7-abalone-8:abalone-3'
p573
F28183.083607865236
sS'abalone-0-abalone-1-abalone-4-abalone-5-abalone-6-abalone-7-abalone-8:abalone-2'
p574
F190738.49628642155
sS'abalone-0-abalone-2-abalone-5-abalone-6-abalone-7-abalone-8:abalone-1'
p575
F40953.62180559099
sS'abalone-0-abalone-4-abalone-6-abalone-7:abalone-5'
p576
F2683.305103513434
sS'abalone-0-abalone-4-abalone-6-abalone-7:abalone-1'
p577
F3867.463876538036
sS'abalone-0-abalone-4-abalone-6-abalone-7:abalone-2'
p578
F3840.657037305373
sS'abalone-0-abalone-1-abalone-2-abalone-3-abalone-8:abalone-4'
p579
F11823.327631663102
sS'abalone-2-abalone-5-abalone-7-abalone-8:abalone-1'
p580
F6088.696962389989
sS'abalone-2-abalone-5-abalone-7-abalone-8:abalone-0'
p581
F12239.970167057607
sS'abalone-2-abalone-5-abalone-7-abalone-8:abalone-3'
p582
F1940.6362291927815
sS'abalone-2-abalone-3-abalone-7:abalone-4'
p583
F2000.8200382565722
sS'abalone-2-abalone-5-abalone-7-abalone-8:abalone-4'
p584
F5934.150125049265
sS'abalone-2-abalone-5-abalone-7-abalone-8:abalone-6'
p585
F6208.874427321977
sS'abalone-3-abalone-4-abalone-6-abalone-8:abalone-7'
p586
F5649.633598027792
sS'abalone-1-abalone-7-abalone-8:abalone-6'
p587
F5171.682770759487
sS'abalone-1-abalone-7-abalone-8:abalone-5'
p588
F5533.468594712557
sS'abalone-1-abalone-7-abalone-8:abalone-4'
p589
F5340.853988846217
sS'abalone-1-abalone-7-abalone-8:abalone-3'
p590
F439.3560408726062
sS'abalone-1-abalone-7-abalone-8:abalone-2'
p591
F4327.4522147079215
sS'abalone-1-abalone-7-abalone-8:abalone-0'
p592
F11421.17274781557
sS'abalone-1-abalone-3-abalone-4-abalone-6-abalone-8:abalone-0'
p593
F15895.083354457734
sS'abalone-1-abalone-3-abalone-4-abalone-6-abalone-8:abalone-2'
p594
F13431.855005213647
sS'abalone-1-abalone-3-abalone-4-abalone-6-abalone-8:abalone-5'
p595
F13362.427087121232
sS'abalone-1-abalone-3-abalone-4-abalone-6-abalone-8:abalone-7'
p596
F13449.692282171685
sS'abalone-1-abalone-3-abalone-5:abalone-6'
p597
F1886.7698944517156
sS'abalone-0-abalone-4-abalone-5-abalone-6-abalone-8:abalone-2'
p598
F14416.847699940201
sS'abalone-0-abalone-4-abalone-5-abalone-6-abalone-8:abalone-3'
p599
F5699.886805731375
sS'abalone-0-abalone-4-abalone-5-abalone-6-abalone-8:abalone-1'
p600
F14471.11962418734
sS'abalone-0-abalone-4-abalone-5-abalone-6-abalone-8:abalone-7'
p601
F10936.450936527168
sS'abalone-0:abalone-8'
p602
I0
sS'abalone-3-abalone-4-abalone-7:abalone-8'
p603
I0
sS'abalone-3-abalone-4-abalone-7:abalone-5'
p604
F1786.9780390510223
sS'abalone-1-abalone-3-abalone-5:abalone-2'
p605
F1689.508707169061
sS'abalone-0:abalone-3'
p606
F40.52254195382011
sS'abalone-3-abalone-4-abalone-7:abalone-6'
p607
F1756.5110882508798
sS'abalone-3-abalone-4-abalone-7:abalone-1'
p608
F2924.9082238720894
sS'abalone-3-abalone-4-abalone-7:abalone-0'
p609
F4031.321035009918
sS'abalone-0:abalone-7'
p610
F2859.6728474980428
sS'abalone-3-abalone-4-abalone-7:abalone-2'
p611
F2884.8322048159534
sS'abalone-0-abalone-1-abalone-3-abalone-6-abalone-7:abalone-4'
p612
F7276.303913959535
sS'abalone-0-abalone-1-abalone-3-abalone-6-abalone-7:abalone-5'
p613
F7401.645259272253
sS'abalone-0-abalone-1-abalone-3-abalone-6-abalone-7:abalone-2'
p614
F7215.843371334166
sS'abalone-0-abalone-1-abalone-3-abalone-6-abalone-7:abalone-8'
p615
I0
sS'abalone-0-abalone-1-abalone-3-abalone-4-abalone-5-abalone-7:abalone-8'
p616
I0
sS'abalone-0-abalone-4-abalone-6:abalone-2'
p617
F2697.601195342543
sS'abalone-0-abalone-1-abalone-3-abalone-4-abalone-5-abalone-7:abalone-2'
p618
F31128.83817200744
sS'abalone-0-abalone-4-abalone-6:abalone-1'
p619
F2732.964806418605
sS'abalone-0-abalone-1-abalone-3-abalone-4-abalone-5-abalone-7:abalone-6'
p620
F31095.503275796913
sS'abalone-0-abalone-3-abalone-4-abalone-6-abalone-8:abalone-1'
p621
F13168.878884869602
sS'abalone-0-abalone-3-abalone-4-abalone-6-abalone-8:abalone-2'
p622
F13060.95569729665
sS'abalone-0-abalone-2-abalone-3-abalone-4-abalone-6-abalone-8:abalone-1'
p623
F33474.90188043738
sS'abalone-0-abalone-2-abalone-3-abalone-4-abalone-6-abalone-8:abalone-7'
p624
F33402.54117093051
sS'abalone-0-abalone-3-abalone-4-abalone-6-abalone-8:abalone-7'
p625
F9580.700889874088
sS'abalone-0-abalone-4-abalone-6:abalone-7'
p626
F1616.808042884047
sS'abalone-0-abalone-3:abalone-7'
p627
F2890.434009190281
sS'abalone-0-abalone-1-abalone-4-abalone-5-abalone-6-abalone-8:abalone-7'
p628
F40777.4563694569
sS'abalone-0-abalone-3:abalone-2'
p629
F3900.9053536653223
sS'abalone-0-abalone-1-abalone-4-abalone-5-abalone-6-abalone-8:abalone-3'
p630
F28195.025761181932
sS'abalone-0-abalone-1-abalone-4-abalone-5-abalone-6-abalone-8:abalone-2'
p631
F40811.14685291356
sS'abalone-0-abalone-2-abalone-5-abalone-6-abalone-7:abalone-4'
p632
F8497.101878119638
sS'abalone-0-abalone-3:abalone-1'
p633
F3894.933973198709
sS'abalone-0-abalone-1-abalone-2-abalone-6-abalone-7-abalone-8:abalone-3'
p634
F28180.198103010734
sS'abalone-0-abalone-3:abalone-6'
p635
F2958.886975544559
sS'abalone-0-abalone-1-abalone-2-abalone-6-abalone-7-abalone-8:abalone-5'
p636
F41365.02231275279
sS'abalone-0-abalone-1-abalone-2-abalone-6-abalone-7-abalone-8:abalone-4'
p637
F40962.133383407694
sS'abalone-0-abalone-3:abalone-5'
p638
F3046.10490387649
sS'abalone-4-abalone-6:abalone-7'
p639
F1435.5877659383204
sS'abalone-0-abalone-3-abalone-6-abalone-7-abalone-8:abalone-5'
p640
F10484.644023621178
sS'abalone-0-abalone-3-abalone-6-abalone-7-abalone-8:abalone-4'
p641
F10803.222171794012
sS'abalone-0-abalone-3-abalone-6-abalone-7-abalone-8:abalone-2'
p642
F14041.345776256949
sS'abalone-0-abalone-3-abalone-6-abalone-7-abalone-8:abalone-1'
p643
F14051.36753403526
sS'abalone-1-abalone-3-abalone-4-abalone-6:abalone-8'
p644
I0
sS'abalone-1-abalone-3-abalone-4-abalone-6:abalone-0'
p645
F4730.077509418849
sS'abalone-1-abalone-3-abalone-4-abalone-6:abalone-2'
p646
F3169.0326414857554
sS'abalone-1-abalone-3-abalone-4-abalone-6:abalone-5'
p647
F3181.368207921216
sS'abalone-1-abalone-3-abalone-4-abalone-6:abalone-7'
p648
F3263.023770800937
sS'abalone-2-abalone-4-abalone-6-abalone-7:abalone-3'
p649
F1894.8738460681288
sS'abalone-2-abalone-4-abalone-6-abalone-7:abalone-0'
p650
F4961.712049591741
sS'abalone-2-abalone-4-abalone-6-abalone-7:abalone-1'
p651
F3676.262578132571
sS'abalone-2-abalone-4-abalone-6-abalone-7:abalone-5'
p652
F3664.7941190721695
sS'abalone-2-abalone-4-abalone-6-abalone-7:abalone-8'
p653
I0
sS'abalone-0-abalone-2-abalone-3-abalone-4-abalone-7:abalone-6'
p654
F7263.25430689035
sS'abalone-0-abalone-2-abalone-3-abalone-4-abalone-7-abalone-8:abalone-1'
p655
F33489.90591553861
sS'abalone-0-abalone-2-abalone-3-abalone-4-abalone-7-abalone-8:abalone-6'
p656
F33584.60466472956
sS'abalone-0-abalone-2-abalone-3-abalone-4-abalone-7-abalone-8:abalone-5'
p657
F33662.52545074083
sS'abalone-0-abalone-2-abalone-3-abalone-4-abalone-7:abalone-8'
p658
I0
sS'abalone-2-abalone-3-abalone-5-abalone-7-abalone-8:abalone-6'
p659
F13708.178148632263
sS'abalone-2-abalone-3-abalone-5-abalone-7-abalone-8:abalone-4'
p660
F13426.458731543546
sS'abalone-2-abalone-3-abalone-5-abalone-7-abalone-8:abalone-0'
p661
F15983.096838692989
sS'abalone-2-abalone-3-abalone-5-abalone-7-abalone-8:abalone-1'
p662
F13583.999535238328
sS'abalone-1-abalone-7:abalone-4'
p663
F1756.443875208758
sS'abalone-1-abalone-2-abalone-3-abalone-4-abalone-7-abalone-8:abalone-0'
p664
F35873.020742737484
sS'abalone-1-abalone-2-abalone-3-abalone-4-abalone-7-abalone-8:abalone-6'
p665
F53601.0805244297
sS'abalone-1-abalone-2-abalone-3-abalone-4-abalone-7-abalone-8:abalone-5'
p666
F53596.38175484626
sS'abalone-1-abalone-2-abalone-3-abalone-8:abalone-0'
p667
F12412.469016454002
sS'abalone-0-abalone-1-abalone-3-abalone-5-abalone-6:abalone-2'
p668
F7211.015448081123
sS'abalone-1-abalone-2-abalone-3-abalone-8:abalone-5'
p669
F7948.445910969748
sS'abalone-1-abalone-2-abalone-3-abalone-8:abalone-4'
p670
F8244.179759600089
sS'abalone-1-abalone-2-abalone-3-abalone-8:abalone-7'
p671
F7539.39895088809
sS'abalone-1-abalone-2-abalone-3-abalone-8:abalone-6'
p672
F7866.5835154534825
sS'abalone-0-abalone-1-abalone-3-abalone-5-abalone-6:abalone-8'
p673
I0
sS'abalone-0-abalone-3-abalone-4-abalone-5:abalone-7'
p674
F2566.852088500374
sS'abalone-3-abalone-4-abalone-5-abalone-6-abalone-7:abalone-2'
p675
F12385.696093232373
sS'abalone-3-abalone-4-abalone-5-abalone-6-abalone-7:abalone-0'
p676
F8776.4404445667
sS'abalone-3-abalone-4-abalone-5-abalone-6-abalone-7:abalone-1'
p677
F12397.853111193983
sS'abalone-3-abalone-4-abalone-5-abalone-6-abalone-7:abalone-8'
p678
I0
sS'abalone-0-abalone-3-abalone-4-abalone-5:abalone-1'
p679
F3625.5536487025706
sS'abalone-0-abalone-4-abalone-5:abalone-6'
p680
F1542.1817734981303
sS'abalone-0-abalone-4-abalone-5:abalone-7'
p681
F1671.4763229621747
sS'abalone-0-abalone-4-abalone-5:abalone-1'
p682
F2727.1568830097385
sS'abalone-0-abalone-4-abalone-5:abalone-2'
p683
F2697.2391322742897
sS'abalone-0-abalone-4-abalone-5:abalone-3'
p684
F250.2793352423048
sS'abalone-0-abalone-3-abalone-4-abalone-8:abalone-2'
p685
F8492.470871860614
sS'abalone-0-abalone-3-abalone-4-abalone-8:abalone-1'
p686
F8683.127126408412
sS'abalone-0-abalone-3-abalone-4-abalone-8:abalone-6'
p687
F5396.209114417594
sS'abalone-0-abalone-3-abalone-4-abalone-8:abalone-7'
p688
F5235.63413685311
sS'abalone-0-abalone-1-abalone-6:abalone-3'
p689
F250.92386454460112
sS'abalone-0-abalone-3-abalone-4-abalone-8:abalone-5'
p690
F5315.705408581191
sS'abalone-0-abalone-1-abalone-3-abalone-6-abalone-8:abalone-5'
p691
F10298.631638193605
sS'abalone-0-abalone-1-abalone-3-abalone-6-abalone-8:abalone-4'
p692
F10519.21199094154
sS'abalone-0-abalone-1-abalone-3-abalone-6-abalone-8:abalone-7'
p693
F10179.179358187273
sS'abalone-0-abalone-2-abalone-6-abalone-7:abalone-8'
p694
I0
sS'abalone-0-abalone-1-abalone-3-abalone-6-abalone-8:abalone-2'
p695
F9690.289492221214
sS'abalone-0-abalone-2-abalone-6-abalone-7:abalone-4'
p696
F2753.5058637402963
sS'abalone-0-abalone-2-abalone-6-abalone-7:abalone-5'
p697
F2896.0245683384837
sS'abalone-0-abalone-2-abalone-6-abalone-7:abalone-3'
p698
F1145.159867185441
sS'abalone-0-abalone-2-abalone-6-abalone-7:abalone-1'
p699
F2718.981503086161
sS'abalone-2-abalone-3-abalone-4-abalone-5-abalone-7-abalone-8:abalone-6'
p700
F53262.99570975977
sS'abalone-2-abalone-3-abalone-4-abalone-5-abalone-7-abalone-8:abalone-0'
p701
F35868.2076270174
sS'abalone-2-abalone-3-abalone-4-abalone-5-abalone-7-abalone-8:abalone-1'
p702
F53418.94910392396
sS'abalone-0-abalone-1-abalone-3:abalone-5'
p703
F2305.535523588358
sS'abalone-0-abalone-1-abalone-2:abalone-6'
p704
F2172.633123470126
sS'abalone-1-abalone-2-abalone-4-abalone-5-abalone-6-abalone-8:abalone-0'
p705
F42021.955499048614
sS'abalone-1-abalone-2-abalone-4-abalone-5-abalone-6-abalone-8:abalone-3'
p706
F46951.90240000622
sS'abalone-1-abalone-2-abalone-4-abalone-5-abalone-6-abalone-8:abalone-7'
p707
F65806.68597174466
sS'abalone-0-abalone-1-abalone-6:abalone-7'
p708
F1851.4626085379227
sS'abalone-1-abalone-3-abalone-4-abalone-6-abalone-7-abalone-8:abalone-5'
p709
F53260.67892559996
sS'abalone-1-abalone-3-abalone-4-abalone-6-abalone-7-abalone-8:abalone-2'
p710
F53373.370088144904
sS'abalone-1-abalone-3-abalone-4-abalone-6-abalone-7-abalone-8:abalone-0'
p711
F35817.35361054041
sS'abalone-2:abalone-7'
p712
F2158.566342751911
sS'abalone-2:abalone-6'
p713
F2196.4902441759195
sS'abalone-2:abalone-5'
p714
F2229.800890583182
sS'abalone-2:abalone-4'
p715
F2349.273075100479
sS'abalone-2:abalone-3'
p716
F45.653331685266835
sS'abalone-2:abalone-1'
p717
F1456.2389893002735
sS'abalone-2:abalone-0'
p718
F3954.327306740226
sS'abalone-2:abalone-8'
p719
I0
sS'abalone-1-abalone-4:abalone-8'
p720
I0
sS'abalone-0-abalone-2-abalone-4-abalone-5-abalone-6-abalone-7:abalone-1'
p721
F38626.29132140162
sS'abalone-1-abalone-4:abalone-0'
p722
F3830.54756901005
sS'abalone-1-abalone-4:abalone-2'
p723
F1300.3730144549245
sS'abalone-0-abalone-2-abalone-4-abalone-5-abalone-6-abalone-7:abalone-8'
p724
I0
sS'abalone-1-abalone-4:abalone-5'
p725
F1456.7400347774565
sS'abalone-1-abalone-4:abalone-6'
p726
F1495.854993859797
sS'abalone-1-abalone-4:abalone-7'
p727
F1486.5741833778338
sS'abalone-0-abalone-2-abalone-3-abalone-5-abalone-6-abalone-7-abalone-8:abalone-1'
p728
F153449.0158075924
sS'abalone-0-abalone-2-abalone-3-abalone-5-abalone-6-abalone-7-abalone-8:abalone-4'
p729
F152876.91762701297
sS'abalone-1-abalone-2-abalone-3-abalone-4-abalone-7:abalone-8'
p730
I0
sS'abalone-1-abalone-2-abalone-3-abalone-4-abalone-7:abalone-6'
p731
F11254.427439677569
sS'abalone-1-abalone-2-abalone-4-abalone-7-abalone-8:abalone-0'
p732
F17129.363703687523
sS'abalone-1-abalone-2-abalone-4-abalone-7-abalone-8:abalone-3'
p733
F9434.19803360019
sS'abalone-1-abalone-2-abalone-3-abalone-4-abalone-7:abalone-5'
p734
F11277.08935710554
sS'abalone-1-abalone-2-abalone-4-abalone-7-abalone-8:abalone-5'
p735
F16098.183968948762
sS'abalone-1-abalone-2-abalone-3-abalone-4-abalone-7:abalone-0'
p736
F8722.224791601642
sS'abalone-1-abalone-2-abalone-4-abalone-7-abalone-8:abalone-6'
p737
F16101.605255949982
sS'abalone-5:abalone-8'
p738
I0
sS'abalone-5:abalone-4'
p739
F2167.851447446441
sS'abalone-5:abalone-6'
p740
F1762.1090007229377
sS'abalone-5:abalone-7'
p741
F2014.203302394295
sS'abalone-5:abalone-0'
p742
F4013.901324228825
sS'abalone-5:abalone-1'
p743
F3123.3713345659535
sS'abalone-5:abalone-2'
p744
F3143.5992619866392
sS'abalone-5:abalone-3'
p745
F46.090006660335696
sS'abalone-0-abalone-2-abalone-6:abalone-8'
p746
I0
sS'abalone-0-abalone-2-abalone-3-abalone-5:abalone-4'
p747
F2656.256149637789
sS'abalone-0-abalone-2-abalone-6:abalone-1'
p748
F1553.6327762034614
sS'abalone-0-abalone-2-abalone-6:abalone-3'
p749
F251.01241758551555
sS'abalone-0-abalone-2-abalone-6:abalone-5'
p750
F1783.317425419346
sS'abalone-0-abalone-2-abalone-6:abalone-4'
p751
F1833.331311874254
sS'abalone-0-abalone-2-abalone-6:abalone-7'
p752
F1839.6893329808358
sS'abalone-1-abalone-2-abalone-5:abalone-6'
p753
F1930.4623958388722
sS'abalone-0-abalone-4-abalone-5-abalone-6:abalone-8'
p754
I0
sS'abalone-1-abalone-2-abalone-5:abalone-4'
p755
F1946.5555312489207
sS'abalone-0-abalone-2-abalone-3-abalone-4:abalone-8'
p756
I0
sS'abalone-0-abalone-4-abalone-5-abalone-6:abalone-2'
p757
F3848.0254433874175
sS'abalone-1-abalone-3-abalone-8:abalone-2'
p758
F4653.253736378764
sS'abalone-0-abalone-2-abalone-3-abalone-4:abalone-6'
p759
F2577.5737877557217
sS'abalone-1-abalone-3-abalone-8:abalone-0'
p760
F11778.195579237414
sS'abalone-1-abalone-3-abalone-8:abalone-7'
p761
F6365.7469852794175
sS'abalone-1-abalone-3-abalone-8:abalone-6'
p762
F6757.7311638498
sS'abalone-1-abalone-3-abalone-8:abalone-5'
p763
F6847.297063407256
sS'abalone-1-abalone-3-abalone-8:abalone-4'
p764
F7374.885639958117
sS'abalone-0-abalone-1-abalone-3-abalone-5-abalone-6-abalone-8:abalone-4'
p765
F33518.68114875487
sS'abalone-0-abalone-1-abalone-3-abalone-5-abalone-6-abalone-8:abalone-7'
p766
F33889.34609168862
sS'abalone-0-abalone-1-abalone-3-abalone-5-abalone-6-abalone-8:abalone-2'
p767
F33530.03430816247
sS'abalone-0-abalone-1-abalone-5-abalone-6-abalone-7:abalone-2'
p768
F8669.510837392461
sS'abalone-0-abalone-1-abalone-5-abalone-6-abalone-7:abalone-3'
p769
F5643.151786185887
sS'abalone-0-abalone-1-abalone-4-abalone-8:abalone-5'
p770
F5283.604014417837
sS'abalone-0-abalone-1-abalone-4-abalone-8:abalone-6'
p771
F5382.745894018473
sS'abalone-0-abalone-1-abalone-4-abalone-8:abalone-7'
p772
F5229.968570525987
sS'abalone-0-abalone-1-abalone-4-abalone-8:abalone-2'
p773
F4954.884886441093
sS'abalone-0-abalone-1-abalone-4-abalone-8:abalone-3'
p774
F1197.1646817031815
sS'abalone-2-abalone-3-abalone-5-abalone-6:abalone-8'
p775
I0
sS'abalone-2-abalone-3-abalone-5-abalone-6:abalone-7'
p776
F3483.4648683005103
sS'abalone-2-abalone-3-abalone-5-abalone-6:abalone-4'
p777
F3267.760596601252
sS'abalone-2-abalone-3-abalone-5-abalone-6:abalone-1'
p778
F3223.352000675103
sS'abalone-2-abalone-3-abalone-5-abalone-6:abalone-0'
p779
F4750.89125269098
sS'abalone-4-abalone-5-abalone-6:abalone-7'
p780
F1791.0724009696842
sS'abalone-4-abalone-5-abalone-6:abalone-2'
p781
F2934.616157669331
sS'abalone-4-abalone-5-abalone-6:abalone-3'
p782
F403.4047912464797
sS'abalone-4-abalone-5-abalone-6:abalone-0'
p783
F4053.376842035965
sS'abalone-4-abalone-5-abalone-6:abalone-1'
p784
F2953.2373968433926
sS'abalone-4-abalone-5-abalone-6:abalone-8'
p785
I0
sS'abalone-0-abalone-1-abalone-3-abalone-4:abalone-6'
p786
F2547.7392010303424
sS'abalone-1-abalone-2-abalone-3-abalone-6-abalone-8:abalone-0'
p787
F15968.091577177493
sS'abalone-1-abalone-2-abalone-3-abalone-6-abalone-8:abalone-7'
p788
F14136.891965948234
sS'abalone-1-abalone-2-abalone-3-abalone-6-abalone-8:abalone-5'
p789
F14220.48558185237
sS'abalone-1-abalone-2-abalone-3-abalone-6-abalone-8:abalone-4'
p790
F14333.785726653732
sS'abalone-3-abalone-4-abalone-5-abalone-6-abalone-7-abalone-8:abalone-2'
p791
F57030.77901224371
sS'abalone-3-abalone-4-abalone-5-abalone-6-abalone-7-abalone-8:abalone-0'
p792
F36017.92685109094
sS'abalone-3-abalone-4-abalone-5-abalone-6-abalone-7-abalone-8:abalone-1'
p793
F57078.74001344638
sS'abalone-4:abalone-5'
p794
F1499.8739530449893
sS'abalone-4:abalone-7'
p795
F1519.2260757742042
sS'abalone-4:abalone-6'
p796
F1540.3347710215312
sS'abalone-4:abalone-1'
p797
F2662.3311810153928
sS'abalone-1-abalone-4-abalone-6-abalone-7:abalone-8'
p798
I0
sS'abalone-4:abalone-3'
p799
F44.07433404768961
sS'abalone-4:abalone-2'
p800
F2595.0939521024866
sS'abalone-1-abalone-4-abalone-6-abalone-7:abalone-5'
p801
F3652.606358061091
sS'abalone-1-abalone-6-abalone-7:abalone-2'
p802
F1735.5051841567652
sS'abalone-4:abalone-8'
p803
I0
sS'abalone-1-abalone-4-abalone-6-abalone-7:abalone-3'
p804
F1894.9344143335184
sS'abalone-1-abalone-4-abalone-6-abalone-7:abalone-2'
p805
F3651.978799403239
sS'abalone-0-abalone-2-abalone-5:abalone-6'
p806
F1718.7702024682767
sS'abalone-0-abalone-2-abalone-5:abalone-7'
p807
F1926.0058686837183
sS'abalone-0-abalone-2-abalone-5:abalone-4'
p808
F1758.5636201380148
sS'abalone-0-abalone-2-abalone-5:abalone-3'
p809
F251.02503224913494
sS'abalone-1-abalone-3-abalone-5:abalone-4'
p810
F1961.389854330027
sS'abalone-0-abalone-1-abalone-3-abalone-8:abalone-7'
p811
F6751.959676661525
sS'abalone-0-abalone-1-abalone-3-abalone-8:abalone-6'
p812
F7019.4437575511365
sS'abalone-0-abalone-1-abalone-3-abalone-8:abalone-5'
p813
F7212.340422068777
sS'abalone-0-abalone-1-abalone-3-abalone-8:abalone-4'
p814
F7656.694875613899
sS'abalone-0-abalone-1-abalone-3-abalone-8:abalone-2'
p815
F5287.527173595354
sS'abalone-0-abalone-2-abalone-5:abalone-8'
p816
I0
sS'abalone-0-abalone-2-abalone-3-abalone-7:abalone-8'
p817
I0
sS'abalone-2-abalone-4-abalone-5-abalone-7:abalone-8'
p818
I0
sS'abalone-0-abalone-2-abalone-3-abalone-7:abalone-1'
p819
F2475.162424297573
sS'abalone-2-abalone-4-abalone-5-abalone-7:abalone-6'
p820
F3632.1169917831576
sS'abalone-2-abalone-4-abalone-5-abalone-7:abalone-1'
p821
F3666.6231792904528
sS'abalone-0-abalone-2-abalone-3-abalone-7:abalone-6'
p822
F2751.4486869006582
sS'abalone-2-abalone-4-abalone-5-abalone-7:abalone-3'
p823
F1894.4982573222949
sS'abalone-0-abalone-2-abalone-3-abalone-7:abalone-4'
p824
F2739.2458281632194
sS'abalone-1-abalone-2:abalone-8'
p825
I0
sS'abalone-0-abalone-1-abalone-2-abalone-3-abalone-4-abalone-7:abalone-6'
p826
F31223.14055876288
sS'abalone-0-abalone-1-abalone-2-abalone-3-abalone-4-abalone-7:abalone-5'
p827
F31253.563928040643
sS'abalone-1-abalone-2:abalone-3'
p828
F105.14802091325453
sS'abalone-0-abalone-1-abalone-2-abalone-3-abalone-4-abalone-7:abalone-8'
p829
I0
sS'abalone-1-abalone-2:abalone-6'
p830
F2113.1865897501775
sS'abalone-1-abalone-2:abalone-7'
p831
F2098.098568084595
sS'abalone-1-abalone-2:abalone-4'
p832
F2260.644329168037
sS'abalone-1-abalone-2:abalone-5'
p833
F2143.079304363713
sS'abalone-1-abalone-4-abalone-5-abalone-8:abalone-2'
p834
F5934.846681508027
sS'abalone-1-abalone-2-abalone-3-abalone-4-abalone-5-abalone-6-abalone-7-abalone-8:abalone-0'
p835
F690933.6161753968
sS'abalone-1-abalone-2-abalone-3:abalone-5'
p836
F2441.197287806858
sS'abalone-1-abalone-2-abalone-3:abalone-4'
p837
F2556.9955314797944
sS'abalone-1-abalone-2-abalone-3:abalone-7'
p838
F2389.5747099202517
sS'abalone-1-abalone-2-abalone-3:abalone-6'
p839
F2411.4087605597624
sS'abalone-1-abalone-2-abalone-3:abalone-0'
p840
F4098.637276829218
sS'abalone-1-abalone-2-abalone-3:abalone-8'
p841
I0
sS'abalone-1-abalone-2-abalone-3-abalone-4-abalone-5-abalone-7-abalone-8:abalone-6'
p842
F253207.8612397247
sS'abalone-1-abalone-2-abalone-3-abalone-4-abalone-5-abalone-7-abalone-8:abalone-0'
p843
F135795.3842713597
sS'abalone-3-abalone-7-abalone-8:abalone-1'
p844
F9732.126738468847
sS'abalone-3-abalone-7-abalone-8:abalone-0'
p845
F11884.563063202851
sS'abalone-3-abalone-7-abalone-8:abalone-2'
p846
F9766.521100838707
sS'abalone-3-abalone-7-abalone-8:abalone-5'
p847
F6507.025898143887
sS'abalone-3-abalone-7-abalone-8:abalone-4'
p848
F7131.9911717200375
sS'abalone-0-abalone-3:abalone-4'
p849
F3587.3441415317825
sS'abalone-3-abalone-7-abalone-8:abalone-6'
p850
F5995.874673262695
sS'abalone-0-abalone-3:abalone-8'
p851
I0
sS'abalone-0-abalone-1-abalone-3-abalone-5-abalone-8:abalone-2'
p852
F9675.976584611726
sS'abalone-0-abalone-1-abalone-3-abalone-5-abalone-8:abalone-6'
p853
F10105.734973675957
sS'abalone-0-abalone-1-abalone-3-abalone-5-abalone-8:abalone-7'
p854
F10401.477747046636
sS'abalone-0-abalone-1-abalone-3-abalone-5-abalone-8:abalone-4'
p855
F10226.095842237217
sS'abalone-0-abalone-2-abalone-3-abalone-5-abalone-6:abalone-8'
p856
I0
sS'abalone-0-abalone-2-abalone-3-abalone-5-abalone-6:abalone-7'
p857
F7446.624411995986
sS'abalone-0-abalone-2-abalone-3-abalone-5-abalone-6:abalone-4'
p858
F7231.10366998191
sS'abalone-0-abalone-2-abalone-3-abalone-5-abalone-6:abalone-1'
p859
F7204.175113167025
sS'abalone-2-abalone-4-abalone-6:abalone-8'
p860
I0
sS'abalone-2-abalone-4-abalone-6:abalone-5'
p861
F1699.680343484847
sS'abalone-2-abalone-4-abalone-6:abalone-7'
p862
F1781.8706906679317
sS'abalone-2-abalone-4-abalone-6:abalone-1'
p863
F1705.76051540351
sS'abalone-2-abalone-4-abalone-6:abalone-0'
p864
F3983.718855412804
sS'abalone-2-abalone-4-abalone-6:abalone-3'
p865
F401.69049311876415
sS'abalone-0-abalone-1-abalone-5-abalone-6-abalone-7:abalone-4'
p866
F8503.18780144313
sS'abalone-0-abalone-3-abalone-4-abalone-5-abalone-6-abalone-7:abalone-8'
p867
I0
sS'abalone-0-abalone-2-abalone-3-abalone-6-abalone-8:abalone-1'
p868
F9675.535385843106
sS'abalone-0-abalone-2-abalone-3-abalone-6-abalone-8:abalone-7'
p869
F10154.40349403085
sS'abalone-0-abalone-2-abalone-3-abalone-6-abalone-8:abalone-4'
p870
F10396.534696990484
sS'abalone-0-abalone-2-abalone-3-abalone-6-abalone-8:abalone-5'
p871
F10284.432613013409
sS'abalone-0-abalone-3-abalone-4-abalone-5-abalone-6-abalone-7:abalone-2'
p872
F32293.685312053483
sS'abalone-0-abalone-3-abalone-4-abalone-5-abalone-6-abalone-7:abalone-1'
p873
F32309.050333061045
sS'abalone-0-abalone-1-abalone-5-abalone-6-abalone-7:abalone-8'
p874
I0
sS'abalone-4-abalone-6-abalone-8:abalone-3'
p875
F460.99197522676366
sS'abalone-4-abalone-6-abalone-8:abalone-2'
p876
F7821.488367478662
sS'abalone-4-abalone-6-abalone-8:abalone-1'
p877
F7927.159466730603
sS'abalone-4-abalone-6-abalone-8:abalone-0'
p878
F11406.31692701543
sS'abalone-4-abalone-6-abalone-8:abalone-7'
p879
F4161.8937649208965
sS'abalone-4-abalone-6-abalone-8:abalone-5'
p880
F4053.058604662845
sS'abalone-0-abalone-1-abalone-7-abalone-8:abalone-3'
p881
F1182.5915636765626
sS'abalone-0-abalone-1-abalone-7-abalone-8:abalone-2'
p882
F5245.623126016151
sS'abalone-0-abalone-1-abalone-7-abalone-8:abalone-6'
p883
F5948.604098457952
sS'abalone-0-abalone-1-abalone-7-abalone-8:abalone-5'
p884
F6364.716123532664
sS'abalone-0-abalone-1-abalone-7-abalone-8:abalone-4'
p885
F6120.1306514517455
sS'abalone-0-abalone-5-abalone-6:abalone-7'
p886
F1909.8320313440531
sS'abalone-0-abalone-2-abalone-5-abalone-7-abalone-8:abalone-1'
p887
F11031.105162815918
sS'abalone-0-abalone-1-abalone-2-abalone-4-abalone-5-abalone-6:abalone-3'
p888
F28148.344599529806
sS'abalone-0-abalone-5-abalone-6:abalone-4'
p889
F1904.7581320919803
sS'abalone-0-abalone-1-abalone-2-abalone-4-abalone-5-abalone-6:abalone-7'
p890
F38692.9620525963
sS'abalone-0-abalone-1-abalone-2-abalone-4-abalone-5-abalone-6:abalone-8'
p891
I0
sS'abalone-1-abalone-2-abalone-5-abalone-6:abalone-0'
p892
F4984.327221466263
sS'abalone-1-abalone-2-abalone-5-abalone-6:abalone-3'
p893
F1902.613308810392
sS'abalone-1-abalone-2-abalone-5-abalone-6:abalone-4'
p894
F3717.5502481607664
sS'abalone-1-abalone-2-abalone-5-abalone-6:abalone-7'
p895
F3962.9106471563127
sS'abalone-1-abalone-2-abalone-3-abalone-4-abalone-6-abalone-7-abalone-8:abalone-0'
p896
F135746.80434062376
sS'abalone-1-abalone-2-abalone-5-abalone-6:abalone-8'
p897
I0
sS'abalone-0-abalone-2-abalone-5-abalone-7-abalone-8:abalone-6'
p898
F11069.830379201567
sS'abalone-1-abalone-2-abalone-3-abalone-4-abalone-6-abalone-7-abalone-8:abalone-5'
p899
F253203.16247014134
sS'abalone-0-abalone-2-abalone-8:abalone-3'
p900
F308.85484008822664
sS'abalone-0-abalone-5-abalone-6:abalone-3'
p901
F251.8740293192518
sS'abalone-0-abalone-2-abalone-8:abalone-1'
p902
F4377.64762943931
sS'abalone-0-abalone-5-abalone-6:abalone-1'
p903
F3013.2736196974297
sS'abalone-0-abalone-2-abalone-8:abalone-7'
p904
F5879.5650752061965
sS'abalone-0-abalone-2-abalone-8:abalone-6'
p905
F6129.334495003547
sS'abalone-0-abalone-2-abalone-8:abalone-5'
p906
F6327.370224417094
sS'abalone-0-abalone-2-abalone-8:abalone-4'
p907
F6566.291534010946
sS'abalone-0-abalone-5-abalone-6:abalone-8'
p908
I0
sS'abalone-0-abalone-6:abalone-4'
p909
F2149.2099371592462
sS'abalone-0-abalone-1-abalone-2-abalone-3-abalone-4-abalone-5:abalone-6'
p910
F31158.508562491614
sS'abalone-0-abalone-1-abalone-2-abalone-3-abalone-4-abalone-5:abalone-7'
p911
F31267.81361288239
sS'abalone-0-abalone-1-abalone-2-abalone-3-abalone-4-abalone-5:abalone-8'
p912
I0
sS'abalone-0-abalone-2-abalone-3:abalone-8'
p913
I0
sS'abalone-0-abalone-2-abalone-7-abalone-8:abalone-6'
p914
F5921.785644753839
sS'abalone-0-abalone-2-abalone-3:abalone-5'
p915
F2314.391641014704
sS'abalone-0-abalone-2-abalone-3:abalone-6'
p916
F2249.831803400016
sS'abalone-0-abalone-2-abalone-3:abalone-7'
p917
F2232.2198990801126
sS'abalone-0-abalone-2-abalone-3:abalone-1'
p918
F1632.5203336543088
sS'abalone-2-abalone-5-abalone-6-abalone-8:abalone-0'
p919
F12205.440209068618
sS'abalone-2-abalone-5-abalone-6-abalone-8:abalone-1'
p920
F6091.894466642456
sS'abalone-2-abalone-5-abalone-6-abalone-8:abalone-3'
p921
F1958.3841226473755
sS'abalone-2-abalone-5-abalone-6-abalone-8:abalone-4'
p922
F6080.512245949869
sS'abalone-2-abalone-5-abalone-6-abalone-8:abalone-7'
p923
F6471.875333505557
sS'abalone-0-abalone-1-abalone-2-abalone-5-abalone-6-abalone-8:abalone-4'
p924
F40804.196292765155
sS'abalone-0-abalone-1-abalone-2-abalone-5-abalone-6-abalone-8:abalone-7'
p925
F41290.63293849167
sS'abalone-0-abalone-1-abalone-2-abalone-5-abalone-6-abalone-8:abalone-3'
p926
F28199.428360441038
sS'abalone-0-abalone-1-abalone-2-abalone-3-abalone-5-abalone-6-abalone-7:abalone-4'
p927
F150943.79531522022
sS'abalone-0-abalone-2-abalone-3-abalone-4-abalone-5-abalone-8:abalone-7'
p928
F33567.86101453077
sS'abalone-0-abalone-2-abalone-3-abalone-4-abalone-5-abalone-8:abalone-6'
p929
F33439.27558094618
sS'abalone-0-abalone-2-abalone-3-abalone-4-abalone-5-abalone-8:abalone-1'
p930
F33462.72980636103
sS'abalone-0-abalone-3-abalone-5-abalone-6-abalone-8:abalone-1'
p931
F13953.136602769719
sS'abalone-0-abalone-3-abalone-5-abalone-6-abalone-8:abalone-2'
p932
F13953.69168396763
sS'abalone-0-abalone-3-abalone-5-abalone-6-abalone-8:abalone-4'
p933
F10505.55917188676
sS'abalone-0-abalone-3-abalone-5-abalone-6-abalone-8:abalone-7'
p934
F10266.960812349304
sS'abalone-1-abalone-6:abalone-7'
p935
F1686.6400369754779
sS'abalone-1-abalone-6:abalone-4'
p936
F1728.7849922895316
sS'abalone-1-abalone-6:abalone-5'
p937
F1613.4074528010628
sS'abalone-0-abalone-1-abalone-2-abalone-3-abalone-4-abalone-7-abalone-8:abalone-6'
p938
F153474.864122316
sS'abalone-1-abalone-6:abalone-3'
p939
F103.60951771008911
sS'abalone-1-abalone-6:abalone-0'
p940
F3833.954262418673
sS'abalone-0-abalone-1-abalone-2-abalone-3-abalone-4-abalone-7-abalone-8:abalone-5'
p941
F153518.74528346863
sS'abalone-1-abalone-6:abalone-8'
p942
I0
sS'abalone-1-abalone-8:abalone-4'
p943
F7086.405178509163
sS'abalone-1-abalone-8:abalone-5'
p944
F6553.461098138314
sS'abalone-1-abalone-8:abalone-6'
p945
F6463.692292873146
sS'abalone-1-abalone-8:abalone-7'
p946
F6092.601804739597
sS'abalone-1-abalone-8:abalone-0'
p947
F11635.707409514991
sS'abalone-1-abalone-8:abalone-2'
p948
F4354.686410839369
sS'abalone-1-abalone-8:abalone-3'
p949
F166.21086033278095
sS'abalone-5-abalone-8:abalone-0'
p950
F11713.951663934864
sS'abalone-0-abalone-5-abalone-8:abalone-1'
p951
F8826.329686868314
sS'abalone-0-abalone-5-abalone-8:abalone-2'
p952
F8846.00062692066
sS'abalone-0-abalone-5-abalone-8:abalone-3'
p953
F307.2630686541679
sS'abalone-0-abalone-5-abalone-8:abalone-4'
p954
F5905.312455614608
sS'abalone-0-abalone-5-abalone-8:abalone-6'
p955
F4976.021488659803
sS'abalone-5-abalone-8:abalone-7'
p956
F5432.435107297833
sS'abalone-2-abalone-3-abalone-5-abalone-8:abalone-4'
p957
F6264.133213427179
sS'abalone-2-abalone-3-abalone-5-abalone-8:abalone-7'
p958
F6514.614881166211
sS'abalone-2-abalone-3-abalone-5-abalone-8:abalone-6'
p959
F6269.36186843722
sS'abalone-2-abalone-3-abalone-5-abalone-8:abalone-1'
p960
F5721.590789976766
sS'abalone-2-abalone-3-abalone-5-abalone-8:abalone-0'
p961
F12130.398542258125
sS'abalone-3-abalone-5-abalone-7:abalone-0'
p962
F4081.727660492639
sS'abalone-4-abalone-5-abalone-6-abalone-7:abalone-8'
p963
I0
sS'abalone-0-abalone-1-abalone-2-abalone-4-abalone-6-abalone-7:abalone-5'
p964
F38608.29103024375
sS'abalone-0-abalone-1-abalone-2-abalone-4-abalone-6-abalone-7:abalone-3'
p965
F28142.555258290275
sS'abalone-4-abalone-5-abalone-6-abalone-7:abalone-1'
p966
F4902.624240673158
sS'abalone-4-abalone-5-abalone-6-abalone-7:abalone-0'
p967
F5030.094219682538
sS'abalone-4-abalone-5-abalone-6-abalone-7:abalone-3'
p968
F1899.2199810799302
sS'abalone-4-abalone-5-abalone-6-abalone-7:abalone-2'
p969
F4890.528222954907
sS'abalone-0-abalone-1-abalone-2-abalone-4-abalone-6-abalone-7:abalone-8'
p970
I0
sS'abalone-0-abalone-1-abalone-4-abalone-7-abalone-8:abalone-6'
p971
F11043.523370837029
sS'abalone-0-abalone-1-abalone-4-abalone-7-abalone-8:abalone-5'
p972
F11102.093654403514
sS'abalone-0-abalone-1-abalone-4-abalone-7-abalone-8:abalone-3'
p973
F5678.426017834292
sS'abalone-0-abalone-1-abalone-4-abalone-7-abalone-8:abalone-2'
p974
F10871.221145572446
sS'abalone-0-abalone-1-abalone-4-abalone-5-abalone-6:abalone-3'
p975
F5648.596592134545
sS'abalone-5-abalone-6-abalone-7:abalone-1'
p976
F3180.864253441047
sS'abalone-5-abalone-6-abalone-7:abalone-0'
p977
F4079.321666249552
sS'abalone-5-abalone-6-abalone-7:abalone-3'
p978
F402.99620640632565
sS'abalone-5-abalone-6-abalone-7:abalone-2'
p979
F3175.5717816762362
sS'abalone-5-abalone-6-abalone-7:abalone-4'
p980
F1811.943325931201
sS'abalone-5-abalone-6-abalone-7:abalone-8'
p981
I0
sS'abalone-1-abalone-5-abalone-7-abalone-8:abalone-6'
p982
F6235.875315881585
sS'abalone-1-abalone-5-abalone-7-abalone-8:abalone-4'
p983
F5983.431813568166
sS'abalone-1-abalone-5-abalone-7-abalone-8:abalone-2'
p984
F6082.924932615799
sS'abalone-1-abalone-5-abalone-7-abalone-8:abalone-3'
p985
F1936.6034327504585
sS'abalone-1-abalone-5-abalone-7-abalone-8:abalone-0'
p986
F12252.420276635672
sS'abalone-0-abalone-3-abalone-4-abalone-6:abalone-1'
p987
F3631.3569316065978
sS'abalone-0-abalone-3-abalone-4-abalone-6:abalone-5'
p988
F2431.8607851520583
sS'abalone-3-abalone-4-abalone-5-abalone-6-abalone-8:abalone-7'
p989
F13500.323725455883
sS'abalone-3-abalone-4-abalone-5-abalone-6-abalone-8:abalone-1'
p990
F17231.11961825187
sS'abalone-3-abalone-4-abalone-5-abalone-6-abalone-8:abalone-0'
p991
F16095.618101957496
sS'abalone-3-abalone-4-abalone-5-abalone-6-abalone-8:abalone-2'
p992
F17171.47083058693
sS'abalone-0-abalone-1-abalone-2-abalone-4:abalone-6'
p993
F2817.9789203612627
sS'abalone-5-abalone-6-abalone-7-abalone-8:abalone-4'
p994
F6316.35012903769
sS'abalone-5-abalone-6-abalone-7-abalone-8:abalone-1'
p995
F10405.93744935559
sS'abalone-5-abalone-6-abalone-7-abalone-8:abalone-0'
p996
F12425.761706072739
sS'abalone-5-abalone-6-abalone-7-abalone-8:abalone-3'
p997
F1957.7957036113148
sS'abalone-5-abalone-6-abalone-7-abalone-8:abalone-2'
p998
F10373.16453102179
sS'abalone-3-abalone-4-abalone-5-abalone-6:abalone-2'
p999
F4432.397821513026
sS'abalone-3-abalone-4-abalone-5-abalone-7-abalone-8:abalone-6'
p1000
F13374.55185572364
sS'abalone-3-abalone-4-abalone-5-abalone-7-abalone-8:abalone-0'
p1001
F16142.90361265811
sS'abalone-3-abalone-4-abalone-5-abalone-7-abalone-8:abalone-1'
p1002
F17197.57526259191
sS'abalone-3-abalone-4-abalone-5-abalone-7-abalone-8:abalone-2'
p1003
F17142.335158207534
sS'abalone-0-abalone-1-abalone-2-abalone-4-abalone-7:abalone-6'
p1004
F8723.38632173331
sS'abalone-0-abalone-1-abalone-2-abalone-4-abalone-7:abalone-8'
p1005
I0
sS'abalone-0-abalone-1:abalone-7'
p1006
F2059.3959997637285
sS'abalone-6-abalone-8:abalone-4'
p1007
F6451.863709734771
sS'abalone-0-abalone-3-abalone-7-abalone-8:abalone-5'
p1008
F6981.75528826716
sS'abalone-0-abalone-3-abalone-7-abalone-8:abalone-4'
p1009
F7469.214155282604
sS'abalone-0-abalone-3-abalone-7-abalone-8:abalone-6'
p1010
F6407.267850927158
sS'abalone-0-abalone-3-abalone-7-abalone-8:abalone-1'
p1011
F10011.971945885522
sS'abalone-0-abalone-3-abalone-7-abalone-8:abalone-2'
p1012
F10028.852150620947
sS'abalone-0-abalone-4-abalone-8:abalone-1'
p1013
F7787.966034553713
sS'abalone-0-abalone-4-abalone-8:abalone-3'
p1014
F302.0035898484773
sS'abalone-0-abalone-4-abalone-8:abalone-2'
p1015
F7597.174367391295
sS'abalone-0-abalone-4-abalone-8:abalone-5'
p1016
F4417.564886491397
sS'abalone-0-abalone-4-abalone-8:abalone-7'
p1017
F4349.479615623376
sS'abalone-0-abalone-4-abalone-8:abalone-6'
p1018
F4496.975334226646
sS'abalone-6-abalone-7-abalone-8:abalone-4'
p1019
F5533.99101904593
sS'abalone-6-abalone-7-abalone-8:abalone-5'
p1020
F5121.476513964755
sS'abalone-6-abalone-7-abalone-8:abalone-0'
p1021
F11559.509600585932
sS'abalone-6-abalone-7-abalone-8:abalone-1'
p1022
F8929.752823485685
sS'abalone-6-abalone-7-abalone-8:abalone-2'
p1023
F8923.575623474662
sS'abalone-6-abalone-7-abalone-8:abalone-3'
p1024
F461.17402839265014
sS'abalone-0-abalone-2-abalone-5-abalone-7:abalone-1'
p1025
F2705.2825433426747
sS'abalone-0-abalone-2-abalone-5-abalone-7:abalone-3'
p1026
F1144.7681413563425
sS'abalone-6-abalone-8:abalone-2'
p1027
F9232.984901723219
sS'abalone-0-abalone-2-abalone-5-abalone-7:abalone-4'
p1028
F2643.8938708106502
sS'abalone-0-abalone-2-abalone-5-abalone-7:abalone-6'
p1029
F2745.160809684526
sS'abalone-1-abalone-3-abalone-6-abalone-7:abalone-4'
p1030
F3310.667264304168
sS'abalone-1-abalone-3-abalone-6-abalone-7:abalone-5'
p1031
F3430.0832708242438
sS'abalone-1-abalone-3-abalone-6-abalone-7:abalone-2'
p1032
F3235.3104160313255
sS'abalone-1-abalone-3-abalone-6-abalone-7:abalone-0'
p1033
F4746.417264725215
sS'abalone-1-abalone-3-abalone-6-abalone-7:abalone-8'
p1034
I0
sS'abalone-0-abalone-5-abalone-6:abalone-2'
p1035
F3020.0220731983995
sS'abalone-1-abalone-4-abalone-5-abalone-6:abalone-8'
p1036
I0
sS'abalone-0-abalone-1-abalone-4-abalone-5-abalone-6-abalone-7:abalone-8'
p1037
I0
sS'abalone-1-abalone-4-abalone-5-abalone-6:abalone-3'
p1038
F1901.1317381921558
sS'abalone-1-abalone-4-abalone-5-abalone-6:abalone-2'
p1039
F3653.093559340337
sS'abalone-0-abalone-2-abalone-4-abalone-6:abalone-3'
p1040
F1149.0983606248449
sS'abalone-1-abalone-4-abalone-5-abalone-6:abalone-0'
p1041
F4963.461966793936
sS'abalone-1-abalone-4-abalone-5-abalone-6:abalone-7'
p1042
F3740.459244799445
sS'abalone-0-abalone-1-abalone-4-abalone-5-abalone-6-abalone-7:abalone-2'
p1043
F38610.974485697785
sS'abalone-0-abalone-1-abalone-4-abalone-5-abalone-6-abalone-7:abalone-3'
p1044
F28142.327186811566
sS'abalone-0-abalone-1-abalone-2-abalone-4-abalone-5:abalone-8'
p1045
I0
sS'abalone-0-abalone-1-abalone-2-abalone-4-abalone-5:abalone-7'
p1046
F8774.014018265641
sS'abalone-0-abalone-1-abalone-2-abalone-4-abalone-5:abalone-6'
p1047
F8658.591772797035
sS'abalone-2-abalone-4-abalone-5-abalone-6-abalone-7:abalone-3'
p1048
F9394.387851357395
sS'abalone-2-abalone-4-abalone-5-abalone-6-abalone-7:abalone-1'
p1049
F13647.201059873601
sS'abalone-2-abalone-4-abalone-5-abalone-6-abalone-7:abalone-0'
p1050
F9936.538513237401
sS'abalone-0-abalone-3-abalone-6-abalone-7:abalone-5'
p1051
F2762.935410024574
sS'abalone-0-abalone-3-abalone-6-abalone-7:abalone-4'
p1052
F2839.8965225356164
sS'abalone-0-abalone-3-abalone-6-abalone-7:abalone-2'
p1053
F3926.216561819197
sS'abalone-0-abalone-2-abalone-4-abalone-5:abalone-8'
p1054
I0
sS'abalone-2-abalone-4-abalone-8:abalone-7'
p1055
F4422.879721255839
sS'abalone-2-abalone-4-abalone-8:abalone-6'
p1056
F4635.86075594739
sS'abalone-2-abalone-4-abalone-8:abalone-5'
p1057
F4465.079675945265
sS'abalone-2-abalone-4-abalone-8:abalone-3'
p1058
F454.8482776787389
sS'abalone-0-abalone-2-abalone-4-abalone-5:abalone-3'
p1059
F1148.7175617489067
sS'abalone-2-abalone-4-abalone-8:abalone-1'
p1060
F4217.581318753299
sS'abalone-2-abalone-4-abalone-8:abalone-0'
p1061
F11320.888348648816
sS'abalone-4-abalone-5-abalone-7-abalone-8:abalone-3'
p1062
F1947.451961337647
sS'abalone-4-abalone-5-abalone-7-abalone-8:abalone-2'
p1063
F9656.842283858126
sS'abalone-4-abalone-5-abalone-7-abalone-8:abalone-1'
p1064
F9711.896002151221
sS'abalone-4-abalone-5-abalone-7-abalone-8:abalone-0'
p1065
F12403.98248977702
sS'abalone-4-abalone-5-abalone-7-abalone-8:abalone-6'
p1066
F5874.752184146744
sS'abalone-1-abalone-3-abalone-4:abalone-6'
p1067
F1795.695212300116
sS'abalone-1-abalone-2-abalone-4-abalone-5-abalone-7:abalone-3'
p1068
F9394.311881919277
sS'abalone-1-abalone-3-abalone-4:abalone-5'
p1069
F1756.1597488872417
sS'abalone-1-abalone-3-abalone-4:abalone-2'
p1070
F1600.0768453992155
sS'abalone-1-abalone-2-abalone-4-abalone-5-abalone-6-abalone-7-abalone-8:abalone-3'
p1071
F234432.18912556552
sS'abalone-1-abalone-2-abalone-4-abalone-5-abalone-6-abalone-7-abalone-8:abalone-0'
p1072
F166920.0753302697
sS'abalone-1-abalone-3-abalone-4-abalone-5-abalone-6-abalone-8:abalone-0'
p1073
F35830.75706334347
sS'abalone-1-abalone-3-abalone-4-abalone-5-abalone-6-abalone-8:abalone-2'
p1074
F53376.82505603275
sS'abalone-1-abalone-3-abalone-4-abalone-5-abalone-6-abalone-8:abalone-7'
p1075
F53347.94412065042
sS'abalone-1-abalone-3-abalone-4-abalone-5:abalone-6'
p1076
F3220.903671334086
sS'abalone-3-abalone-6-abalone-7:abalone-2'
p1077
F3250.747207765193
sS'abalone-3-abalone-6-abalone-7:abalone-1'
p1078
F3249.2309892724406
sS'abalone-3-abalone-6-abalone-7:abalone-0'
p1079
F4067.8295517314427
sS'abalone-1-abalone-3-abalone-4-abalone-5:abalone-2'
p1080
F3172.326329261066
sS'abalone-3-abalone-6-abalone-7:abalone-5'
p1081
F2005.9988371061518
sS'abalone-3-abalone-6-abalone-7:abalone-4'
p1082
F2112.6803822954353
sS'abalone-3-abalone-6-abalone-7:abalone-8'
p1083
I0
sS'abalone-1-abalone-3-abalone-4-abalone-5:abalone-8'
p1084
I0
sS'abalone-1-abalone-2-abalone-5-abalone-6-abalone-8:abalone-0'
p1085
F17143.895852899528
sS'abalone-6-abalone-8:abalone-5'
p1086
F5267.180895013878
sS'abalone-0-abalone-2-abalone-4-abalone-5-abalone-6:abalone-7'
p1087
F8716.736851738608
sS'abalone-0-abalone-2-abalone-4-abalone-5-abalone-6:abalone-1'
p1088
F8650.06612054396
sS'abalone-0-abalone-2-abalone-4-abalone-5-abalone-6:abalone-3'
p1089
F5648.634653407761
sS'abalone-0-abalone-2-abalone-6-abalone-7-abalone-8:abalone-4'
p1090
F11152.013646099467
sS'abalone-0-abalone-2-abalone-6-abalone-7-abalone-8:abalone-5'
p1091
F11481.894763669521
sS'abalone-0-abalone-2-abalone-4-abalone-5-abalone-6:abalone-8'
p1092
I0
sS'abalone-0-abalone-2-abalone-6-abalone-7-abalone-8:abalone-3'
p1093
F5684.803645262691
sS'abalone-0-abalone-2-abalone-6-abalone-7-abalone-8:abalone-1'
p1094
F11070.494256507716
sS'abalone-0-abalone-1-abalone-5-abalone-8:abalone-4'
p1095
F5732.987931226439
sS'abalone-0-abalone-1-abalone-5-abalone-8:abalone-7'
p1096
F5923.937959415521
sS'abalone-0-abalone-1-abalone-5-abalone-8:abalone-6'
p1097
F5607.898495285107
sS'abalone-1-abalone-2-abalone-5-abalone-6-abalone-8:abalone-7'
p1098
F16393.072302474964
sS'abalone-0-abalone-1-abalone-5-abalone-8:abalone-3'
p1099
F1202.1941449666624
sS'abalone-0-abalone-1-abalone-5-abalone-8:abalone-2'
p1100
F5176.550957209313
sS'abalone-1-abalone-7:abalone-8'
p1101
I0
sS'abalone-0-abalone-1-abalone-2-abalone-7:abalone-4'
p1102
F2963.2461290921074
sS'abalone-0-abalone-2-abalone-3-abalone-4-abalone-6-abalone-7:abalone-1'
p1103
F31157.47068056792
sS'abalone-0-abalone-2:abalone-8'
p1104
I0
sS'abalone-0-abalone-2-abalone-3-abalone-4-abalone-6-abalone-7:abalone-5'
p1105
F31139.1941326276
sS'abalone-0-abalone-2:abalone-3'
p1106
F73.17664664820637
sS'abalone-0-abalone-2-abalone-3-abalone-4-abalone-6-abalone-7:abalone-8'
p1107
I0
sS'abalone-0-abalone-2:abalone-1'
p1108
F1452.9956851960344
sS'abalone-0-abalone-2:abalone-7'
p1109
F2059.4624048000674
sS'abalone-0-abalone-2:abalone-6'
p1110
F2071.996032462704
sS'abalone-0-abalone-2:abalone-5'
p1111
F2136.5432554137783
sS'abalone-0-abalone-2:abalone-4'
p1112
F2227.529003523186
sS'abalone-0-abalone-1-abalone-2-abalone-7-abalone-8:abalone-5'
p1113
F12131.976020980179
sS'abalone-2-abalone-6-abalone-8:abalone-1'
p1114
F4238.780018640156
sS'abalone-2-abalone-6-abalone-8:abalone-0'
p1115
F11288.437729184256
sS'abalone-2-abalone-6-abalone-8:abalone-3'
p1116
F460.5658980817484
sS'abalone-2-abalone-6-abalone-8:abalone-5'
p1117
F4869.547265367507
sS'abalone-2-abalone-6-abalone-8:abalone-4'
p1118
F5040.367175490211
sS'abalone-0-abalone-4-abalone-5-abalone-6-abalone-7-abalone-8:abalone-3'
p1119
F28186.06834379356
sS'abalone-0-abalone-4-abalone-5-abalone-6-abalone-7-abalone-8:abalone-2'
p1120
F44262.456095008776
sS'abalone-0-abalone-6-abalone-8:abalone-4'
p1121
F6297.434183435002
sS'abalone-0-abalone-2-abalone-4-abalone-6:abalone-1'
p1122
F2687.036409435786
sS'abalone-0-abalone-3-abalone-5-abalone-6-abalone-7:abalone-4'
p1123
F7259.841420521637
sS'abalone-0-abalone-6-abalone-8:abalone-1'
p1124
F8946.178367979974
sS'abalone-0-abalone-1-abalone-2-abalone-3-abalone-4-abalone-5-abalone-8:abalone-6'
p1125
F153341.1002502209
sS'abalone-0-abalone-1-abalone-2-abalone-5-abalone-7:abalone-3'
p1126
F5643.233212178489
sS'abalone-0-abalone-1-abalone-2-abalone-5-abalone-7:abalone-4'
p1127
F8585.731658735443
sS'abalone-0-abalone-1-abalone-2-abalone-5-abalone-7:abalone-6'
p1128
F8718.620016114643
sS'abalone-0-abalone-1-abalone-2-abalone-5-abalone-7:abalone-8'
p1129
I0
sS'abalone-0-abalone-4:abalone-2'
p1130
F2538.797219367454
sS'abalone-0-abalone-1-abalone-4-abalone-6-abalone-7:abalone-8'
p1131
I0
sS'abalone-0-abalone-1-abalone-4-abalone-6-abalone-7:abalone-5'
p1132
F8628.130579188988
sS'abalone-0-abalone-1-abalone-4-abalone-6-abalone-7:abalone-3'
p1133
F5642.7532186190265
sS'abalone-0-abalone-1-abalone-4-abalone-6-abalone-7:abalone-2'
p1134
F8630.814034643046
sS'abalone-0-abalone-2-abalone-3-abalone-7-abalone-8:abalone-1'
p1135
F9728.302382850785
sS'abalone-0-abalone-2-abalone-3:abalone-4'
p1136
F2403.6752705578883
sS'abalone-1-abalone-5-abalone-6:abalone-8'
p1137
I0
sS'abalone-0-abalone-2-abalone-3-abalone-6:abalone-7'
p1138
F2733.8367825807636
sS'abalone-0-abalone-2-abalone-3-abalone-6:abalone-4'
p1139
F2731.417254913582
sS'abalone-0-abalone-2-abalone-3-abalone-6:abalone-5'
p1140
F2682.5974935406794
sS'abalone-1-abalone-5-abalone-6:abalone-3'
p1141
F402.8577269183255
sS'abalone-1-abalone-5-abalone-6:abalone-2'
p1142
F1732.7929311181401
sS'abalone-0-abalone-2-abalone-3-abalone-6:abalone-8'
p1143
I0
sS'abalone-1-abalone-5-abalone-6:abalone-0'
p1144
F4005.9045527365874
sS'abalone-1-abalone-5-abalone-6:abalone-7'
p1145
F2004.0055515747122
sS'abalone-1-abalone-5-abalone-6:abalone-4'
p1146
F1797.24961993857
sS'abalone-0-abalone-1-abalone-2-abalone-6:abalone-4'
p1147
F2966.7349451065743
sS'abalone-0-abalone-1-abalone-2-abalone-6:abalone-5'
p1148
F2934.151795562722
sS'abalone-0-abalone-1-abalone-2-abalone-6:abalone-7'
p1149
F3005.0380598635325
sS'abalone-2-abalone-3-abalone-6:abalone-8'
p1150
I0
sS'abalone-0-abalone-1-abalone-2-abalone-6:abalone-3'
p1151
F1150.7195081626487
sS'abalone-2-abalone-3-abalone-6:abalone-7'
p1152
F1967.6590777911438
sS'abalone-2-abalone-3-abalone-6:abalone-4'
p1153
F1977.4117329905362
sS'abalone-2-abalone-3-abalone-6:abalone-5'
p1154
F1908.8274418455417
sS'abalone-0-abalone-1-abalone-2-abalone-6:abalone-8'
p1155
I0
sS'abalone-2-abalone-3-abalone-6:abalone-0'
p1156
F3977.1212009958413
sS'abalone-2-abalone-3-abalone-6:abalone-1'
p1157
F1672.5812149806839
sS'abalone-0-abalone-4:abalone-7'
p1158
F1515.3310260202272
sS'abalone-0-abalone-3-abalone-4-abalone-6-abalone-7-abalone-8:abalone-5'
p1159
F33342.65268595395
sS'abalone-0-abalone-3-abalone-4-abalone-6-abalone-7-abalone-8:abalone-2'
p1160
F36882.79597835311
sS'abalone-0-abalone-3-abalone-4-abalone-6-abalone-7-abalone-8:abalone-1'
p1161
F36960.14053324992
sS'abalone-0-abalone-1-abalone-3-abalone-6:abalone-5'
p1162
F2684.6344828680953
sS'abalone-0-abalone-1-abalone-3-abalone-6:abalone-4'
p1163
F2775.6199854661495
sS'abalone-0-abalone-1-abalone-3-abalone-6:abalone-7'
p1164
F2744.316247269278
sS'abalone-0-abalone-1-abalone-3-abalone-4-abalone-5-abalone-6-abalone-7:abalone-8'
p1165
F111904.57451302074
sS'abalone-0-abalone-1-abalone-3-abalone-6:abalone-2'
p1166
F2462.217191022109
sS'abalone-0-abalone-1-abalone-3-abalone-4-abalone-5-abalone-6-abalone-7:abalone-2'
p1167
F151110.7755877674
sS'abalone-0-abalone-1-abalone-3-abalone-6:abalone-8'
p1168
I0
sS'abalone-0-abalone-1-abalone-3-abalone-6-abalone-7-abalone-8:abalone-2'
p1169
F33555.86695647739
sS'abalone-0-abalone-1-abalone-3-abalone-6-abalone-7-abalone-8:abalone-4'
p1170
F33711.99517100862
sS'abalone-0-abalone-1-abalone-3-abalone-6-abalone-7-abalone-8:abalone-5'
p1171
F34008.798371694924
sS'abalone-0-abalone-4-abalone-5-abalone-6:abalone-1'
p1172
F3863.3225216013648
sS'abalone-0-abalone-4-abalone-7:abalone-8'
p1173
I0
sS'abalone-0-abalone-6-abalone-7:abalone-5'
p1174
F1864.0147183197964
sS'abalone-0-abalone-4-abalone-7:abalone-2'
p1175
F2697.6286478194943
sS'abalone-0-abalone-4-abalone-7:abalone-3'
p1176
F246.22663795684844
sS'abalone-0-abalone-4-abalone-7:abalone-1'
p1177
F2740.072886515607
sS'abalone-0-abalone-4-abalone-7:abalone-6'
p1178
F1620.4713817025042
sS'abalone-0-abalone-4-abalone-7:abalone-5'
p1179
F1665.2812560637196
sS'abalone-0-abalone-1-abalone-2-abalone-6-abalone-7:abalone-8'
p1180
I0
sS'abalone-2-abalone-3-abalone-4-abalone-6-abalone-8:abalone-7'
p1181
F13479.557942524443
sS'abalone-0-abalone-1-abalone-2-abalone-6-abalone-7:abalone-5'
p1182
F8855.784815025117
sS'abalone-2-abalone-3-abalone-4-abalone-6-abalone-8:abalone-5'
p1183
F13408.298562534306
sS'abalone-0-abalone-1-abalone-2-abalone-6-abalone-7:abalone-3'
p1184
F5643.623875880457
sS'abalone-2-abalone-3-abalone-4-abalone-6-abalone-8:abalone-0'
p1185
F15892.680429962797
sS'abalone-2-abalone-3-abalone-4-abalone-6-abalone-8:abalone-1'
p1186
F13537.375268291642
sS'abalone-3-abalone-5:abalone-8'
p1187
I0
sS'abalone-3-abalone-5:abalone-7'
p1188
F2071.9139855409608
sS'abalone-3-abalone-5:abalone-6'
p1189
F1821.3454969558456
sS'abalone-3-abalone-5:abalone-4'
p1190
F2225.255469411171
sS'abalone-3-abalone-5:abalone-2'
p1191
F3201.127403739168
sS'abalone-3-abalone-5:abalone-1'
p1192
F3180.7839555944424
sS'abalone-3-abalone-5:abalone-0'
p1193
F4040.4118683427173
sS'abalone-1-abalone-2-abalone-3-abalone-4-abalone-5-abalone-8:abalone-6'
p1194
F53488.474422553394
sS'abalone-1-abalone-2-abalone-3-abalone-4-abalone-5-abalone-8:abalone-7'
p1195
F53567.585880132596
sS'abalone-1-abalone-2-abalone-3-abalone-4-abalone-5-abalone-8:abalone-0'
p1196
F35911.71319505626
sS'abalone-0-abalone-1-abalone-2-abalone-3-abalone-5-abalone-6-abalone-7:abalone-8'
p1197
F112259.88835357474
sS'abalone-0-abalone-2-abalone-3-abalone-6-abalone-7:abalone-1'
p1198
F7217.445511781178
sS'abalone-0-abalone-1-abalone-3-abalone-7-abalone-8:abalone-4'
p1199
F10615.96510560948
sS'abalone-0-abalone-1-abalone-3-abalone-7-abalone-8:abalone-5'
p1200
F10861.858492453899
sS'abalone-0-abalone-1-abalone-3-abalone-7-abalone-8:abalone-6'
p1201
F10446.663439076896
sS'abalone-0-abalone-1-abalone-3-abalone-7-abalone-8:abalone-2'
p1202
F9745.182587586205
sS'abalone-0-abalone-4-abalone-6-abalone-7:abalone-8'
p1203
I0
sS'abalone-3-abalone-6:abalone-8'
p1204
I0
sS'abalone-3-abalone-6:abalone-0'
p1205
F3986.3345986458
sS'abalone-3-abalone-6:abalone-1'
p1206
F3188.0388466718714
sS'abalone-3-abalone-6:abalone-2'
p1207
F3201.063579170731
sS'abalone-3-abalone-6:abalone-4'
p1208
F2299.271608464388
sS'abalone-3-abalone-6:abalone-5'
p1209
F1854.4861555908565
sS'abalone-0-abalone-6-abalone-7:abalone-1'
p1210
F3033.561172092122
sS'abalone-3-abalone-6:abalone-7'
p1211
F1917.9754491966842
sS'abalone-0-abalone-1-abalone-2-abalone-4-abalone-5-abalone-8:abalone-3'
p1212
F28194.573797892022
sS'abalone-2-abalone-3-abalone-4-abalone-6-abalone-7-abalone-8:abalone-1'
p1213
F53449.0246908701
sS'abalone-2-abalone-3-abalone-4-abalone-6-abalone-7-abalone-8:abalone-0'
p1214
F35815.663658368845
sS'abalone-0-abalone-1-abalone-3-abalone-4-abalone-5-abalone-6:abalone-2'
p1215
F31134.51704972527
sS'abalone-0-abalone-5:abalone-3'
p1216
F72.60055077422885
sS'abalone-2-abalone-3-abalone-4-abalone-6-abalone-7-abalone-8:abalone-5'
p1217
F53288.37252712248
sS'abalone-0-abalone-2-abalone-4-abalone-6:abalone-7'
p1218
F2759.863884846876
sS'abalone-0-abalone-1-abalone-3-abalone-4-abalone-5-abalone-6:abalone-7'
p1219
F31210.487203905504
sS'abalone-0-abalone-1-abalone-3-abalone-4-abalone-5-abalone-6:abalone-8'
p1220
I0
sS'abalone-0-abalone-2-abalone-4-abalone-6:abalone-8'
p1221
I0
sS'abalone-0-abalone-4-abalone-6-abalone-7:abalone-3'
p1222
F1145.9910014669347
sS'abalone-0-abalone-1-abalone-2-abalone-3-abalone-5-abalone-7:abalone-4'
p1223
F31084.725851008916
sS'abalone-0-abalone-8:abalone-5'
p1224
F8794.456628633461
sS'abalone-0-abalone-8:abalone-4'
p1225
F10282.204197756671
sS'abalone-0-abalone-8:abalone-7'
p1226
F8048.285197215575
sS'abalone-0-abalone-8:abalone-6'
p1227
F8481.745348548307
sS'abalone-0-abalone-8:abalone-1'
p1228
F11301.94100834444
sS'abalone-0-abalone-8:abalone-3'
p1229
F138.93036385867163
sS'abalone-0-abalone-8:abalone-2'
p1230
F11313.087031137047
sS'abalone-4-abalone-5:abalone-7'
p1231
F1506.8920063197093
sS'abalone-5-abalone-6:abalone-3'
p1232
F105.3265028932368
sS'abalone-5-abalone-6:abalone-1'
p1233
F2948.6771290652264
sS'abalone-3-abalone-4-abalone-6-abalone-8:abalone-0'
p1234
F12146.562321828087
sS'abalone-3-abalone-4-abalone-6-abalone-8:abalone-1'
p1235
F9420.35785223994
sS'abalone-3-abalone-4-abalone-6-abalone-8:abalone-2'
p1236
F9314.837589161942
sS'abalone-4-abalone-5:abalone-3'
p1237
F103.49402862506793
sS'abalone-0-abalone-1-abalone-2-abalone-3-abalone-8:abalone-5'
p1238
F11600.789833085126
sS'abalone-3-abalone-4-abalone-6-abalone-8:abalone-5'
p1239
F5551.665321109312
sS'abalone-0-abalone-1-abalone-2-abalone-3-abalone-8:abalone-7'
p1240
F11209.615090652354
sS'abalone-0-abalone-1-abalone-2-abalone-3-abalone-8:abalone-6'
p1241
F11422.206076176983
sS'abalone-0-abalone-2-abalone-5-abalone-6-abalone-7:abalone-3'
p1242
F5644.5204218028675
sS'abalone-0-abalone-5-abalone-6-abalone-7-abalone-8:abalone-4'
p1243
F11169.698563176891
sS'abalone-0-abalone-2-abalone-5-abalone-6-abalone-7:abalone-1'
p1244
F8678.741749772793
sS'abalone-0-abalone-5-abalone-6-abalone-7-abalone-8:abalone-1'
p1245
F15091.083812325876
sS'abalone-0-abalone-5-abalone-6-abalone-7-abalone-8:abalone-3'
p1246
F5694.536072843644
sS'abalone-0-abalone-5-abalone-6-abalone-7-abalone-8:abalone-2'
p1247
F15048.328943886241
sS'abalone-1-abalone-6:abalone-2'
p1248
F1385.8452734667958
sS'abalone-0-abalone-2-abalone-5-abalone-6-abalone-7:abalone-8'
p1249
I0
sS'abalone-1-abalone-3-abalone-5-abalone-7:abalone-0'
p1250
F4756.331095183028
sS'abalone-1-abalone-3-abalone-5-abalone-7:abalone-2'
p1251
F3227.1422321901455
sS'abalone-1-abalone-3-abalone-5-abalone-7:abalone-4'
p1252
F3195.3182248148614
sS'abalone-1-abalone-3-abalone-5-abalone-7:abalone-6'
p1253
F3292.179661308236
sS'abalone-1-abalone-3-abalone-5-abalone-7:abalone-8'
p1254
I0
sS'abalone-0-abalone-1-abalone-3-abalone-7:abalone-8'
p1255
I0
sS'abalone-0-abalone-1-abalone-3-abalone-7:abalone-4'
p1256
F2789.106929557788
sS'abalone-0-abalone-1-abalone-3-abalone-7:abalone-5'
p1257
F2908.240727957568
sS'abalone-0-abalone-1-abalone-3-abalone-7:abalone-6'
p1258
F2760.4232879837446
sS'abalone-0-abalone-1-abalone-3-abalone-7:abalone-2'
p1259
F2482.5348849336524
sS'abalone-4-abalone-6-abalone-7-abalone-8:abalone-5'
p1260
F5903.835623956524
sS'abalone-0-abalone-1-abalone-2:abalone-8'
p1261
I0
sS'abalone-4-abalone-6-abalone-7-abalone-8:abalone-0'
p1262
F12339.011678170953
sS'abalone-4-abalone-6-abalone-7-abalone-8:abalone-1'
p1263
F9734.735368031623
sS'abalone-4-abalone-6-abalone-7-abalone-8:abalone-2'
p1264
F9659.27209504453
sS'abalone-4-abalone-6-abalone-7-abalone-8:abalone-3'
p1265
F1948.731808333654
sS'abalone-0-abalone-1-abalone-2:abalone-3'
p1266
F252.7012951064786
sS'abalone-0-abalone-2-abalone-3-abalone-5-abalone-6-abalone-8:abalone-1'
p1267
F33529.47922696452
sS'abalone-0-abalone-2-abalone-3-abalone-5-abalone-6-abalone-8:abalone-7'
p1268
F33850.145607289436
sS'abalone-0-abalone-1-abalone-2:abalone-7'
p1269
F2183.183967038088
sS'abalone-0-abalone-1-abalone-2:abalone-4'
p1270
F2321.3891482154445
sS'abalone-0-abalone-2-abalone-3-abalone-5-abalone-6-abalone-8:abalone-4'
p1271
F33463.9786073342
sS'abalone-1-abalone-5:abalone-0'
p1272
F3866.575329898911
sS'abalone-1-abalone-5:abalone-3'
p1273
F103.50262768882328
sS'abalone-1-abalone-5:abalone-2'
p1274
F1389.745330501487
sS'abalone-1-abalone-5:abalone-4'
p1275
F1663.677375628341
sS'abalone-1-abalone-5:abalone-7'
p1276
F1798.976868413777
sS'abalone-1-abalone-5:abalone-6'
p1277
F1587.4147952222147
sS'abalone-1-abalone-5:abalone-8'
p1278
I0
sS'abalone-1-abalone-2-abalone-3-abalone-4-abalone-5:abalone-0'
p1279
F8735.512650043009
sS'abalone-0-abalone-1-abalone-2-abalone-3-abalone-6:abalone-8'
p1280
I0
sS'abalone-0-abalone-5:abalone-2'
p1281
F2990.767609328625
sS'abalone-0-abalone-2-abalone-4-abalone-5:abalone-7'
p1282
F2811.3361193563587
sS'abalone-0-abalone-1-abalone-2-abalone-3-abalone-6:abalone-7'
p1283
F7497.942427581338
sS'abalone-2-abalone-4-abalone-6-abalone-7-abalone-8:abalone-0'
p1284
F17072.422932263227
sS'abalone-0-abalone-1-abalone-2-abalone-3-abalone-6:abalone-5'
p1285
F7433.432739927108
sS'abalone-0-abalone-1-abalone-2-abalone-3-abalone-6:abalone-4'
p1286
F7464.824719096036
sS'abalone-0-abalone-1-abalone-3-abalone-4-abalone-8:abalone-2'
p1287
F9454.159929644571
sS'abalone-0-abalone-1-abalone-3-abalone-4-abalone-8:abalone-7'
p1288
F9711.229906657085
sS'abalone-0-abalone-1-abalone-3-abalone-4-abalone-8:abalone-6'
p1289
F9881.960872878768
sS'abalone-0-abalone-1-abalone-3-abalone-4-abalone-8:abalone-5'
p1290
F9781.741388692077
sS'abalone-0-abalone-2-abalone-3-abalone-4-abalone-5-abalone-6-abalone-7:abalone-1'
p1291
F151126.1406087749
sS'abalone-0-abalone-2-abalone-3-abalone-4-abalone-5-abalone-6-abalone-7:abalone-8'
p1292
F111870.13546655032
sS'abalone-0-abalone-1-abalone-3-abalone-4-abalone-6-abalone-7-abalone-8:abalone-5'
p1293
F153184.87949197603
sS'abalone-0-abalone-1-abalone-3-abalone-4-abalone-6-abalone-7-abalone-8:abalone-2'
p1294
F153302.82081822798
sS'abalone-0-abalone-2-abalone-4-abalone-5:abalone-6'
p1295
F2692.968084611265
sS'abalone-5-abalone-8:abalone-1'
p1296
F9139.189732269168
sS'abalone-5-abalone-8:abalone-2'
p1297
F9171.683635402376
sS'abalone-5-abalone-8:abalone-3'
p1298
F167.68740684257534
sS'abalone-0-abalone-5:abalone-4'
p1299
F2052.092097192354
sS'abalone-5-abalone-8:abalone-4'
p1300
F6108.432531542636
sS'abalone-5-abalone-8:abalone-6'
p1301
F5107.674825548389
sS'abalone-0-abalone-5-abalone-8:abalone-7'
p1302
F5341.5030149585755
sS'abalone-0-abalone-2-abalone-3-abalone-4:abalone-5'
p1303
F2566.9725200946154
sS'abalone-1-abalone-2-abalone-3-abalone-4-abalone-6:abalone-0'
p1304
F8712.466792585095
sS'abalone-0-abalone-6:abalone-7'
p1305
F1822.592485872739
sS'abalone-0-abalone-6:abalone-5'
p1306
F1776.7751728484814
sS'abalone-6:abalone-0'
p1307
F3959.89548670337
sS'abalone-0-abalone-6:abalone-3'
p1308
F72.64205669228068
sS'abalone-0-abalone-6:abalone-2'
p1309
F3013.479820627537
sS'abalone-0-abalone-6:abalone-1'
p1310
F3004.6910494269337
sS'abalone-0-abalone-6:abalone-8'
p1311
I0
sS'abalone-0-abalone-3-abalone-4-abalone-5-abalone-7:abalone-8'
p1312
I0
sS'abalone-0-abalone-3-abalone-4-abalone-5-abalone-7:abalone-6'
p1313
F7138.406334335803
sS'abalone-0-abalone-3-abalone-4-abalone-5-abalone-7:abalone-1'
p1314
F8351.953391599956
sS'abalone-0-abalone-3-abalone-4-abalone-5-abalone-7:abalone-2'
p1315
F8333.821643002373
sS'abalone-0-abalone-1-abalone-2-abalone-4-abalone-7:abalone-5'
p1316
F8754.137544849378
sS'abalone-0-abalone-1-abalone-4-abalone-5-abalone-6:abalone-2'
p1317
F8634.76904233001
sS'abalone-0-abalone-1-abalone-4-abalone-5-abalone-6:abalone-7'
p1318
F8716.756609228485
sS'abalone-0-abalone-1-abalone-4-abalone-5-abalone-6:abalone-8'
p1319
I0
sS'abalone-2-abalone-3-abalone-5-abalone-6-abalone-8:abalone-7'
p1320
F13953.43116136124
sS'abalone-2-abalone-3-abalone-5-abalone-6-abalone-8:abalone-4'
p1321
F13575.075546919685
sS'abalone-2-abalone-3-abalone-5-abalone-6-abalone-8:abalone-1'
p1322
F13590.852107875671
sS'abalone-2-abalone-3-abalone-5-abalone-6-abalone-8:abalone-0'
p1323
F15947.35533037111
sS'abalone-0-abalone-4:abalone-5'
p1324
F1509.1359591217736
sS'abalone-0-abalone-1-abalone-5-abalone-6-abalone-8:abalone-7'
p1325
F11410.402572419356
sS'abalone-0-abalone-1-abalone-2-abalone-3:abalone-8'
p1326
I0
sS'abalone-0-abalone-1-abalone-5-abalone-6-abalone-8:abalone-4'
p1327
F11023.686010930543
sS'abalone-0-abalone-1-abalone-5-abalone-6-abalone-8:abalone-3'
p1328
F5700.03062335754
sS'abalone-0-abalone-1-abalone-5-abalone-6-abalone-8:abalone-2'
p1329
F11030.636571078972
sS'abalone-0-abalone-1-abalone-2-abalone-3:abalone-5'
p1330
F3130.3192924634427
sS'abalone-0-abalone-1-abalone-2-abalone-3:abalone-4'
p1331
F3217.7219869915357
sS'abalone-0-abalone-1-abalone-2-abalone-3:abalone-7'
p1332
F3074.8619897233734
sS'abalone-0-abalone-1-abalone-2-abalone-3:abalone-6'
p1333
F3070.651336526295
sS'abalone-0:abalone-2'
p1334
F3868.251248970935
sS'abalone-0:abalone-5'
p1335
F3014.026895056084
sS'abalone-0:abalone-4'
p1336
F3556.983033126662
sS'abalone-1-abalone-2-abalone-3-abalone-4-abalone-5:abalone-7'
p1337
F11304.626900388635
sS'abalone-0:abalone-6'
p1338
F2926.767460806097
sS'abalone-0-abalone-1-abalone-2-abalone-3-abalone-5:abalone-4'
p1339
F7391.960844979241
sS'abalone-0-abalone-2-abalone-3-abalone-4:abalone-1'
p1340
F2446.5670500879687
sS'abalone-0-abalone-1-abalone-2-abalone-3-abalone-5:abalone-6'
p1341
F7373.7647839899655
sS'abalone-0-abalone-1-abalone-2-abalone-3-abalone-5:abalone-7'
p1342
F7575.048606852699
sS'abalone-0-abalone-1-abalone-2-abalone-3-abalone-5:abalone-8'
p1343
I0
sS'abalone-1-abalone-2-abalone-3-abalone-4-abalone-6:abalone-7'
p1344
F11245.723207323103
sS'abalone-1-abalone-2-abalone-3-abalone-4-abalone-6:abalone-5'
p1345
F11165.129749031406
sS'abalone-0-abalone-2-abalone-4-abalone-6-abalone-7-abalone-8:abalone-5'
p1346
F40713.7068318695
sS'abalone-0-abalone-2-abalone-4-abalone-6-abalone-7-abalone-8:abalone-3'
p1347
F28177.4623730534
sS'abalone-0-abalone-2-abalone-4-abalone-6-abalone-7-abalone-8:abalone-1'
p1348
F40880.61399381603
sS'abalone-1-abalone-2-abalone-3-abalone-4-abalone-6:abalone-8'
p1349
I0
sS'abalone-0-abalone-1-abalone-2:abalone-5'
p1350
F2232.2914381409296
sS'abalone-1-abalone-3-abalone-4:abalone-7'
p1351
F1779.8982474410864
sS'abalone-0-abalone-1-abalone-5:abalone-3'
p1352
F250.9198034487744
sS'abalone-0-abalone-1-abalone-5:abalone-2'
p1353
F1563.4661370157785
sS'abalone-0-abalone-1-abalone-5:abalone-4'
p1354
F1803.203639966053
sS'abalone-0-abalone-1-abalone-5:abalone-7'
p1355
F1941.0210833555786
sS'abalone-0-abalone-1-abalone-5:abalone-6'
p1356
F1726.7440180598926
sS'abalone-0-abalone-1-abalone-5:abalone-8'
p1357
I0
sS'abalone-2-abalone-3-abalone-4-abalone-5-abalone-6:abalone-1'
p1358
F11171.36070487199
sS'abalone-2-abalone-3-abalone-4-abalone-5-abalone-6:abalone-0'
p1359
F8714.234326071635
sS'abalone-2-abalone-3-abalone-4-abalone-5-abalone-6:abalone-7'
p1360
F11240.185862522481
sS'abalone-2-abalone-3-abalone-4-abalone-5-abalone-6:abalone-8'
p1361
I0
sS'abalone-3-abalone-5-abalone-6-abalone-7-abalone-8:abalone-2'
p1362
F17855.30877791353
sS'abalone-3-abalone-5-abalone-6-abalone-7-abalone-8:abalone-0'
p1363
F16162.502075305063
sS'abalone-3-abalone-5-abalone-6-abalone-7-abalone-8:abalone-1'
p1364
F17884.016145582656
sS'abalone-3-abalone-5-abalone-6-abalone-7-abalone-8:abalone-4'
p1365
F13805.806058340915
sS'abalone-1-abalone-2-abalone-6-abalone-7-abalone-8:abalone-5'
p1366
F16456.50831090783
sS'abalone-1-abalone-2-abalone-6-abalone-7-abalone-8:abalone-4'
p1367
F16091.611980137845
sS'abalone-1-abalone-2-abalone-6-abalone-7-abalone-8:abalone-3'
p1368
F9437.184156409323
sS'abalone-3:abalone-8'
p1369
I0
sS'abalone-1-abalone-2-abalone-6-abalone-7-abalone-8:abalone-0'
p1370
F17132.942487071345
sS'abalone-3:abalone-6'
p1371
F3555.021461145901
sS'abalone-3:abalone-7'
p1372
F3448.27295322531
sS'abalone-3:abalone-4'
p1373
F4254.123941569713
sS'abalone-3:abalone-5'
p1374
F3588.162119780914
sS'abalone-3:abalone-2'
p1375
F4501.523816209297
sS'abalone-3:abalone-0'
p1376
F4582.469084247143
sS'abalone-0-abalone-3-abalone-4-abalone-6-abalone-8:abalone-5'
p1377
F9500.72110123871
sS'abalone-3-abalone-6-abalone-8:abalone-0'
p1378
F11700.157028117312
sS'abalone-3-abalone-6-abalone-8:abalone-1'
p1379
F9501.237021696594
sS'abalone-3-abalone-6-abalone-8:abalone-2'
p1380
F9525.611093722633
sS'abalone-3-abalone-6-abalone-8:abalone-4'
p1381
F6744.915978879202
sS'abalone-3-abalone-6-abalone-8:abalone-5'
p1382
F5564.6543821786
sS'abalone-3-abalone-6-abalone-8:abalone-7'
p1383
F5373.000777920051
sS'abalone-0-abalone-2-abalone-3-abalone-4-abalone-6-abalone-8:abalone-5'
p1384
F33351.87652335718
sS'abalone-0-abalone-5-abalone-7:abalone-8'
p1385
I0
sS'abalone-0-abalone-5-abalone-7:abalone-3'
p1386
F249.0802586364971
sS'abalone-0-abalone-5-abalone-7:abalone-2'
p1387
F2980.0234081837298
sS'abalone-0-abalone-5-abalone-7:abalone-1'
p1388
F2980.3163537630044
sS'abalone-0-abalone-5-abalone-7:abalone-6'
p1389
F1662.5977001139472
sS'abalone-0-abalone-5-abalone-7:abalone-4'
p1390
F1786.8183503259133
sS'abalone-1-abalone-3-abalone-6-abalone-8:abalone-5'
p1391
F6387.095410813156
sS'abalone-1-abalone-3-abalone-6-abalone-8:abalone-4'
p1392
F6664.036809422551
sS'abalone-1-abalone-3-abalone-6-abalone-8:abalone-7'
p1393
F6278.1103866453695
sS'abalone-0-abalone-1-abalone-4-abalone-5:abalone-2'
p1394
F2654.524681622732
sS'abalone-1-abalone-3-abalone-6-abalone-8:abalone-0'
p1395
F12039.908172938745
sS'abalone-0-abalone-1-abalone-4-abalone-5:abalone-7'
p1396
F2799.5053314552933
sS'abalone-1-abalone-3-abalone-6-abalone-8:abalone-2'
p1397
F5762.106087982455
sS'abalone-0-abalone-1-abalone-2-abalone-4-abalone-6-abalone-8:abalone-5'
p1398
F40742.88644471402
sS'abalone-0-abalone-1-abalone-2-abalone-4-abalone-6-abalone-8:abalone-7'
p1399
F40826.43416109551
sS'abalone-0-abalone-1-abalone-2-abalone-4-abalone-6-abalone-8:abalone-3'
p1400
F28195.6432498398
sS'abalone-0-abalone-1-abalone-2-abalone-3-abalone-4-abalone-6:abalone-8'
p1401
I0
sS'abalone-0-abalone-1-abalone-2-abalone-3-abalone-4-abalone-6:abalone-7'
p1402
F31224.19432542497
sS'abalone-0-abalone-1-abalone-2-abalone-3-abalone-4-abalone-6:abalone-5'
p1403
F31145.31264431195
sS'abalone-1-abalone-3-abalone-4-abalone-6-abalone-7:abalone-2'
p1404
F11151.732078007919
sS'abalone-1-abalone-3-abalone-4-abalone-6-abalone-7:abalone-0'
p1405
F8712.053914380576
sS'abalone-0-abalone-2-abalone-5-abalone-8:abalone-3'
p1406
F1202.4946032379983
sS'abalone-0-abalone-2-abalone-5-abalone-8:abalone-1'
p1407
F5156.880017156972
sS'abalone-0-abalone-2-abalone-5-abalone-8:abalone-6'
p1408
F5588.5140158383265
sS'abalone-0-abalone-2-abalone-5-abalone-8:abalone-7'
p1409
F5886.044880010902
sS'abalone-0-abalone-2-abalone-5-abalone-8:abalone-4'
p1410
F5618.079201077738
sS'abalone-1-abalone-2-abalone-3-abalone-4-abalone-5-abalone-6-abalone-7:abalone-8'
p1411
F207031.65420786268
sS'abalone-0-abalone-1-abalone-2-abalone-3-abalone-6-abalone-8:abalone-7'
p1412
F34044.756822443465
sS'abalone-0-abalone-1-abalone-2-abalone-3-abalone-6-abalone-8:abalone-5'
p1413
F34138.37645413485
sS'abalone-0-abalone-1-abalone-2-abalone-3-abalone-6-abalone-8:abalone-4'
p1414
F34195.90119158474
sS'abalone-1-abalone-2-abalone-3-abalone-7:abalone-8'
p1415
I0
sS'abalone-0-abalone-2-abalone-7:abalone-1'
p1416
F1576.7172474340568
sS'abalone-0-abalone-2-abalone-7:abalone-3'
p1417
F245.93414092825265
sS'abalone-0-abalone-2-abalone-7:abalone-4'
p1418
F1842.2290531953859
sS'abalone-0-abalone-2-abalone-7:abalone-5'
p1419
F2003.0867192974274
sS'abalone-0-abalone-2-abalone-7:abalone-6'
p1420
F1852.2229606434703
sS'abalone-0-abalone-2-abalone-7:abalone-8'
p1421
I0
sS'abalone-3-abalone-4-abalone-6-abalone-7-abalone-8:abalone-1'
p1422
F17220.416536383844
sS'abalone-0-abalone-3-abalone-4-abalone-7:abalone-1'
p1423
F3636.8415665172224
sS'abalone-0-abalone-3-abalone-4-abalone-7:abalone-2'
p1424
F3594.352925758735
sS'abalone-0-abalone-3-abalone-4-abalone-7:abalone-5'
p1425
F2564.709718887384
sS'abalone-0-abalone-3-abalone-4-abalone-7:abalone-6'
p1426
F2520.2357452125916
sS'abalone-0-abalone-3-abalone-4-abalone-7:abalone-8'
p1427
I0
sS'abalone-2-abalone-4-abalone-7:abalone-0'
p1428
F3992.951745983636
sS'abalone-0-abalone-3-abalone-8:abalone-7'
p1429
F8211.697405316974
sS'abalone-2-abalone-4-abalone-7:abalone-3'
p1430
F395.0609059270255
sS'abalone-0-abalone-2-abalone-3-abalone-6-abalone-7:abalone-8'
p1431
I0
sS'abalone-0-abalone-2-abalone-5-abalone-7:abalone-8'
p1432
I0
sS'abalone-0-abalone-2-abalone-3-abalone-6-abalone-7:abalone-5'
p1433
F7395.38512295591
sS'abalone-0-abalone-2-abalone-3-abalone-6-abalone-7:abalone-4'
p1434
F7251.051448152908
sS'abalone-1-abalone-2-abalone-3-abalone-4-abalone-5-abalone-6:abalone-7'
p1435
F51215.83960297344
sS'abalone-1-abalone-2-abalone-3-abalone-4-abalone-5-abalone-6:abalone-0'
p1436
F28692.64968786564
sS'abalone-4-abalone-5-abalone-6-abalone-7-abalone-8:abalone-1'
p1437
F19593.06010425296
sS'abalone-4-abalone-5-abalone-6-abalone-7-abalone-8:abalone-0'
p1438
F17279.110140211928
sS'abalone-4-abalone-5-abalone-6-abalone-7-abalone-8:abalone-3'
p1439
F9447.251632914546
sS'abalone-4-abalone-5-abalone-6-abalone-7-abalone-8:abalone-2'
p1440
F19545.291806730325
sS'abalone-1-abalone-2-abalone-3-abalone-4-abalone-5-abalone-6:abalone-8'
p1441
F4960.521113532335
sS'abalone-0-abalone-1-abalone-2-abalone-3-abalone-4-abalone-6-abalone-7-abalone-8:abalone-5'
p1442
F808389.9743049149
sS'abalone-2-abalone-3-abalone-5-abalone-7:abalone-6'
p1443
F3282.6092331751997
sS'abalone-2-abalone-3-abalone-5-abalone-7:abalone-4'
p1444
F3175.084238180164
sS'abalone-0-abalone-1-abalone-4-abalone-6:abalone-8'
p1445
I0
sS'abalone-2-abalone-3-abalone-5-abalone-7:abalone-1'
p1446
F3221.505624033688
sS'abalone-0-abalone-1-abalone-4-abalone-6:abalone-7'
p1447
F2751.307113003478
sS'abalone-0-abalone-1-abalone-4-abalone-6:abalone-5'
p1448
F2662.6810829639794
sS'abalone-0-abalone-1-abalone-4-abalone-6:abalone-2'
p1449
F2651.6727983597243
sS'abalone-0-abalone-1-abalone-4-abalone-6:abalone-3'
p1450
F1149.0601558598346
sS'abalone-2-abalone-3-abalone-5-abalone-7:abalone-8'
p1451
I0
sS'abalone-0-abalone-1-abalone-2-abalone-4-abalone-5-abalone-7-abalone-8:abalone-3'
p1452
F140676.06334504622
sS'abalone-0-abalone-1-abalone-2-abalone-4-abalone-5-abalone-7-abalone-8:abalone-6'
p1453
F190576.4265181149
sS'abalone-0-abalone-2-abalone-7-abalone-8:abalone-4'
p1454
F5988.3543084590865
sS'abalone-0-abalone-2-abalone-7-abalone-8:abalone-5'
p1455
F6333.850029221793
sS'abalone-2-abalone-6-abalone-7-abalone-8:abalone-4'
p1456
F6269.687490615799
sS'abalone-2-abalone-6-abalone-7-abalone-8:abalone-5'
p1457
F6571.065421511883
sS'abalone-0-abalone-2-abalone-7-abalone-8:abalone-1'
p1458
F5232.979171057547
sS'abalone-2-abalone-6-abalone-7-abalone-8:abalone-0'
p1459
F12190.096776779554
sS'abalone-2-abalone-6-abalone-7-abalone-8:abalone-1'
p1460
F6127.648546215907
sS'abalone-1-abalone-4-abalone-8:abalone-0'
p1461
F11317.53145497177
sS'abalone-1-abalone-4-abalone-8:abalone-2'
p1462
F4023.432757913838
sS'abalone-1-abalone-4-abalone-8:abalone-3'
p1463
F454.69132178173857
sS'abalone-1-abalone-4-abalone-8:abalone-5'
p1464
F4365.4324016414375
sS'abalone-1-abalone-4-abalone-8:abalone-6'
p1465
F4547.383294359852
sS'abalone-1-abalone-4-abalone-8:abalone-7'
p1466
F4347.05061507664
sS'abalone-0-abalone-3-abalone-6:abalone-8'
p1467
I0
sS'abalone-0-abalone-1-abalone-2-abalone-3-abalone-5-abalone-6:abalone-8'
p1468
I0
sS'abalone-0-abalone-3-abalone-6:abalone-1'
p1469
F3182.9728572792555
sS'abalone-0-abalone-3-abalone-6:abalone-2'
p1470
F3191.850181520773
sS'abalone-0-abalone-3-abalone-6:abalone-4'
p1471
F2327.235911138807
sS'abalone-0-abalone-1-abalone-2-abalone-3-abalone-5-abalone-6:abalone-7'
p1472
F31419.655050208265
sS'abalone-0-abalone-1-abalone-2-abalone-3-abalone-5-abalone-6:abalone-4'
p1473
F31176.704623480884
sS'abalone-0-abalone-3-abalone-6:abalone-7'
p1474
F1999.470402282328
sS'abalone-3-abalone-4-abalone-5-abalone-8:abalone-7'
p1475
F5862.57500966062
sS'abalone-3-abalone-4-abalone-5-abalone-8:abalone-6'
p1476
F5736.803139928371
sS'abalone-3:abalone-1'
p1477
F4483.169126438916
sS'abalone-3-abalone-4-abalone-5-abalone-8:abalone-2'
p1478
F9327.969768585592
sS'abalone-3-abalone-4-abalone-5-abalone-8:abalone-1'
p1479
F9422.314627046531
sS'abalone-3-abalone-4-abalone-5-abalone-8:abalone-0'
p1480
F12251.196434810749
sS'abalone-2-abalone-6-abalone-8:abalone-7'
p1481
F4770.357177361174
sS'abalone-1-abalone-2-abalone-3-abalone-5:abalone-4'
p1482
F3444.2074764220342
sS'abalone-1-abalone-2-abalone-3-abalone-5:abalone-6'
p1483
F3429.8097002928716
sS'abalone-1-abalone-2-abalone-3-abalone-5:abalone-7'
p1484
F3628.8189587767647
sS'abalone-1-abalone-2-abalone-3-abalone-5:abalone-0'
p1485
F4787.759281485801
sS'abalone-1-abalone-2-abalone-3-abalone-5:abalone-8'
p1486
I0
sS'abalone-1-abalone-2-abalone-4-abalone-6-abalone-7-abalone-8:abalone-5'
p1487
F65704.64664665576
sS'abalone-1-abalone-2-abalone-4-abalone-6-abalone-7-abalone-8:abalone-3'
p1488
F46933.673302079886
sS'abalone-1-abalone-2-abalone-4-abalone-6-abalone-7-abalone-8:abalone-0'
p1489
F42003.46389034119
sS'abalone-2-abalone-4-abalone-7-abalone-8:abalone-0'
p1490
F12199.636477047336
sS'abalone-2-abalone-4-abalone-7-abalone-8:abalone-1'
p1491
F6060.62630696629
sS'abalone-2-abalone-4-abalone-7-abalone-8:abalone-3'
p1492
F1934.7456878845703
sS'abalone-2-abalone-4-abalone-7-abalone-8:abalone-5'
p1493
F6239.312155801689
sS'abalone-2-abalone-4-abalone-7-abalone-8:abalone-6'
p1494
F6212.65852717832
sS'abalone-0-abalone-1:abalone-5'
p1495
F2127.732704041402
sS'abalone-0-abalone-1:abalone-6'
p1496
F2069.1189789823184
sS'abalone-0-abalone-4-abalone-5-abalone-6-abalone-7:abalone-1'
p1497
F9812.289352213593
sS'abalone-0-abalone-4-abalone-5-abalone-6-abalone-7:abalone-3'
p1498
F5645.566205964098
sS'abalone-0-abalone-4-abalone-5-abalone-6-abalone-7:abalone-2'
p1499
F9796.972516509768
sS'abalone-2-abalone-3-abalone-4-abalone-6:abalone-8'
p1500
I0
sS'abalone-0-abalone-4-abalone-5-abalone-6-abalone-7:abalone-8'
p1501
I0
sS'abalone-2-abalone-3-abalone-4-abalone-6:abalone-5'
p1502
F3199.1763054562593
sS'abalone-2-abalone-3-abalone-4-abalone-6:abalone-0'
p1503
F4731.126722918886
sS'abalone-2-abalone-3-abalone-4-abalone-6:abalone-1'
p1504
F3205.407261296841
sS'abalone-2-abalone-6-abalone-7:abalone-8'
p1505
I0
sS'abalone-0-abalone-1:abalone-2'
p1506
F1458.907402916255
sS'abalone-2-abalone-6-abalone-7:abalone-3'
p1507
F397.5123149923629
sS'abalone-2-abalone-6-abalone-7:abalone-0'
p1508
F3995.6513535923727
sS'abalone-2-abalone-6-abalone-7:abalone-1'
p1509
F1735.364208124507
sS'abalone-2-abalone-6-abalone-7:abalone-4'
p1510
F1787.4451677409288
sS'abalone-2-abalone-6-abalone-7:abalone-5'
p1511
F1925.339519603227
sS'abalone-2-abalone-7:abalone-0'
p1512
F3855.2233687883845
sS'abalone-1-abalone-3-abalone-5-abalone-7-abalone-8:abalone-0'
p1513
F15995.550776483007
sS'abalone-1-abalone-3-abalone-5-abalone-7-abalone-8:abalone-2'
p1514
F13582.260301906443
sS'abalone-2-abalone-7:abalone-4'
p1515
F1704.5006760001318
sS'abalone-1-abalone-3-abalone-5-abalone-7-abalone-8:abalone-4'
p1516
F13479.959602596036
sS'abalone-2-abalone-7:abalone-6'
p1517
F1711.7949758394764
sS'abalone-1-abalone-3-abalone-5-abalone-7-abalone-8:abalone-6'
p1518
F13735.146282969507
sS'abalone-2-abalone-7:abalone-8'
p1519
I0
sS'abalone-1:abalone-0'
p1520
F3966.7306956541943
sS'abalone-1:abalone-2'
p1521
F1474.5540959344562
sS'abalone-1:abalone-3'
p1522
F45.613748549072966
sS'abalone-1:abalone-4'
p1523
F2434.825410647578
sS'abalone-1:abalone-5'
p1524
F2227.8880697966943
sS'abalone-1:abalone-6'
p1525
F2201.8954122178384
sS'abalone-1:abalone-7'
p1526
F2164.955718816649
sS'abalone-1:abalone-8'
p1527
I0
sS'abalone-0-abalone-4-abalone-5-abalone-7:abalone-3'
p1528
F1145.6551007805117
sS'abalone-0-abalone-4-abalone-5-abalone-7:abalone-2'
p1529
F3837.0989286684717
sS'abalone-0-abalone-4-abalone-5-abalone-7:abalone-1'
p1530
F3855.1858915028624
sS'abalone-0-abalone-4-abalone-5-abalone-7:abalone-6'
p1531
F2638.4952291522204
sS'abalone-0-abalone-1-abalone-2-abalone-3-abalone-6-abalone-7-abalone-8:abalone-5'
p1532
F153863.30181960863
sS'abalone-0-abalone-4-abalone-5-abalone-7:abalone-8'
p1533
I0
sS'abalone-0-abalone-3-abalone-7:abalone-1'
p1534
F3235.318782919066
sS'abalone-0-abalone-3-abalone-7:abalone-2'
p1535
F3242.6912435551435
sS'abalone-0-abalone-3-abalone-7:abalone-5'
p1536
F2268.9006723770885
sS'abalone-0-abalone-3-abalone-7:abalone-4'
p1537
F2387.5841459596318
sS'abalone-2-abalone-5:abalone-8'
p1538
I0
sS'abalone-0-abalone-3-abalone-7:abalone-6'
p1539
F2067.9233686366038
sS'abalone-2-abalone-5:abalone-6'
p1540
F1576.2753416267408
sS'abalone-0-abalone-3-abalone-7:abalone-8'
p1541
I0
sS'abalone-2-abalone-5:abalone-4'
p1542
F1612.5378206779226
sS'abalone-2-abalone-5:abalone-3'
p1543
F103.61814841286775
sS'abalone-2-abalone-5:abalone-0'
p1544
F3861.0696715708136
sS'abalone-2-abalone-5:abalone-1'
p1545
F1369.5174030808023
sS'abalone-0-abalone-6-abalone-7:abalone-4'
p1546
F1943.4254941705472
sS'abalone-0-abalone-1-abalone-2-abalone-4-abalone-5-abalone-6-abalone-8:abalone-3'
p1547
F140694.28592368102
sS'abalone-3-abalone-4-abalone-5:abalone-0'
p1548
F4044.927280591975
sS'abalone-0-abalone-1-abalone-2-abalone-3-abalone-5-abalone-8:abalone-4'
p1549
F33917.74630301123
sS'abalone-3-abalone-4-abalone-5:abalone-6'
p1550
F1686.857668058317
sS'abalone-0-abalone-1-abalone-2-abalone-4-abalone-5-abalone-6-abalone-8:abalone-7'
p1551
F190704.805802965
sS'abalone-0-abalone-1-abalone-2-abalone-3-abalone-5-abalone-8:abalone-7'
p1552
F34237.8108217451
sS'abalone-3-abalone-4-abalone-5:abalone-8'
p1553
I0
sS'abalone-0-abalone-1-abalone-2-abalone-4-abalone-7:abalone-3'
p1554
F5642.801021260708
sS'abalone-1-abalone-2-abalone-4:abalone-6'
p1555
F1864.8129925995875
sS'abalone-1-abalone-2-abalone-4:abalone-7'
p1556
F1862.571009350899
sS'abalone-0-abalone-2-abalone-4-abalone-6-abalone-7:abalone-8'
p1557
I0
sS'abalone-1-abalone-2-abalone-4:abalone-5'
p1558
F1828.9905064446014
sS'abalone-1-abalone-2-abalone-4:abalone-3'
p1559
F401.49922322501186
sS'abalone-1-abalone-2-abalone-4:abalone-0'
p1560
F4011.8288216833994
sS'abalone-0-abalone-2-abalone-4-abalone-6-abalone-7:abalone-3'
p1561
F5642.7054515980535
sS'abalone-0-abalone-2-abalone-4-abalone-6-abalone-7:abalone-1'
p1562
F8657.62087387571
sS'abalone-1-abalone-2-abalone-4:abalone-8'
p1563
I0
sS'abalone-0-abalone-2-abalone-4-abalone-6-abalone-7:abalone-5'
p1564
F8639.62058271783
sS'abalone-0-abalone-6-abalone-7:abalone-3'
p1565
F249.5199731018688
sS'abalone-0-abalone-2-abalone-4-abalone-5:abalone-1'
p1566
F2684.4424323581793
sS'abalone-0-abalone-6-abalone-7:abalone-8'
p1567
I0
sS'abalone-1-abalone-2-abalone-4-abalone-5-abalone-6:abalone-8'
p1568
I0
sS'abalone-1-abalone-2-abalone-6-abalone-8:abalone-4'
p1569
F6840.004955717886
sS'abalone-1-abalone-2-abalone-6-abalone-8:abalone-5'
p1570
F6722.661713369798
sS'abalone-1-abalone-2-abalone-4-abalone-5-abalone-6:abalone-7'
p1571
F13722.470727614465
sS'abalone-1-abalone-2-abalone-6-abalone-8:abalone-7'
p1572
F6659.22570493694
sS'abalone-1-abalone-2-abalone-6-abalone-8:abalone-0'
p1573
F12226.065979362966
sS'abalone-1-abalone-2-abalone-4-abalone-5-abalone-6:abalone-0'
p1574
F9945.137449783611
sS'abalone-1-abalone-2-abalone-4-abalone-5-abalone-6:abalone-3'
p1575
F9400.832361447769
sS'abalone-1-abalone-2-abalone-6-abalone-8:abalone-3'
p1576
F1959.5178953980144
sS'abalone-2-abalone-3-abalone-4-abalone-7:abalone-6'
p1577
F3294.5524077213795
sS'abalone-2-abalone-3-abalone-4-abalone-7:abalone-5'
p1578
F3326.8539462645604
sS'abalone-2-abalone-3-abalone-4-abalone-7:abalone-1'
p1579
F3216.2013930464545
sS'abalone-2-abalone-3-abalone-4-abalone-7:abalone-0'
p1580
F4740.8417559527
sS'abalone-0-abalone-1-abalone-2-abalone-3-abalone-5-abalone-6-abalone-8:abalone-7'
p1581
F153769.68218791726
sS'abalone-0-abalone-1-abalone-2-abalone-3-abalone-5-abalone-6-abalone-8:abalone-4'
p1582
F153299.0538560053
sS'abalone-2-abalone-3-abalone-4-abalone-7:abalone-8'
p1583
I0
sS'abalone-5-abalone-7-abalone-8:abalone-3'
p1584
F460.15053212027124
sS'abalone-5-abalone-7-abalone-8:abalone-2'
p1585
F8773.591896510989
sS'abalone-5-abalone-7-abalone-8:abalone-1'
p1586
F8779.363926285183
sS'abalone-5-abalone-7-abalone-8:abalone-0'
p1587
F11623.019571595602
sS'abalone-5-abalone-7-abalone-8:abalone-6'
p1588
F4609.301792811182
sS'abalone-5-abalone-7-abalone-8:abalone-4'
p1589
F5050.899737702117
sS'abalone-2-abalone-3-abalone-4-abalone-5-abalone-6-abalone-8:abalone-7'
p1590
F53359.631907112635
sS'abalone-6:abalone-2'
p1591
F3143.5422123038948
sS'abalone-6:abalone-1'
p1592
F3130.6322737116307
sS'abalone-0-abalone-2-abalone-4-abalone-5-abalone-6-abalone-8:abalone-3'
p1593
F28195.1502252063
sS'abalone-6:abalone-7'
p1594
F1860.0323678107338
sS'abalone-2-abalone-3-abalone-4-abalone-5-abalone-6-abalone-8:abalone-1'
p1595
F53436.4738436976
sS'abalone-2-abalone-3-abalone-4-abalone-5-abalone-6-abalone-8:abalone-0'
p1596
F35836.25839078564
sS'abalone-1-abalone-2-abalone-3-abalone-6-abalone-7:abalone-4'
p1597
F11227.088926280763
sS'abalone-6:abalone-8'
p1598
I0
sS'abalone-1-abalone-2-abalone-3-abalone-6-abalone-7:abalone-5'
p1599
F11386.259428694397
sS'abalone-4-abalone-5-abalone-8:abalone-3'
p1600
F459.77926513434284
sS'abalone-0-abalone-1-abalone-4-abalone-5:abalone-3'
p1601
F1148.676100935138
sS'abalone-0-abalone-1-abalone-4-abalone-5:abalone-6'
p1602
F2678.347412089759
sS'abalone-1-abalone-3-abalone-5:abalone-8'
p1603
I0
sS'abalone-0-abalone-1-abalone-4-abalone-5:abalone-8'
p1604
I0
sS'abalone-0-abalone-7:abalone-6'
p1605
F1889.6870991807982
sS'abalone-1-abalone-3-abalone-5:abalone-7'
p1606
F2091.1854337556774
sS'abalone-0-abalone-7:abalone-4'
p1607
F2212.6412116488436
sS'abalone-0-abalone-7:abalone-5'
p1608
F2091.1041173866497
sS'abalone-0-abalone-7:abalone-2'
p1609
F3068.040806272952
sS'abalone-0-abalone-7:abalone-3'
p1610
F71.2837036460578
sS'abalone-1-abalone-3-abalone-5:abalone-0'
p1611
F4013.992505658861
sS'abalone-0-abalone-7:abalone-1'
p1612
F3062.0626835163957
sS'abalone-0-abalone-4-abalone-6:abalone-3'
p1613
F250.66803067184014
sS'abalone-1-abalone-2-abalone-4-abalone-8:abalone-3'
p1614
F1953.8064198886561
sS'abalone-1-abalone-2-abalone-4-abalone-8:abalone-0'
p1615
F12248.98358349901
sS'abalone-1-abalone-2-abalone-4-abalone-8:abalone-6'
p1616
F6456.697236061912
sS'abalone-1-abalone-2-abalone-4-abalone-8:abalone-7'
p1617
F6265.92470946883
sS'abalone-0-abalone-4-abalone-6:abalone-5'
p1618
F1532.323367781218
sS'abalone-1-abalone-2-abalone-4-abalone-8:abalone-5'
p1619
F6276.846325235631
sS'abalone-0-abalone-4-abalone-6:abalone-8'
p1620
I0
sS'abalone-0-abalone-2-abalone-3-abalone-6-abalone-7-abalone-8:abalone-5'
p1621
F33980.17472627202
sS'abalone-0-abalone-2-abalone-3-abalone-6-abalone-7-abalone-8:abalone-4'
p1622
F33644.672373890135
sS'abalone-0-abalone-2-abalone-3-abalone-6-abalone-7-abalone-8:abalone-1'
p1623
F33565.888714255714
sS'abalone-0-abalone-7-abalone-8:abalone-6'
p1624
F5511.989754213202
sS'abalone-0-abalone-7-abalone-8:abalone-4'
p1625
F6583.398616164464
sS'abalone-0-abalone-7-abalone-8:abalone-5'
p1626
F6087.67444637645
sS'abalone-0-abalone-7-abalone-8:abalone-2'
p1627
F9144.366909127642
sS'abalone-0-abalone-7-abalone-8:abalone-3'
p1628
F302.3425719600723
sS'abalone-0-abalone-7-abalone-8:abalone-1'
p1629
F9131.722954169032
sS'abalone-6-abalone-7:abalone-8'
p1630
I0
sS'abalone-6-abalone-7:abalone-4'
p1631
F1817.121260275082
sS'abalone-6-abalone-7:abalone-5'
p1632
F1707.1486568356195
sS'abalone-6-abalone-7:abalone-0'
p1633
F3922.4556047653723
sS'abalone-6-abalone-7:abalone-1'
p1634
F2957.239942876368
sS'abalone-6-abalone-7:abalone-2'
p1635
F2957.380918908626
sS'abalone-6-abalone-7:abalone-3'
p1636
F104.14602613579518
sS'abalone-0-abalone-2-abalone-4-abalone-7:abalone-8'
p1637
I0
sS'abalone-0-abalone-1-abalone-2-abalone-4-abalone-5-abalone-6-abalone-7:abalone-3'
p1638
F140642.1282888811
sS'abalone-0-abalone-2-abalone-3-abalone-5:abalone-7'
p1639
F2819.748977790932
sS'abalone-0-abalone-2-abalone-3-abalone-5:abalone-6'
p1640
F2618.037655925996
sS'abalone-0-abalone-2-abalone-3-abalone-5:abalone-1'
p1641
F2448.447985103051
sS'abalone-1-abalone-2-abalone-5:abalone-8'
p1642
I0
sS'abalone-1-abalone-2-abalone-5:abalone-7'
p1643
F2136.5920985832736
sS'abalone-0-abalone-2-abalone-4-abalone-7:abalone-1'
p1644
F2697.734323330785
sS'abalone-0-abalone-1-abalone-2-abalone-4-abalone-5-abalone-6-abalone-7:abalone-8'
p1645
F151498.11287460805
sS'abalone-0-abalone-2-abalone-4-abalone-7:abalone-3'
p1646
F1142.9509158960866
sS'abalone-1-abalone-2-abalone-5:abalone-3'
p1647
F403.26600435639864
sS'abalone-0-abalone-2-abalone-3-abalone-5:abalone-8'
p1648
I0
sS'abalone-0-abalone-2-abalone-4-abalone-7:abalone-6'
p1649
F2763.4997711883802
sS'abalone-1-abalone-2-abalone-5:abalone-0'
p1650
F4040.296136413201
sS'abalone-0-abalone-2-abalone-4:abalone-8'
p1651
I0
sS'abalone-0-abalone-2-abalone-4:abalone-7'
p1652
F1674.162454472269
sS'abalone-0-abalone-2-abalone-4:abalone-6'
p1653
F1677.798340813777
sS'abalone-0-abalone-2-abalone-4:abalone-5'
p1654
F1667.577872028607
sS'abalone-0-abalone-2-abalone-4:abalone-3'
p1655
F249.32291368290248
sS'abalone-0-abalone-2-abalone-3-abalone-4-abalone-7:abalone-5'
p1656
F7304.178436131023
sS'abalone-0-abalone-2-abalone-4:abalone-1'
p1657
F1546.855829888299
sS'abalone-0-abalone-2-abalone-3-abalone-4-abalone-7:abalone-1'
p1658
F7197.584428695406
sS'abalone-0-abalone-1-abalone-3-abalone-4-abalone-7-abalone-8:abalone-5'
p1659
F33600.304699059416
sS'abalone-0-abalone-1-abalone-3-abalone-4-abalone-7-abalone-8:abalone-6'
p1660
F33542.69350447604
sS'abalone-0-abalone-1-abalone-3-abalone-4-abalone-7-abalone-8:abalone-2'
p1661
F33370.65020038829
sS'abalone-2-abalone-5-abalone-6-abalone-7-abalone-8:abalone-3'
p1662
F9439.939950503063
sS'abalone-2-abalone-5-abalone-6-abalone-7-abalone-8:abalone-1'
p1663
F16013.091435611872
sS'abalone-2-abalone-5-abalone-6-abalone-7-abalone-8:abalone-0'
p1664
F17100.92611893721
sS'abalone-2-abalone-5-abalone-6-abalone-7-abalone-8:abalone-4'
p1665
F15488.47740474623
sS'abalone-0-abalone-1-abalone-3-abalone-4-abalone-5-abalone-6-abalone-8:abalone-2'
p1666
F153310.40701541264
sS'abalone-0-abalone-1-abalone-3-abalone-4-abalone-5-abalone-6-abalone-8:abalone-7'
p1667
F153258.7412342234
sS'abalone-0-abalone-5-abalone-6-abalone-8:abalone-7'
p1668
F5777.525453587099
sS'abalone-0-abalone-5-abalone-6-abalone-8:abalone-4'
p1669
F6010.77308023681
sS'abalone-0-abalone-5-abalone-6-abalone-8:abalone-2'
p1670
F9458.493154099182
sS'abalone-0-abalone-5-abalone-6-abalone-8:abalone-3'
p1671
F1205.1007140814218
sS'abalone-0-abalone-5-abalone-6-abalone-8:abalone-1'
p1672
F9458.2066934936
sS'abalone-0-abalone-1-abalone-2-abalone-6-abalone-8:abalone-4'
p1673
F11701.801434957517
sS'abalone-0-abalone-1-abalone-2-abalone-6-abalone-8:abalone-5'
p1674
F11640.491586906375
sS'abalone-0-abalone-2-abalone-5-abalone-7-abalone-8:abalone-3'
p1675
F5683.762900828174
sS'abalone-0-abalone-1-abalone-2-abalone-6-abalone-8:abalone-7'
p1676
F11566.102212645323
sS'abalone-0-abalone-2-abalone-5-abalone-7-abalone-8:abalone-4'
p1677
F10818.819898478716
sS'abalone-0-abalone-1-abalone-2-abalone-6-abalone-8:abalone-3'
p1678
F5701.5434932125445
sS'abalone-1-abalone-3-abalone-6:abalone-0'
p1679
F3981.2686092531862
sS'abalone-1-abalone-3-abalone-6:abalone-2'
p1680
F1685.6059474795438
sS'abalone-1-abalone-3-abalone-6:abalone-5'
p1681
F1912.6556620092997
sS'abalone-1-abalone-3-abalone-6:abalone-4'
p1682
F2026.8110853004855
sS'abalone-1-abalone-3-abalone-6:abalone-7'
p1683
F1979.167591797257
sS'abalone-1-abalone-3-abalone-6:abalone-8'
p1684
I0
sS'abalone-0-abalone-3-abalone-4:abalone-5'
p1685
F1688.5316440051358
sS'abalone-1-abalone-3-abalone-5-abalone-6:abalone-8'
p1686
I0
sS'abalone-1-abalone-3-abalone-5-abalone-6:abalone-0'
p1687
F4753.247430111984
sS'abalone-1-abalone-3-abalone-5-abalone-6:abalone-2'
p1688
F3232.548513010209
sS'abalone-1-abalone-3-abalone-5-abalone-6:abalone-4'
p1689
F3295.523631212399
sS'abalone-1-abalone-3-abalone-5-abalone-6:abalone-7'
p1690
F3496.5952006121997
sS'abalone-2-abalone-3-abalone-5-abalone-6-abalone-7-abalone-8:abalone-0'
p1691
F35844.069776299344
sS'abalone-2-abalone-3-abalone-5-abalone-6-abalone-7-abalone-8:abalone-1'
p1692
F53508.390444442666
sS'abalone-2-abalone-3-abalone-5-abalone-6-abalone-7-abalone-8:abalone-4'
p1693
F52981.2762926711
sS'abalone-0-abalone-1-abalone-3:abalone-2'
p1694
F1638.4917141209119
sS'abalone-0-abalone-3-abalone-4:abalone-2'
p1695
F2717.2364826914113
sS'abalone-3-abalone-4-abalone-5-abalone-6:abalone-7'
p1696
F3286.8875908031328
sS'abalone-3-abalone-4-abalone-5-abalone-6:abalone-1'
p1697
F4450.96434378907
sS'abalone-3-abalone-4-abalone-5-abalone-6:abalone-0'
p1698
F4800.177498832165
sS'abalone-0-abalone-2-abalone-4-abalone-5-abalone-6-abalone-7-abalone-8:abalone-3'
p1699
F140676.17552057866
sS'abalone-0-abalone-1-abalone-3:abalone-7'
p1700
F2230.8188189106295
sS'abalone-3-abalone-4-abalone-5-abalone-6:abalone-8'
p1701
I0
sS'abalone-0-abalone-1-abalone-3:abalone-6'
p1702
F2246.925859625102
sS'abalone-0-abalone-5-abalone-7-abalone-8:abalone-6'
p1703
F5412.043927288317
sS'abalone-0-abalone-5-abalone-7-abalone-8:abalone-4'
p1704
F5831.862655883537
sS'abalone-0-abalone-5-abalone-7-abalone-8:abalone-3'
p1705
F1196.4234138507854
sS'abalone-0-abalone-5-abalone-7-abalone-8:abalone-2'
p1706
F9390.542491972992
sS'abalone-0-abalone-5-abalone-7-abalone-8:abalone-1'
p1707
F9408.764631325252
sS'abalone-1-abalone-2-abalone-3-abalone-5-abalone-8:abalone-4'
p1708
F14070.846046524392
sS'abalone-2-abalone-3-abalone-4-abalone-6-abalone-7:abalone-1'
p1709
F11176.076425002644
sS'abalone-1-abalone-2-abalone-3-abalone-5-abalone-8:abalone-6'
p1710
F14138.623186336104
sS'abalone-1-abalone-2-abalone-3-abalone-5-abalone-8:abalone-7'
p1711
F14377.023626427746
sS'abalone-1-abalone-2-abalone-3-abalone-5-abalone-8:abalone-0'
p1712
F16064.812938569388
sS'abalone-0-abalone-3-abalone-4:abalone-7'
p1713
F1690.674013618129
sS'abalone-6-abalone-8:abalone-7'
p1714
F5079.766455609735
sS'abalone-1-abalone-3-abalone-5-abalone-6-abalone-8:abalone-0'
p1715
F15951.444400319187
sS'abalone-1-abalone-2-abalone-5-abalone-6-abalone-8:abalone-3'
p1716
F9457.341763880577
sS'abalone-0-abalone-1-abalone-3:abalone-8'
p1717
I0
sS'abalone-6-abalone-8:abalone-3'
p1718
F167.93970608233246
sS'abalone-1-abalone-2-abalone-5-abalone-6-abalone-8:abalone-4'
p1719
F15926.136646616047
sS'abalone-6-abalone-8:abalone-1'
p1720
F9208.926996469494
sS'abalone-6-abalone-8:abalone-0'
p1721
F11560.746453315205
sS'abalone-0-abalone-1-abalone-2-abalone-7:abalone-5'
p1722
F3131.652015206044
sS'abalone-1-abalone-7:abalone-6'
p1723
F1723.5797303766676
sS'abalone-1-abalone-7:abalone-5'
p1724
F1861.9092193938186
sS'abalone-0-abalone-1-abalone-2-abalone-7:abalone-6'
p1725
F2994.487216295569
sS'abalone-1-abalone-7:abalone-3'
p1726
F96.8345692111352
sS'abalone-1-abalone-7:abalone-2'
p1727
F1407.6969452024086
sS'abalone-0-abalone-1-abalone-2-abalone-7:abalone-3'
p1728
F1144.3793177917655
sS'abalone-1-abalone-7:abalone-0'
p1729
F3861.1709766012737
sS'abalone-1-abalone-2-abalone-6-abalone-7:abalone-5'
p1730
F3886.965809943271
sS'abalone-1-abalone-4-abalone-5-abalone-7-abalone-8:abalone-2'
p1731
F15864.444401820267
sS'abalone-1-abalone-4-abalone-5-abalone-7-abalone-8:abalone-3'
p1732
F9433.131221778327
sS'abalone-1-abalone-4-abalone-5-abalone-7-abalone-8:abalone-0'
p1733
F17126.49664539009
sS'abalone-1-abalone-4-abalone-5-abalone-7-abalone-8:abalone-6'
p1734
F15755.916286248479
sS'abalone-0-abalone-2-abalone-3-abalone-7-abalone-8:abalone-6'
p1735
F10419.761476563157
sS'abalone-0-abalone-2-abalone-3-abalone-7-abalone-8:abalone-5'
p1736
F10830.785116596593
sS'abalone-0-abalone-2-abalone-3-abalone-7-abalone-8:abalone-4'
p1737
F10479.82918572373
sS'abalone-0-abalone-3-abalone-4-abalone-5-abalone-7-abalone-8:abalone-1'
p1738
F36924.67413603581
sS'abalone-0-abalone-3-abalone-4-abalone-5-abalone-7-abalone-8:abalone-2'
p1739
F36867.639172566836
sS'abalone-0-abalone-3-abalone-4-abalone-5-abalone-7-abalone-8:abalone-6'
p1740
F33249.57509415646
sS'abalone-2-abalone-4-abalone-5-abalone-6-abalone-7-abalone-8:abalone-3'
p1741
F46932.73883842787
sS'abalone-2-abalone-4-abalone-5-abalone-6-abalone-7-abalone-8:abalone-1'
p1742
F65864.36434675129
sS'abalone-2-abalone-4-abalone-5-abalone-6-abalone-7-abalone-8:abalone-0'
p1743
F41996.27442849031
sS'abalone-0-abalone-1-abalone-2-abalone-4-abalone-5-abalone-8:abalone-7'
p1744
F40969.76740928175
sS'abalone-0-abalone-1-abalone-2-abalone-4-abalone-5-abalone-8:abalone-6'
p1745
F40841.38812443165
sS'abalone-1-abalone-3-abalone-4-abalone-5-abalone-8:abalone-6'
p1746
F13545.608131133713
sS'abalone-1-abalone-3-abalone-4-abalone-5-abalone-8:abalone-7'
p1747
F13637.835645205994
sS'abalone-0-abalone-1-abalone-4-abalone-5-abalone-7:abalone-8'
p1748
I0
sS'abalone-1-abalone-3-abalone-4-abalone-5-abalone-8:abalone-2'
p1749
F13433.958764613048
sS'abalone-1-abalone-3-abalone-4-abalone-5-abalone-8:abalone-0'
p1750
F15978.044914283524
sS'abalone-0-abalone-1-abalone-4-abalone-5-abalone-7:abalone-2'
p1751
F8629.033368433084
sS'abalone-0-abalone-1-abalone-4-abalone-5-abalone-7:abalone-3'
p1752
F5642.422600877612
sS'abalone-0-abalone-1-abalone-4-abalone-5-abalone-7:abalone-6'
p1753
F8595.598689862949
sS'abalone-1-abalone-2-abalone-5-abalone-7-abalone-8:abalone-0'
p1754
F17182.378367483525
sS'abalone-1-abalone-2-abalone-5-abalone-7-abalone-8:abalone-3'
p1755
F9435.938802041106
sS'abalone-1-abalone-2-abalone-5-abalone-7-abalone-8:abalone-4'
p1756
F15764.95128277263
sS'abalone-1-abalone-2-abalone-5-abalone-7-abalone-8:abalone-6'
p1757
F16133.268900543842
sS'abalone-4-abalone-7-abalone-8:abalone-2'
p1758
F7832.564317200587
sS'abalone-4-abalone-7-abalone-8:abalone-3'
p1759
F449.2502571384339
sS'abalone-4-abalone-7-abalone-8:abalone-0'
p1760
F11482.878192825638
sS'abalone-4-abalone-7-abalone-8:abalone-1'
p1761
F7950.883771860862
sS'abalone-4-abalone-7-abalone-8:abalone-6'
p1762
F4385.95074933437
sS'abalone-4-abalone-7-abalone-8:abalone-5'
p1763
F4415.034189144142
sS'abalone-0-abalone-2-abalone-3-abalone-5-abalone-8:abalone-6'
p1764
F10086.31865655019
sS'abalone-2-abalone-4-abalone-5-abalone-6:abalone-0'
p1765
F4966.78612775405
sS'abalone-0-abalone-2-abalone-3-abalone-5-abalone-7-abalone-8:abalone-1'
p1766
F33526.5028304321
sS'abalone-0-abalone-2-abalone-3-abalone-5-abalone-7-abalone-8:abalone-6'
p1767
F33569.151086238635
sS'abalone-0-abalone-2-abalone-3-abalone-5-abalone-7-abalone-8:abalone-4'
p1768
F33311.569519868
sS'abalone-2-abalone-3-abalone-4:abalone-8'
p1769
I0
sS'abalone-2-abalone-3-abalone-4:abalone-0'
p1770
F3980.0539026620136
sS'abalone-2-abalone-3-abalone-4:abalone-1'
p1771
F1667.2572204090252
sS'abalone-2-abalone-3-abalone-4:abalone-5'
p1772
F1792.4852000389753
sS'abalone-2-abalone-3-abalone-4:abalone-6'
p1773
F1826.5009674988494
sS'abalone-2-abalone-3-abalone-4:abalone-7'
p1774
F1807.0026033947677
sS'abalone-0-abalone-1-abalone-6-abalone-7-abalone-8:abalone-3'
p1775
F5680.650904295499
sS'abalone-0-abalone-1-abalone-6-abalone-7-abalone-8:abalone-2'
p1776
F11056.319757762205
sS'abalone-0-abalone-1-abalone-6-abalone-7-abalone-8:abalone-5'
p1777
F11510.475133363643
sS'abalone-0-abalone-1-abalone-6-abalone-7-abalone-8:abalone-4'
p1778
F11215.049923830815
sS'abalone-0-abalone-1-abalone-3-abalone-5-abalone-6:abalone-4'
p1779
F7253.203021836741
sS'abalone-1-abalone-2-abalone-3-abalone-7:abalone-0'
p1780
F4783.924556632341
sS'abalone-1-abalone-2-abalone-3-abalone-7:abalone-6'
p1781
F3550.7061109885435
sS'abalone-1-abalone-2-abalone-3-abalone-7:abalone-4'
p1782
F3523.367597591743
sS'abalone-1-abalone-2-abalone-3-abalone-7:abalone-5'
p1783
F3680.4415366633693
sS'abalone-0-abalone-3-abalone-5-abalone-6:abalone-2'
p1784
F3918.4405295859956
sS'abalone-1-abalone-3-abalone-4-abalone-7-abalone-8:abalone-0'
p1785
F15943.944677862612
sS'abalone-1-abalone-3-abalone-4-abalone-7-abalone-8:abalone-2'
p1786
F13441.574135513429
sS'abalone-0-abalone-1-abalone-3-abalone-5-abalone-6:abalone-7'
p1787
F7461.327023673438
sS'abalone-1-abalone-3-abalone-4-abalone-7-abalone-8:abalone-5'
p1788
F13674.246890820064
sS'abalone-1-abalone-3-abalone-4-abalone-7-abalone-8:abalone-6'
p1789
F13669.284571798225
sS'abalone-0-abalone-3-abalone-5-abalone-6:abalone-4'
p1790
F2803.0895508154094
sS'abalone-2-abalone-4-abalone-7:abalone-1'
p1791
F1716.3873090671657
sS'abalone-1-abalone-3-abalone-5-abalone-6-abalone-7-abalone-8:abalone-4'
p1792
F53000.52992620469
sS'abalone-1-abalone-3-abalone-5-abalone-6-abalone-7-abalone-8:abalone-2'
p1793
F53479.68307677359
sS'abalone-1-abalone-3-abalone-5-abalone-6-abalone-7-abalone-8:abalone-0'
p1794
F35854.007811831456
sS'abalone-2-abalone-4-abalone-5-abalone-6-abalone-7:abalone-8'
p1795
I0
sS'abalone-1-abalone-2-abalone-3-abalone-4-abalone-5-abalone-6-abalone-7:abalone-0'
p1796
F128663.55582683976
sS'abalone-1-abalone-2-abalone-3-abalone-6-abalone-7:abalone-0'
p1797
F8726.950220028053
sS'abalone-0-abalone-2-abalone-4-abalone-5-abalone-6-abalone-8:abalone-1'
p1798
F40865.41877716072
sS'abalone-4-abalone-5-abalone-8:abalone-6'
p1799
F4236.983713389494
sS'abalone-4-abalone-5-abalone-8:abalone-7'
p1800
F4374.902313457311
sS'abalone-4-abalone-5-abalone-8:abalone-0'
p1801
F11510.831588006831
sS'abalone-4-abalone-5-abalone-8:abalone-1'
p1802
F7929.133682738832
sS'abalone-4-abalone-5-abalone-8:abalone-2'
p1803
F7834.632396203176
sS'abalone-0-abalone-2-abalone-4-abalone-5-abalone-6-abalone-8:abalone-7'
p1804
F40782.05933159579
sS'abalone-1-abalone-2-abalone-3-abalone-6-abalone-7:abalone-8'
p1805
I0
sS'abalone-0-abalone-1-abalone-2-abalone-4-abalone-5:abalone-3'
p1806
F5648.427809835233
sS'abalone-1-abalone-2-abalone-3-abalone-5-abalone-7-abalone-8:abalone-0'
p1807
F35925.600133886735
sS'abalone-1-abalone-2-abalone-3-abalone-5-abalone-7-abalone-8:abalone-6'
p1808
F53632.569057836576
sS'abalone-1-abalone-2-abalone-3-abalone-5-abalone-7-abalone-8:abalone-4'
p1809
F53261.40830022926
sS'abalone-1-abalone-5-abalone-8:abalone-0'
p1810
F11401.091618534003
sS'abalone-1-abalone-5-abalone-8:abalone-3'
p1811
F460.04682560172694
sS'abalone-1-abalone-5-abalone-8:abalone-2'
p1812
F4255.124333192834
sS'abalone-1-abalone-5-abalone-8:abalone-4'
p1813
F4898.376482012301
sS'abalone-1-abalone-5-abalone-8:abalone-7'
p1814
F5072.609301313857
sS'abalone-1-abalone-5-abalone-8:abalone-6'
p1815
F4799.49197025786
sS'abalone-7:abalone-8'
p1816
I0
sS'abalone-3-abalone-5-abalone-6:abalone-4'
p1817
F2090.767640513644
sS'abalone-7:abalone-2'
p1818
F3213.063076417765
sS'abalone-7:abalone-3'
p1819
F46.89920236713442
sS'abalone-7:abalone-0'
p1820
F4000.245638933194
sS'abalone-7:abalone-1'
p1821
F3201.1373458483204
sS'abalone-7:abalone-6'
p1822
F1967.4771333486206
sS'abalone-7:abalone-4'
p1823
F2327.901932438057
sS'abalone-7:abalone-5'
p1824
F2154.901664656705
sS'abalone-0-abalone-1-abalone-3-abalone-4-abalone-7:abalone-8'
p1825
I0
sS'abalone-1-abalone-3-abalone-5-abalone-6-abalone-8:abalone-2'
p1826
F13595.496259021675
sS'abalone-1-abalone-3-abalone-5-abalone-6-abalone-8:abalone-4'
p1827
F13639.368485730625
sS'abalone-1-abalone-3-abalone-5-abalone-6-abalone-8:abalone-7'
p1828
F13986.782680176382
sS'abalone-0-abalone-1-abalone-3-abalone-4-abalone-7:abalone-2'
p1829
F7155.095787936915
sS'abalone-0-abalone-1-abalone-2-abalone-4:abalone-5'
p1830
F2805.1644744984906
sS'abalone-0-abalone-1-abalone-3-abalone-4-abalone-7:abalone-5'
p1831
F7279.821543970117
sS'abalone-0-abalone-1-abalone-3-abalone-4-abalone-7:abalone-6'
p1832
F7247.620272385495
sS'abalone-0-abalone-3-abalone-6-abalone-7:abalone-1'
p1833
F3927.8187022662073
sS'abalone-0-abalone-1-abalone-8:abalone-4'
p1834
F6768.229223965942
sS'abalone-0-abalone-1-abalone-8:abalone-5'
p1835
F6318.845307157337
sS'abalone-0-abalone-1-abalone-8:abalone-6'
p1836
F6125.982708183854
sS'abalone-0-abalone-1-abalone-8:abalone-7'
p1837
F5878.06714304018
sS'abalone-0-abalone-1-abalone-8:abalone-2'
p1838
F4388.7936522319005
sS'abalone-0-abalone-1-abalone-8:abalone-3'
p1839
F308.69903005521746
sS'abalone-3-abalone-5-abalone-8:abalone-7'
p1840
F5724.898232575522
sS'abalone-3-abalone-5-abalone-8:abalone-6'
p1841
F5405.400611952884
sS'abalone-3-abalone-5-abalone-8:abalone-4'
p1842
F6400.524389834411
sS'abalone-3-abalone-5-abalone-8:abalone-2'
p1843
F9464.360944992823
sS'abalone-3-abalone-5-abalone-8:abalone-1'
p1844
F9431.549151028325
sS'abalone-3-abalone-5-abalone-8:abalone-0'
p1845
F11853.527325746449
sS'abalone-0-abalone-1-abalone-2-abalone-3-abalone-4-abalone-5-abalone-7-abalone-8:abalone-6'
p1846
F808346.0931437622
sS'abalone-0-abalone-1-abalone-2-abalone-4:abalone-8'
p1847
I0
sS'abalone-1-abalone-5-abalone-6-abalone-7-abalone-8:abalone-4'
p1848
F15503.47278393506
sS'abalone-0-abalone-1-abalone-2-abalone-4:abalone-3'
p1849
F1149.034133882571
sS'abalone-1-abalone-5-abalone-6-abalone-7-abalone-8:abalone-0'
p1850
F17110.908069043024
sS'abalone-0-abalone-1-abalone-2-abalone-4:abalone-7'
p1851
F2825.0409479147556
sS'abalone-1-abalone-5-abalone-6-abalone-7-abalone-8:abalone-2'
p1852
F15980.318517278067
sS'abalone-1-abalone-5-abalone-6-abalone-7-abalone-8:abalone-3'
p1853
F9435.874399838383
sS'abalone-0-abalone-3-abalone-6-abalone-7:abalone-8'
p1854
I0
sS'abalone-3-abalone-7:abalone-1'
p1855
F3251.0727126923175
sS'abalone-3-abalone-7:abalone-0'
p1856
F4024.630140212116
sS'abalone-3-abalone-7:abalone-2'
p1857
F3264.9054177212092
sS'abalone-3-abalone-7:abalone-5'
p1858
F2211.803152096565
sS'abalone-3-abalone-7:abalone-4'
p1859
F2380.8932511618295
sS'abalone-3-abalone-7:abalone-6'
p1860
F2024.7239571172759
sS'abalone-3-abalone-7:abalone-8'
p1861
I0
sS'abalone-1-abalone-4-abalone-5:abalone-7'
p1862
F1831.7716867260078
sS'abalone-0-abalone-1-abalone-2-abalone-3-abalone-4:abalone-8'
p1863
I0
sS'abalone-0-abalone-1-abalone-2-abalone-3-abalone-4:abalone-5'
p1864
F7304.558150451141
sS'abalone-0-abalone-1-abalone-2-abalone-3-abalone-4:abalone-7'
p1865
F7318.807835292881
sS'abalone-0-abalone-1-abalone-2-abalone-3-abalone-4:abalone-6'
p1866
F7317.754068630789
sS'abalone-1-abalone-4-abalone-5:abalone-0'
p1867
F4006.1015942366193
sS'abalone-0-abalone-2-abalone-3-abalone-5-abalone-6-abalone-7:abalone-8'
p1868
I0
sS'abalone-0-abalone-1-abalone-2-abalone-5-abalone-6:abalone-8'
p1869
I0
sS'abalone-1-abalone-4-abalone-5:abalone-3'
p1870
F401.21510639051155
sS'abalone-0-abalone-2-abalone-3-abalone-5-abalone-6-abalone-7:abalone-1'
p1871
F31177.205751379293
sS'abalone-0-abalone-1-abalone-2-abalone-5-abalone-6:abalone-3'
p1872
F5650.000452527033
sS'abalone-0-abalone-2-abalone-3-abalone-5-abalone-6-abalone-7:abalone-4'
p1873
F30994.86045782461
sS'abalone-0-abalone-1-abalone-2-abalone-5-abalone-6:abalone-4'
p1874
F8678.360476478118
sS'abalone-0-abalone-1-abalone-2-abalone-5-abalone-6:abalone-7'
p1875
F8926.671079325919
sS'abalone-1-abalone-2-abalone-4-abalone-6:abalone-0'
p1876
F4964.994749445079
sS'abalone-1-abalone-2-abalone-4-abalone-6:abalone-3'
p1877
F1901.3372390120953
sS'abalone-1-abalone-2-abalone-4-abalone-6:abalone-5'
p1878
F3665.6346265957313
sS'abalone-1-abalone-2-abalone-4-abalone-6:abalone-7'
p1879
F3752.3727533969927
sS'abalone-1-abalone-2-abalone-4-abalone-6:abalone-8'
p1880
I0
sS'abalone-0-abalone-1-abalone-3-abalone-4-abalone-6-abalone-7:abalone-5'
p1881
F31127.704547381534
sS'abalone-0-abalone-1-abalone-3-abalone-4-abalone-6-abalone-7:abalone-2'
p1882
F31130.6160743143
sS'abalone-2-abalone-3-abalone-6-abalone-8:abalone-0'
p1883
F12030.288207290816
sS'abalone-2-abalone-3-abalone-6-abalone-8:abalone-1'
p1884
F5737.732015956418
sS'abalone-2-abalone-3-abalone-6-abalone-8:abalone-7'
p1885
F6251.676384122225
sS'abalone-0-abalone-1-abalone-3-abalone-4-abalone-6-abalone-7:abalone-8'
p1886
I0
sS'abalone-2-abalone-3-abalone-6-abalone-8:abalone-5'
p1887
F6367.365489933131
sS'abalone-2-abalone-4:abalone-7'
p1888
F1513.7939436515555
sS'abalone-2-abalone-4:abalone-6'
p1889
F1526.6627205638981
sS'abalone-2-abalone-4:abalone-5'
p1890
F1493.0656361606273
sS'abalone-2-abalone-4:abalone-3'
p1891
F101.85224618381415
sS'abalone-2-abalone-4:abalone-1'
p1892
F1367.6102433678282
sS'abalone-2-abalone-4:abalone-0'
p1893
F3832.583235162924
sS'abalone-2-abalone-4:abalone-8'
p1894
I0
sS'abalone-0-abalone-3-abalone-4-abalone-5-abalone-6:abalone-7'
p1895
F7263.15053653768
sS'abalone-0-abalone-3-abalone-4-abalone-5-abalone-6:abalone-1'
p1896
F8361.713665693229
sS'abalone-0-abalone-3-abalone-4-abalone-5-abalone-6:abalone-2'
p1897
F8346.454648752497
sS'abalone-0-abalone-3-abalone-4-abalone-5-abalone-6:abalone-8'
p1898
I0
sS'abalone-2-abalone-3-abalone-4-abalone-5-abalone-7:abalone-8'
p1899
I0
sS'abalone-4-abalone-5-abalone-7:abalone-3'
p1900
F399.3286765514331
sS'abalone-2-abalone-3-abalone-4-abalone-5-abalone-7:abalone-0'
p1901
F8718.166245819159
sS'abalone-2-abalone-3-abalone-4-abalone-5-abalone-7:abalone-1'
p1902
F11166.436803887435
sS'abalone-2-abalone-3-abalone-4-abalone-5-abalone-7:abalone-6'
p1903
F11132.006585818259
sS'abalone-4-abalone-5-abalone-7:abalone-0'
p1904
F4062.726290617198
sS'abalone-3-abalone-4-abalone-5-abalone-7:abalone-8'
p1905
I0
sS'abalone-0-abalone-1-abalone-2-abalone-5-abalone-8:abalone-3'
p1906
F5701.619772369063
sS'abalone-3-abalone-4-abalone-5-abalone-7:abalone-6'
p1907
F3171.018604615376
sS'abalone-0-abalone-1-abalone-2-abalone-5-abalone-8:abalone-7'
p1908
F11760.270025669855
sS'abalone-0-abalone-1-abalone-2-abalone-5-abalone-8:abalone-6'
p1909
F11461.984109154746
sS'abalone-3-abalone-4-abalone-5-abalone-7:abalone-2'
p1910
F4424.70811202949
sS'abalone-0-abalone-1-abalone-2-abalone-5-abalone-8:abalone-4'
p1911
F11424.792277488274
sS'abalone-1-abalone-2-abalone-7-abalone-8:abalone-5'
p1912
F7288.9413126204445
sS'abalone-1-abalone-2-abalone-7-abalone-8:abalone-4'
p1913
F6955.708626444321
sS'abalone-1-abalone-2-abalone-7-abalone-8:abalone-6'
p1914
F6965.7019022564555
sS'abalone-1-abalone-2-abalone-7-abalone-8:abalone-0'
p1915
F12339.343659123808
sS'abalone-1-abalone-2-abalone-7-abalone-8:abalone-3'
p1916
F1938.8095281521503
sS'abalone-0-abalone-1-abalone-2-abalone-3-abalone-4-abalone-5-abalone-6:abalone-8'
p1917
F112032.21044839034
sS'abalone-0-abalone-1-abalone-2-abalone-3-abalone-4-abalone-5-abalone-6:abalone-7'
p1918
F151186.74574194755
sS'abalone-8:abalone-1'
p1919
F13041.019694046377
sS'abalone-8:abalone-0'
p1920
F13374.786095216943
sS'abalone-8:abalone-3'
p1921
F122.10889816989982
sS'abalone-8:abalone-2'
p1922
F13081.201205553132
sS'abalone-8:abalone-5'
p1923
F10455.291059915511
sS'abalone-8:abalone-4'
p1924
F12238.979044117854
sS'abalone-8:abalone-7'
p1925
F9671.738045595474
sS'abalone-8:abalone-6'
p1926
F10295.78499045004
sS'abalone-1-abalone-2-abalone-3-abalone-6-abalone-7-abalone-8:abalone-4'
p1927
F53588.101125808476
sS'abalone-1-abalone-2-abalone-3-abalone-6-abalone-7-abalone-8:abalone-5'
p1928
F53954.56311383244
sS'abalone-1-abalone-3-abalone-5-abalone-6-abalone-7:abalone-8'
p1929
I0
sS'abalone-1-abalone-2-abalone-3-abalone-6-abalone-7-abalone-8:abalone-0'
p1930
F35875.956433672785
sS'abalone-1-abalone-3-abalone-5-abalone-6-abalone-7:abalone-2'
p1931
F11191.486573901482
sS'abalone-1-abalone-3-abalone-5-abalone-6-abalone-7:abalone-0'
p1932
F8717.979253173224
sS'abalone-1-abalone-3-abalone-5-abalone-6-abalone-7:abalone-4'
p1933
F11032.704788808256
sS'abalone-5-abalone-6-abalone-8:abalone-2'
p1934
F8835.351272076852
sS'abalone-5-abalone-6-abalone-8:abalone-3'
p1935
F465.4131932470667
sS'abalone-5-abalone-6-abalone-8:abalone-0'
p1936
F11582.298327046281
sS'abalone-5-abalone-6-abalone-8:abalone-1'
p1937
F8831.006876978656
sS'abalone-5-abalone-6-abalone-8:abalone-7'
p1938
F4934.062074560619
sS'abalone-5-abalone-6-abalone-8:abalone-4'
p1939
F5237.741419383741
sS'abalone-2-abalone-3-abalone-4-abalone-5-abalone-8:abalone-1'
p1940
F13528.303623073987
sS'abalone-2-abalone-3-abalone-4-abalone-5-abalone-8:abalone-0'
p1941
F15977.287011769171
sS'abalone-2-abalone-3-abalone-4-abalone-5-abalone-8:abalone-7'
p1942
F13676.94039928255
sS'abalone-2-abalone-3-abalone-4-abalone-5-abalone-8:abalone-6'
p1943
F13580.30420192972
sS'abalone-1-abalone-2-abalone-4-abalone-6-abalone-8:abalone-0'
p1944
F17087.86245860258
sS'abalone-0-abalone-4-abalone-5:abalone-8'
p1945
I0
sS'abalone-1-abalone-2-abalone-4-abalone-6-abalone-8:abalone-3'
p1946
F9453.298666333849
sS'abalone-1-abalone-2-abalone-4-abalone-6-abalone-8:abalone-5'
p1947
F15808.793404267963
sS'abalone-1-abalone-2-abalone-4-abalone-6-abalone-8:abalone-7'
p1948
F15910.832729356896
sS'abalone-0-abalone-3-abalone-4-abalone-7-abalone-8:abalone-1'
p1949
F13158.722896212392
sS':abalone-8'
p1950
I0
sS'abalone-0-abalone-3-abalone-4-abalone-7-abalone-8:abalone-2'
p1951
F13039.467181062071
sS'abalone-0-abalone-3-abalone-4-abalone-7-abalone-8:abalone-5'
p1952
F9834.353459236052
sS'abalone-0-abalone-1-abalone-3-abalone-4-abalone-5-abalone-6-abalone-7-abalone-8:abalone-2'
p1953
F808507.915631166
sS'abalone-0-abalone-3-abalone-4-abalone-7-abalone-8:abalone-6'
p1954
F9741.275867438559
sS':abalone-1'
p1955
F4476.516561924882
sS':abalone-0'
p1956
F4580.90772632836
sS':abalone-3'
p1957
F38.9611840350375
sS':abalone-2'
p1958
F4494.831668559068
sS':abalone-5'
p1959
F3581.0332971556163
sS':abalone-4'
p1960
F4249.0107915570625
sS':abalone-7'
p1961
F3440.3349348932134
sS':abalone-6'
p1962
F3547.7797004310855
sS'abalone-1-abalone-2-abalone-3-abalone-4-abalone-5:abalone-6'
p1963
F11201.37152466897
sS'abalone-3-abalone-4-abalone-7-abalone-8:abalone-1'
p1964
F9436.564265115203
sS'abalone-3-abalone-4-abalone-7-abalone-8:abalone-0'
p1965
F12221.786046765414
sS'abalone-3-abalone-4-abalone-7-abalone-8:abalone-2'
p1966
F9318.059747946718
sS'abalone-3-abalone-4-abalone-7-abalone-8:abalone-5'
p1967
F5913.235893343349
sS'abalone-3-abalone-4-abalone-7-abalone-8:abalone-6'
p1968
F5885.432300529584
sS'abalone-1-abalone-2-abalone-4-abalone-7:abalone-8'
p1969
I0
sS'abalone-1-abalone-2-abalone-4-abalone-7:abalone-0'
p1970
F4974.298760247257
sS'abalone-1-abalone-2-abalone-4-abalone-7:abalone-3'
p1971
F1894.8749899063143
sS'abalone-1-abalone-2-abalone-4-abalone-7:abalone-5'
p1972
F3777.6524650925785
sS'abalone-1-abalone-2-abalone-4-abalone-7:abalone-6'
p1973
F3754.6147366456808
sS'abalone-3-abalone-5-abalone-7-abalone-8:abalone-0'
p1974
F12359.292453326116
sS'abalone-3-abalone-5-abalone-7-abalone-8:abalone-1'
p1975
F10255.816826915372
sS'abalone-3-abalone-5-abalone-7-abalone-8:abalone-2'
p1976
F10254.077593583508
sS'abalone-3-abalone-5-abalone-7-abalone-8:abalone-4'
p1977
F6538.201166919498
sS'abalone-3-abalone-5-abalone-7-abalone-8:abalone-6'
p1978
F6106.946964302231
sS'abalone-0-abalone-1-abalone-2-abalone-3-abalone-5-abalone-8:abalone-6'
p1979
F33959.792697226716
sS'abalone-1-abalone-3-abalone-4-abalone-5:abalone-7'
p1980
F3325.1138042405105
sS'abalone-0-abalone-1-abalone-6-abalone-8:abalone-2'
p1981
F5190.906078431162
sS'abalone-0-abalone-1-abalone-6-abalone-8:abalone-3'
p1982
F1202.1600794225087
sS'abalone-0-abalone-1-abalone-6-abalone-8:abalone-7'
p1983
F5700.688533314302
sS'abalone-0-abalone-1-abalone-6-abalone-8:abalone-4'
p1984
F6024.992409800558
sS'abalone-0-abalone-1-abalone-6-abalone-8:abalone-5'
p1985
F5800.761094258571
sS'abalone-3-abalone-4-abalone-8:abalone-6'
p1986
F4808.15118875689
sS'abalone-3-abalone-4-abalone-8:abalone-7'
p1987
F4572.352486255093
sS'abalone-3-abalone-4-abalone-8:abalone-5'
p1988
F4623.013369937826
sS'abalone-3-abalone-4-abalone-8:abalone-2'
p1989
F7987.635102740134
sS'abalone-1-abalone-3-abalone-4-abalone-5:abalone-0'
p1990
F4753.562588781246
sS'abalone-3-abalone-4-abalone-8:abalone-0'
p1991
F11558.504396167396
sS'abalone-3-abalone-4-abalone-8:abalone-1'
p1992
F8181.6267076826025
sS'abalone-3-abalone-6-abalone-7-abalone-8:abalone-5'
p1993
F6618.098189183422
sS'abalone-3-abalone-6-abalone-7-abalone-8:abalone-4'
p1994
F7021.548798986931
sS'abalone-3-abalone-6-abalone-7-abalone-8:abalone-2'
p1995
F10404.2866999248
sS'abalone-3-abalone-6-abalone-7-abalone-8:abalone-1'
p1996
F10406.346630421911
sS'abalone-3-abalone-6-abalone-7-abalone-8:abalone-0'
p1997
F12295.956240867303
sS'abalone-7-abalone-8:abalone-6'
p1998
F5703.813400464311
sS'abalone-4-abalone-6:abalone-2'
p1999
F2581.4219016448496
sS'abalone-7-abalone-8:abalone-4'
p2000
F6851.853670175871
sS'abalone-7-abalone-8:abalone-5'
p2001
F6215.988121617891
sS'abalone-7-abalone-8:abalone-2'
p2002
F9490.48611714712
sS'abalone-7-abalone-8:abalone-3'
p2003
F169.11275559426576
sS'abalone-7-abalone-8:abalone-0'
p2004
F11751.33324683704
sS'abalone-7-abalone-8:abalone-1'
p2005
F9461.883453190514
sS'abalone-4-abalone-6:abalone-8'
p2006
I0
sS'abalone-1-abalone-2-abalone-3-abalone-5-abalone-6-abalone-7-abalone-8:abalone-0'
p2007
F135784.69513944892
sS'abalone-1-abalone-2-abalone-3-abalone-5-abalone-6-abalone-7-abalone-8:abalone-4'
p2008
F252836.70048211704
sS'abalone-1-abalone-4-abalone-5-abalone-7:abalone-2'
p2009
F3652.084767394922
sS'abalone-1-abalone-4-abalone-5-abalone-6-abalone-8:abalone-3'
p2010
F9452.797163849042
sS'abalone-1-abalone-4-abalone-5-abalone-6-abalone-8:abalone-2'
p2011
F15877.71981987556
sS'abalone-1-abalone-4-abalone-5-abalone-6-abalone-8:abalone-0'
p2012
F17088.528466010623
sS'abalone-1-abalone-4-abalone-5-abalone-6-abalone-8:abalone-7'
p2013
F15867.809742391462
sS'abalone-0-abalone-1-abalone-2-abalone-5:abalone-6'
p2014
F2874.4934808919174
sS'abalone-0-abalone-1-abalone-2-abalone-5:abalone-4'
p2015
F2894.262184573005
sS'abalone-0-abalone-1-abalone-2-abalone-5:abalone-8'
p2016
I0
sS'abalone-0-abalone-1-abalone-2-abalone-3-abalone-4-abalone-8:abalone-5'
p2017
F33695.20850443324
sS'abalone-0-abalone-1-abalone-2-abalone-3-abalone-4-abalone-8:abalone-7'
p2018
F33627.72017740081
sS'abalone-0-abalone-1-abalone-2-abalone-3-abalone-4-abalone-8:abalone-6'
p2019
F33794.77963609863
sS'abalone-0-abalone-4-abalone-5-abalone-8:abalone-1'
p2020
F8654.005162480147
sS'abalone-0-abalone-4-abalone-5-abalone-8:abalone-2'
p2021
F8558.767372383789
sS'abalone-0-abalone-4-abalone-5-abalone-8:abalone-3'
p2022
F1200.1441119382607
sS'abalone-0-abalone-4-abalone-5-abalone-8:abalone-6'
p2023
F5081.482113282008
sS'abalone-0-abalone-4-abalone-5-abalone-8:abalone-7'
p2024
F5268.053215227498
sS'abalone-0-abalone-1-abalone-4-abalone-7:abalone-6'
p2025
F2747.8623717249343
sS'abalone-0-abalone-1-abalone-4-abalone-7:abalone-5'
p2026
F2780.3942610509753
sS'abalone-0-abalone-1-abalone-4-abalone-7:abalone-3'
p2027
F1142.9953179584677
sS'abalone-0-abalone-1-abalone-4-abalone-7:abalone-2'
p2028
F2655.290084634677
sS'abalone-0-abalone-1-abalone-4-abalone-7:abalone-8'
p2029
I0
sS'abalone-2-abalone-3-abalone-5-abalone-7:abalone-0'
p2030
F4751.746939430602
sS'abalone-2-abalone-3-abalone-6-abalone-8:abalone-4'
p2031
F6534.14247431851
sS'abalone-1-abalone-2-abalone-5-abalone-7:abalone-8'
p2032
I0
sS'abalone-0-abalone-3-abalone-6-abalone-8:abalone-5'
p2033
F6186.483201941923
sS'abalone-1-abalone-4-abalone-5-abalone-7:abalone-0'
p2034
F4973.8352389659
sS'abalone-0-abalone-3-abalone-6-abalone-8:abalone-7'
p2035
F5968.799990670055
sS'abalone-1-abalone-4-abalone-5-abalone-7:abalone-6'
p2036
F3629.6745976058764
sS'abalone-0-abalone-3-abalone-6-abalone-8:abalone-1'
p2037
F9840.988166518027
sS'abalone-0-abalone-3-abalone-6-abalone-8:abalone-2'
p2038
F9855.742272896137
sS'abalone-0-abalone-1-abalone-4-abalone-5-abalone-6-abalone-7-abalone-8:abalone-3'
p2039
F140676.3106259483
sS'abalone-1-abalone-2-abalone-5-abalone-7:abalone-0'
p2040
F4986.248581933135
sS'abalone-1-abalone-3-abalone-7:abalone-4'
p2041
F2054.7287623415978
sS'abalone-1-abalone-4-abalone-5-abalone-7:abalone-8'
p2042
I0
sS'abalone-1-abalone-2-abalone-5-abalone-7:abalone-3'
p2043
F1895.4928645498878
sS'abalone-1-abalone-2-abalone-5-abalone-7:abalone-4'
p2044
F3621.196400664522
sS'abalone-1-abalone-2-abalone-5-abalone-7:abalone-6'
p2045
F3756.780944411902
sS'abalone-1-abalone-2-abalone-3-abalone-4-abalone-8:abalone-5'
p2046
F13775.112197894055
sS'abalone-1-abalone-2-abalone-3-abalone-4-abalone-8:abalone-7'
p2047
F13746.316323180365
sS'abalone-1-abalone-2-abalone-3-abalone-4-abalone-8:abalone-6'
p2048
F13956.189482507112
sS'abalone-1-abalone-2-abalone-3-abalone-4-abalone-8:abalone-0'
p2049
F15991.616888517017
sS'abalone-2-abalone-3-abalone-5:abalone-1'
p2050
F1669.1652590243343
sS'abalone-2-abalone-3-abalone-5:abalone-0'
p2051
F4008.47655540708
sS'abalone-2-abalone-3-abalone-5:abalone-4'
p2052
F1910.191482327217
sS'abalone-2-abalone-3-abalone-5:abalone-7'
p2053
F2076.478593767405
sS'abalone-2-abalone-3-abalone-5:abalone-6'
p2054
F1875.6229586420911
sS'abalone-2-abalone-3-abalone-5:abalone-8'
p2055
I0
sS'abalone-1-abalone-3-abalone-7-abalone-8:abalone-4'
p2056
F6836.428698366392
sS'abalone-1-abalone-3-abalone-7-abalone-8:abalone-5'
p2057
F7030.715986590419
sS'abalone-1-abalone-3-abalone-7-abalone-8:abalone-6'
p2058
F6670.09456521576
sS'abalone-1-abalone-3-abalone-7-abalone-8:abalone-0'
p2059
F12164.408270619522
sS'abalone-0-abalone-3-abalone-4-abalone-5:abalone-2'
p2060
F3595.6773587808907
sS'abalone-1-abalone-3-abalone-7-abalone-8:abalone-2'
p2061
F5826.905701987463
sS'abalone-0-abalone-3-abalone-4-abalone-5:abalone-8'
p2062
I0
sS'abalone-0-abalone-1-abalone-5-abalone-7-abalone-8:abalone-6'
p2063
F11094.363108288937
sS'abalone-0-abalone-1-abalone-5-abalone-7-abalone-8:abalone-4'
p2064
F10857.508182322592
sS'abalone-0-abalone-1-abalone-5-abalone-7-abalone-8:abalone-2'
p2065
F11012.883023463655
sS'abalone-0-abalone-1-abalone-5-abalone-7-abalone-8:abalone-3'
p2066
F5679.7339325977955
sS'abalone-0-abalone-1-abalone-6:abalone-8'
p2067
I0
sS'abalone-0-abalone-2-abalone-4-abalone-5-abalone-8:abalone-6'
p2068
F10939.562440838423
sS'abalone-0-abalone-2-abalone-4-abalone-5-abalone-8:abalone-7'
p2069
F11086.785577411889
sS'abalone-0-abalone-1-abalone-6:abalone-4'
p2070
F1877.4836941509152
sS'abalone-0-abalone-1-abalone-6:abalone-5'
p2071
F1785.3577431189756
sS'abalone-0-abalone-1-abalone-6:abalone-2'
p2072
F1562.4215474040634
sS'abalone-0-abalone-2-abalone-4-abalone-5-abalone-8:abalone-3'
p2073
F5695.437085098502
sS'abalone-0-abalone-2-abalone-4-abalone-5-abalone-8:abalone-1'
p2074
F10963.593093567508
sS'abalone-0-abalone-2-abalone-3-abalone-4-abalone-5:abalone-8'
p2075
I0
sS'abalone-0-abalone-2-abalone-3-abalone-4-abalone-5:abalone-1'
p2076
F7184.152680444508
sS'abalone-0-abalone-2-abalone-3-abalone-4-abalone-5:abalone-7'
p2077
F7304.996372721859
sS'abalone-0-abalone-2-abalone-3-abalone-4-abalone-5:abalone-6'
p2078
F7192.88517627011
sS'abalone-0-abalone-1-abalone-2-abalone-3-abalone-4-abalone-6-abalone-8:abalone-7'
p2079
F153307.804663618
sS'abalone-0-abalone-1-abalone-2-abalone-3-abalone-4-abalone-6-abalone-8:abalone-5'
p2080
F153241.5291185553
sS'abalone-0-abalone-1-abalone-3-abalone-5-abalone-7:abalone-8'
p2081
I0
sS'abalone-0-abalone-1-abalone-3-abalone-4:abalone-8'
p2082
I0
sS'abalone-0-abalone-1-abalone-3-abalone-4:abalone-2'
p2083
F2381.4070570515437
sS'abalone-0-abalone-1-abalone-3-abalone-5-abalone-7:abalone-2'
p2084
F7204.80006656885
sS'abalone-0-abalone-1-abalone-3-abalone-4:abalone-7'
p2085
F2545.1191044075144
sS'abalone-0-abalone-1-abalone-3-abalone-5-abalone-7:abalone-4'
p2086
F7160.687745570333
sS'abalone-0-abalone-1-abalone-3-abalone-4:abalone-5'
p2087
F2531.688816979867
sS'abalone-0-abalone-1-abalone-3-abalone-5-abalone-7:abalone-6'
p2088
F7253.82781929843
sS'abalone-1-abalone-2-abalone-3-abalone-4:abalone-8'
p2089
I0
sS'abalone-1-abalone-2-abalone-3-abalone-4:abalone-5'
p2090
F3328.4092327491007
sS'abalone-1-abalone-2-abalone-3-abalone-4:abalone-7'
p2091
F3355.946776032196
sS'abalone-1-abalone-2-abalone-3-abalone-4:abalone-6'
p2092
F3364.6510083866697
sS'abalone-1-abalone-2-abalone-3-abalone-4:abalone-0'
p2093
F4759.363732340959
sS'abalone-0-abalone-4-abalone-6-abalone-7-abalone-8:abalone-5'
p2094
F10843.934085997495
sS'abalone-0-abalone-4-abalone-6-abalone-7-abalone-8:abalone-1'
p2095
F14469.894125613655
sS'abalone-0-abalone-4-abalone-6-abalone-7-abalone-8:abalone-2'
p2096
F14392.683349136789
sS'abalone-0-abalone-4-abalone-6-abalone-7-abalone-8:abalone-3'
p2097
F5687.349743837086
sS'abalone-2-abalone-3-abalone-7-abalone-8:abalone-1'
p2098
F5792.5113396175975
sS'abalone-2-abalone-3-abalone-7-abalone-8:abalone-0'
p2099
F12146.894112985085
sS'abalone-2-abalone-3-abalone-7-abalone-8:abalone-6'
p2100
F6633.640272348778
sS'abalone-2-abalone-3-abalone-7-abalone-8:abalone-5'
p2101
F6994.582390888682
sS'abalone-2-abalone-3-abalone-7-abalone-8:abalone-4'
p2102
F6683.529818828044
sS'abalone-0-abalone-1-abalone-3-abalone-5-abalone-6-abalone-7-abalone-8:abalone-4'
p2103
F152888.07629128988
sS'abalone-0-abalone-1-abalone-3-abalone-5-abalone-6-abalone-7-abalone-8:abalone-2'
p2104
F153410.37040439108
sS'abalone-2-abalone-6-abalone-7-abalone-8:abalone-3'
p2105
F1941.885104842785
sS'abalone-1-abalone-2-abalone-5-abalone-6-abalone-7-abalone-8:abalone-4'
p2106
F65339.75031588572
sS'abalone-1-abalone-2-abalone-5-abalone-6-abalone-7-abalone-8:abalone-3'
p2107
F46935.238959333816
sS'abalone-1-abalone-2-abalone-5-abalone-6-abalone-7-abalone-8:abalone-0'
p2108
F42041.45648891625
sS'abalone-0-abalone-2-abalone-7-abalone-8:abalone-3'
p2109
F1186.8278134533691
sS'abalone-2-abalone-5-abalone-8:abalone-6'
p2110
F4771.342462222858
sS'abalone-2-abalone-5-abalone-8:abalone-7'
p2111
F5034.343368406435
sS'abalone-2-abalone-5-abalone-8:abalone-4'
p2112
F4771.381292343434
sS'abalone-2-abalone-5-abalone-8:abalone-3'
p2113
F460.36471643301525
sS'abalone-2-abalone-5-abalone-8:abalone-0'
p2114
F11388.268655453132
sS'abalone-2-abalone-5-abalone-8:abalone-1'
p2115
F4222.630430059625
sS'abalone-1-abalone-2-abalone-6:abalone-0'
p2116
F4010.5305363559455
sS'abalone-0-abalone-2-abalone-4-abalone-5-abalone-6-abalone-7:abalone-3'
p2117
F28142.27900150782
sS'abalone-1-abalone-2-abalone-6:abalone-3'
p2118
F403.3701917228394
sS'abalone-1-abalone-2-abalone-6:abalone-4'
p2119
F2012.2707320174404
sS'abalone-1-abalone-2-abalone-6:abalone-5'
p2120
F1960.3551104524076
sS'abalone-1-abalone-2-abalone-6:abalone-7'
p2121
F2036.2999476654445
sS'abalone-1-abalone-2-abalone-6:abalone-8'
p2122
I0
sS'abalone-0-abalone-3-abalone-5-abalone-6-abalone-7:abalone-2'
p2123
F8558.666274750536
sS'abalone-0-abalone-3-abalone-5-abalone-6-abalone-7:abalone-1'
p2124
F8566.528551513886
sS'abalone-0-abalone-2-abalone-3-abalone-4-abalone-5-abalone-7:abalone-8'
p2125
I0
sS'abalone-0-abalone-2-abalone-3-abalone-4-abalone-5-abalone-7:abalone-6'
p2126
F31098.27000338693
sS'abalone-0-abalone-3-abalone-5-abalone-6-abalone-7:abalone-8'
p2127
I0
sS'abalone-0-abalone-1-abalone-2-abalone-3-abalone-4-abalone-5-abalone-8:abalone-7'
p2128
F153451.2569564362
sS'abalone-0-abalone-2-abalone-3-abalone-4-abalone-5-abalone-7:abalone-1'
p2129
F31146.969920605025
sS'abalone-1-abalone-4:abalone-3'
p2130
F101.79539228072042
sS'abalone-0-abalone-3-abalone-6:abalone-5'
p2131
F1956.0071454754525
sS'abalone-4-abalone-5:abalone-8'
p2132
I0
sS'abalone-0-abalone-1-abalone-2-abalone-3-abalone-5-abalone-7:abalone-6'
p2133
F31218.371227345517
sS'abalone-0-abalone-3-abalone-4-abalone-5:abalone-6'
p2134
F2442.107886298508
sS'abalone-1-abalone-2-abalone-3-abalone-4-abalone-5-abalone-7:abalone-8'
p2135
F4936.37719539189
sS'abalone-1-abalone-2-abalone-3-abalone-4-abalone-5-abalone-7:abalone-6'
p2136
F51112.58422725378
sS'abalone-4-abalone-5:abalone-6'
p2137
F1386.9469054369056
sS'abalone-0-abalone-1-abalone-2-abalone-3-abalone-5-abalone-7:abalone-8'
p2138
I0
sS'abalone-4-abalone-5:abalone-0'
p2139
F3898.141973974738
sS'abalone-4-abalone-5:abalone-1'
p2140
F2619.1972627478563
sS'abalone-4-abalone-5:abalone-2'
p2141
F2588.2856352181216
sS'abalone-1-abalone-2-abalone-3-abalone-4-abalone-5-abalone-7:abalone-0'
p2142
F28698.699362536758
sS'abalone-0-abalone-2-abalone-4-abalone-5-abalone-7-abalone-8:abalone-1'
p2143
F40846.57492543747
sS'abalone-1-abalone-2-abalone-7:abalone-8'
p2144
I0
sS'abalone-0-abalone-2-abalone-4-abalone-5-abalone-7-abalone-8:abalone-3'
p2145
F28176.512522217403
sS'abalone-0-abalone-2-abalone-4-abalone-5-abalone-7-abalone-8:abalone-6'
p2146
F40634.8361950223
sS'abalone-1-abalone-2-abalone-7:abalone-0'
p2147
F4036.1694015894795
sS'abalone-1-abalone-2-abalone-7:abalone-3'
p2148
F396.6241627489044
sS'abalone-1-abalone-2-abalone-7:abalone-5'
p2149
F2181.572834862388
sS'abalone-1-abalone-2-abalone-7:abalone-4'
p2150
F2025.1167704343327
sS'abalone-1-abalone-2-abalone-7:abalone-6'
p2151
F2051.387969331022
sS'abalone-2-abalone-4-abalone-6-abalone-7-abalone-8:abalone-3'
p2152
F9434.221646947717
sS'abalone-3-abalone-5-abalone-6-abalone-7:abalone-8'
p2153
I0
sS'abalone-2-abalone-4-abalone-6-abalone-7-abalone-8:abalone-1'
p2154
F15949.573035737953
sS'abalone-2-abalone-4-abalone-6-abalone-7-abalone-8:abalone-5'
p2155
F15789.855335642307
sS'abalone-3-abalone-5-abalone-6-abalone-7:abalone-2'
p2156
F4669.381603013955
sS'abalone-0-abalone-4-abalone-5-abalone-6-abalone-7-abalone-8:abalone-1'
p2157
F44312.12505711707
sS'abalone-3-abalone-5-abalone-6-abalone-7:abalone-0'
p2158
F4824.766124649871
sS'abalone-3-abalone-5-abalone-6-abalone-7:abalone-1'
p2159
F4673.315422990534
sS'abalone-3-abalone-5-abalone-6-abalone-7:abalone-4'
p2160
F3308.1671006048036
sS'abalone-0-abalone-4:abalone-8'
p2161
I0
sS'abalone-0-abalone-2-abalone-4-abalone-5-abalone-7:abalone-8'
p2162
I0
sS'abalone-0-abalone-4:abalone-1'
p2163
F2603.998782127481
sS'abalone-0-abalone-4:abalone-3'
p2164
F70.8836503589448
sS'abalone-0-abalone-2-abalone-4-abalone-5-abalone-7:abalone-6'
p2165
F8598.368816993512
sS'abalone-0-abalone-2-abalone-4-abalone-5-abalone-7:abalone-1'
p2166
F8647.12033126747
sS'abalone-0-abalone-2-abalone-4-abalone-5-abalone-7:abalone-3'
p2167
F5642.377815114417
sS'abalone-0-abalone-4:abalone-6'
p2168
F1518.994364838691
sS'abalone-3-abalone-4-abalone-5-abalone-7:abalone-0'
p2169
F4809.052714846279
sS'abalone-3-abalone-4-abalone-5-abalone-7:abalone-1'
p2170
F4439.3054905077315
sS'abalone-0-abalone-1-abalone-2-abalone-3-abalone-5-abalone-7-abalone-8:abalone-6'
p2171
F153491.66406339893
sS'abalone-0-abalone-1-abalone-2-abalone-3-abalone-5-abalone-7-abalone-8:abalone-4'
p2172
F153131.1924377023
sS'abalone-0-abalone-2-abalone-6-abalone-8:abalone-5'
p2173
F5786.549745251857
sS'abalone-0-abalone-2-abalone-6-abalone-8:abalone-4'
p2174
F5902.446451304334
sS'abalone-0-abalone-2-abalone-6-abalone-8:abalone-7'
p2175
F5672.016224956491
sS'abalone-0-abalone-2-abalone-6-abalone-8:abalone-1'
p2176
F5176.408268818871
sS'abalone-0-abalone-2-abalone-6-abalone-8:abalone-3'
p2177
F1202.4163761883062
sS'abalone-0-abalone-1-abalone-4:abalone-3'
p2178
F249.2813439592991
sS'abalone-2-abalone-8:abalone-3'
p2179
F166.2790802321964
sS'abalone-2-abalone-8:abalone-1'
p2180
F4314.504899332625
sS'abalone-2-abalone-8:abalone-0'
p2181
F11606.67192080084
sS'abalone-2-abalone-8:abalone-7'
p2182
F6081.022957189461
sS'abalone-2-abalone-8:abalone-6'
p2183
F6447.568686620115
sS'abalone-2-abalone-8:abalone-5'
p2184
F6545.773489764772
sS'abalone-2-abalone-8:abalone-4'
p2185
F6852.075106162943
sS'abalone-3-abalone-4-abalone-6-abalone-7-abalone-8:abalone-2'
p2186
F17144.7619336586
sS'abalone-1-abalone-3-abalone-4-abalone-6-abalone-7:abalone-8'
p2187
I0
sS'abalone-3-abalone-4-abalone-6-abalone-7-abalone-8:abalone-0'
p2188
F16077.629613674388
sS'abalone-3-abalone-4-abalone-6-abalone-7-abalone-8:abalone-5'
p2189
F13402.35544853741
sS'abalone-0-abalone-1-abalone-3-abalone-5-abalone-6-abalone-7:abalone-8'
p2190
I0
sS'abalone-0-abalone-1-abalone-2-abalone-4-abalone-6-abalone-7-abalone-8:abalone-5'
p2191
F190621.25808658326
sS'abalone-0-abalone-1-abalone-3-abalone-5-abalone-6-abalone-7:abalone-4'
p2192
F31002.36320206882
sS'abalone-0-abalone-1-abalone-2-abalone-4-abalone-6-abalone-7-abalone-8:abalone-3'
p2193
F140677.01375236196
sS'abalone-0-abalone-1-abalone-3-abalone-5-abalone-6-abalone-7:abalone-2'
p2194
F31169.343474615944
sS'abalone-2-abalone-5-abalone-7:abalone-4'
p2195
F1677.6477053533729
sS'abalone-2-abalone-5-abalone-7:abalone-6'
p2196
F1782.8649299266583
sS'abalone-2-abalone-5-abalone-7:abalone-1'
p2197
F1723.0744839793058
sS'abalone-2-abalone-5-abalone-7:abalone-0'
p2198
F4004.040522569763
sS'abalone-2-abalone-5-abalone-7:abalone-3'
p2199
F397.0617244955056
sS'abalone-2-abalone-5-abalone-7:abalone-8'
p2200
I0
sS'abalone-0-abalone-1-abalone-2-abalone-3-abalone-6-abalone-7-abalone-8:abalone-4'
p2201
F153458.94903275938
sS'abalone-1-abalone-4-abalone-5-abalone-6-abalone-7-abalone-8:abalone-0'
p2202
F41998.17509307588
sS'abalone-1-abalone-2-abalone-4-abalone-5-abalone-8:abalone-7'
p2203
F16087.262353181946
sS'abalone-1-abalone-2-abalone-4-abalone-5-abalone-8:abalone-6'
p2204
F15988.644315094234
sS'abalone-1-abalone-2-abalone-4-abalone-5-abalone-8:abalone-3'
p2205
F9452.072292547058
sS'abalone-1-abalone-4-abalone-5-abalone-6-abalone-7-abalone-8:abalone-2'
p2206
F65816.59604922868
sS'abalone-0-abalone-6-abalone-7:abalone-2'
p2207
F3030.5766677356273
sS'abalone-1-abalone-2-abalone-4-abalone-5-abalone-8:abalone-0'
p2208
F17169.21168971125
sS'abalone-1-abalone-4-abalone-7-abalone-8:abalone-6'
p2209
F6169.802345505129
sS'abalone-1-abalone-4-abalone-7-abalone-8:abalone-5'
p2210
F6176.046419434501
sS'abalone-1-abalone-4-abalone-5-abalone-6-abalone-7-abalone-8:abalone-3'
p2211
F46932.931542107865
sS'abalone-1-abalone-4-abalone-7-abalone-8:abalone-3'
p2212
F1934.9307503927812
sS'abalone-1-abalone-4-abalone-7-abalone-8:abalone-2'
p2213
F5942.306852306018
sS'abalone-1-abalone-4-abalone-7-abalone-8:abalone-0'
p2214
F12200.449410421104
sS'abalone-2-abalone-3-abalone-5-abalone-6-abalone-7:abalone-4'
p2215
F11024.481590823223
sS'abalone-2-abalone-3-abalone-5-abalone-6-abalone-7:abalone-0'
p2216
F8714.050796386453
sS'abalone-2-abalone-3-abalone-5-abalone-6-abalone-7:abalone-1'
p2217
F11195.42039387806
sS'abalone-2-abalone-3-abalone-5-abalone-6-abalone-7:abalone-8'
p2218
I0
sS'abalone-0-abalone-5-abalone-6-abalone-7:abalone-4'
p2219
F2762.7158793641856
sS'abalone-1-abalone-4-abalone-6:abalone-8'
p2220
I0
sS'abalone-0-abalone-5-abalone-6-abalone-7:abalone-1'
p2221
F4071.8174301346453
sS'abalone-0-abalone-5-abalone-6-abalone-7:abalone-3'
p2222
F1148.4406648066424
sS'abalone-0-abalone-5-abalone-6-abalone-7:abalone-2'
p2223
F4062.5865177543137
sS'abalone-1-abalone-4-abalone-6:abalone-2'
p2224
F1669.3310131947042
sS'abalone-1-abalone-4-abalone-6:abalone-3'
p2225
F401.6356107210444
sS'abalone-1-abalone-4-abalone-6:abalone-0'
p2226
F3982.65296428006
sS'abalone-0-abalone-5-abalone-6-abalone-7:abalone-8'
p2227
I0
sS'abalone-1-abalone-4-abalone-6:abalone-5'
p2228
F1681.872080450103
sS'abalone-0-abalone-2-abalone-3-abalone-4-abalone-6-abalone-7-abalone-8:abalone-1'
p2229
F153380.16537312488
sS'abalone-0-abalone-2-abalone-3-abalone-4-abalone-6-abalone-7-abalone-8:abalone-5'
p2230
F153212.4199793947
sS'abalone-1-abalone-2-abalone-4-abalone-5-abalone-6-abalone-7:abalone-3'
p2231
F46894.20123680673
sS'abalone-1-abalone-2-abalone-4-abalone-5-abalone-6-abalone-7:abalone-0'
p2232
F34915.62877476539
sS'abalone-1-abalone-2-abalone-6-abalone-7:abalone-8'
p2233
I0
sS'abalone-1-abalone-2-abalone-4-abalone-5-abalone-6-abalone-7:abalone-8'
p2234
F19493.666319104104
sS'abalone-1-abalone-2-abalone-6-abalone-7:abalone-4'
p2235
F3728.3435377489914
sS'abalone-1-abalone-2-abalone-6-abalone-7:abalone-3'
p2236
F1895.9423044064279
sS'abalone-1-abalone-2-abalone-6-abalone-7:abalone-0'
p2237
F4979.268648554025
sS'abalone-0-abalone-3-abalone-5-abalone-6:abalone-8'
p2238
I0
sS'abalone-0-abalone-3-abalone-5-abalone-6:abalone-1'
p2239
F3911.6001946718966
sS'abalone-2-abalone-4-abalone-5-abalone-6-abalone-8:abalone-7'
p2240
F15879.840492301922
sS'abalone-2-abalone-4-abalone-5-abalone-6-abalone-8:abalone-0'
p2241
F17094.05558919659
sS'abalone-2-abalone-4-abalone-5-abalone-6-abalone-8:abalone-1'
p2242
F15937.518867308672
sS'abalone-0-abalone-3-abalone-5-abalone-6:abalone-7'
p2243
F2806.398666831446
sS'abalone-2-abalone-4-abalone-5-abalone-6-abalone-8:abalone-3'
p2244
F9452.947423617206
sS'abalone-1-abalone-3-abalone-4-abalone-5-abalone-6:abalone-8'
p2245
I0
sS'abalone-1-abalone-3-abalone-4-abalone-5-abalone-6:abalone-7'
p2246
F11233.776358208052
sS'abalone-1-abalone-3-abalone-4-abalone-5-abalone-6:abalone-0'
p2247
F8710.926820736327
sS'abalone-1-abalone-3-abalone-4-abalone-5-abalone-6:abalone-2'
p2248
F11152.79418259595
sS'abalone-0-abalone-1-abalone-3-abalone-5-abalone-7-abalone-8:abalone-4'
p2249
F33354.41131221497
sS'abalone-3-abalone-5-abalone-6:abalone-7'
p2250
F2069.4881307119736
sS'abalone-0-abalone-1-abalone-3-abalone-5-abalone-7-abalone-8:abalone-6'
p2251
F33593.6033183179
sS'abalone-3-abalone-5-abalone-6:abalone-1'
p2252
F3246.208353090314
sS'abalone-3-abalone-5-abalone-6:abalone-0'
p2253
F4087.8555885303977
sS'abalone-0-abalone-1-abalone-3-abalone-5-abalone-7-abalone-8:abalone-2'
p2254
F33512.30965931015
sS'abalone-2-abalone-4-abalone-6-abalone-8:abalone-1'
p2255
F6038.417798867831
sS'abalone-2-abalone-4-abalone-6-abalone-8:abalone-0'
p2256
F12150.51700499838
sS'abalone-2-abalone-4-abalone-6-abalone-8:abalone-3'
p2257
F1954.3411969100484
sS'abalone-2-abalone-4-abalone-6-abalone-8:abalone-5'
p2258
F5909.69233582716
sS'abalone-3-abalone-5-abalone-6:abalone-8'
p2259
I0
sS'abalone-2-abalone-4-abalone-6-abalone-8:abalone-7'
p2260
F5999.677492486771
sS'abalone-0-abalone-1-abalone-2-abalone-3-abalone-7:abalone-6'
p2261
F7493.7317743842605
sS'abalone-1-abalone-2-abalone-4-abalone-6-abalone-7:abalone-3'
p2262
F9394.687692938202
sS'abalone-1-abalone-2-abalone-4-abalone-6-abalone-7:abalone-0'
p2263
F9943.07034533488
sS'abalone-1-abalone-2-abalone-4-abalone-6-abalone-7:abalone-5'
p2264
F13635.732600813199
sS'abalone-1-abalone-2-abalone-4-abalone-6-abalone-7:abalone-8'
p2265
I0
sS'abalone-0-abalone-7:abalone-8'
p2266
I0
sS'abalone-3-abalone-8:abalone-2'
p2267
F13125.371387615422
sS'abalone-3-abalone-8:abalone-0'
p2268
F13391.607560905704
sS'abalone-3-abalone-8:abalone-1'
p2269
F13085.12165620927
sS'abalone-3-abalone-8:abalone-6'
p2270
F10341.615798362469
sS'abalone-3-abalone-8:abalone-7'
p2271
F9718.741903019829
sS'abalone-3-abalone-8:abalone-4'
p2272
F12278.380588484775
sS'abalone-3-abalone-8:abalone-5'
p2273
F10500.86956858819
sS'abalone-1-abalone-2-abalone-3-abalone-4-abalone-5:abalone-8'
p2274
I0
sS'abalone-2-abalone-3-abalone-8:abalone-4'
p2275
F7140.6443036094815
sS'abalone-2-abalone-3-abalone-8:abalone-5'
p2276
F6839.8591259655905
sS'abalone-2-abalone-3-abalone-8:abalone-6'
p2277
F6741.855504469665
sS'abalone-2-abalone-3-abalone-8:abalone-7'
p2278
F6359.891616243115
sS'abalone-2-abalone-3-abalone-8:abalone-0'
p2279
F11749.247680656867
sS'abalone-2-abalone-3-abalone-8:abalone-1'
p2280
F4613.004004972612
sS'abalone-0-abalone-1-abalone-2-abalone-5-abalone-6-abalone-7-abalone-8:abalone-4'
p2281
F190218.36915723846
sS'abalone-0-abalone-1-abalone-2-abalone-5-abalone-6-abalone-7-abalone-8:abalone-3'
p2282
F140678.47760986642
sS'abalone-3-abalone-4-abalone-6:abalone-5'
p2283
F1645.9821876401124
sS'abalone-3-abalone-4-abalone-6:abalone-7'
p2284
F1731.3842230277328
sS'abalone-3-abalone-4-abalone-6:abalone-0'
p2285
F4014.298901320219
sS'abalone-3-abalone-4-abalone-6:abalone-1'
p2286
F2915.5783235079703
sS'abalone-3-abalone-4-abalone-6:abalone-2'
p2287
F2879.203703696881
sS'abalone-3-abalone-4-abalone-6:abalone-8'
p2288
I0
sS'abalone-0-abalone-2-abalone-3-abalone-4-abalone-5-abalone-7-abalone-8:abalone-6'
p2289
F153134.4991933835
sS'abalone-0-abalone-2-abalone-3-abalone-4-abalone-5-abalone-7-abalone-8:abalone-1'
p2290
F153346.1257482663
sS'abalone-0-abalone-1-abalone-4-abalone-6-abalone-7-abalone-8:abalone-3'
p2291
F28177.59615147331
sS'abalone-0-abalone-1-abalone-4-abalone-6-abalone-7-abalone-8:abalone-2'
p2292
F40803.403217339124
sS'abalone-0-abalone-1-abalone-4-abalone-6-abalone-7-abalone-8:abalone-5'
p2293
F40686.16501750088
sS'abalone-0-abalone-1-abalone-2-abalone-3-abalone-7:abalone-4'
p2294
F7461.667832561049
sS'abalone-0-abalone-1-abalone-2-abalone-3-abalone-7:abalone-5'
p2295
F7630.505909592765
sS'abalone-0-abalone-1-abalone-2-abalone-3-abalone-7:abalone-8'
p2296
I0
sS'abalone-0-abalone-1-abalone-3-abalone-4-abalone-5:abalone-6'
p2297
F7178.267903289162
sS'abalone-0-abalone-1-abalone-3-abalone-4-abalone-5:abalone-7'
p2298
F7293.251831397768
sS'abalone-0-abalone-1-abalone-3-abalone-4-abalone-5:abalone-2'
p2299
F7154.276390522826
sS'abalone-0-abalone-1-abalone-3-abalone-4-abalone-5:abalone-8'
p2300
I0
sS'abalone-0-abalone-1-abalone-5-abalone-6-abalone-7-abalone-8:abalone-2'
p2301
F40910.866937151215
sS'abalone-0-abalone-1-abalone-5-abalone-6-abalone-7-abalone-8:abalone-3'
p2302
F28178.974142626776
sS'abalone-0-abalone-1-abalone-5-abalone-6-abalone-7-abalone-8:abalone-4'
p2303
F40390.73980796789
sS'abalone-0-abalone-4-abalone-5-abalone-6:abalone-3'
p2304
F1150.205448042679
s.