(dp0
S'4511676112-4511676304-4511676560:4511676368'
p1
F2387.5841459596318
sS'4511676560:4511676176'
p2
F3201.1373458483204
sS'4511676112-4511676176-4511676240-4511676304-4511676432:4511676624'
p3
I0
sS'4511676112-4511676304-4511676368-4511676496:4511676240'
p4
F3596.031525295547
sS'4511676112-4511676176-4511676304-4511676432:4511676240'
p5
F2463.2754829959968
sS'4511676304:4511676176'
p6
F4483.169126438916
sS'4511676112-4511676176-4511676240:4511676496'
p7
F2172.633123470126
sS'4511676112-4511676240-4511676432-4511676496-4511676560:4511676304'
p8
F5644.5204218028675
sS'4511676112-4511676240-4511676368-4511676432:4511676304'
p9
F1148.7175617489067
sS'4511676112-4511676240-4511676304-4511676496-4511676624:4511676432'
p10
F10284.432613013409
sS'4511676176-4511676240-4511676368-4511676432-4511676624:4511676496'
p11
F15988.644315094234
sS'4511676112-4511676176-4511676240-4511676304-4511676432-4511676496-4511676560:4511676368'
p12
F150943.79531522022
sS'4511676112-4511676176-4511676240-4511676432:4511676496'
p13
F2874.4934808919174
sS'4511676240-4511676432:4511676112'
p14
F3861.0696715708136
sS'4511676112-4511676176:4511676432'
p15
F2127.732704041402
sS'4511676112-4511676176-4511676368-4511676432-4511676496-4511676560-4511676624:4511676240'
p16
F190738.49628642155
sS'4511676112-4511676240-4511676368-4511676496-4511676560-4511676624:4511676176'
p17
F40880.61399381603
sS'4511676112-4511676240-4511676432-4511676560:4511676304'
p18
F1144.7681413563425
sS'4511676112-4511676176-4511676304-4511676432:4511676624'
p19
I0
sS'4511676240-4511676304-4511676560-4511676624:4511676432'
p20
F6994.582390888682
sS'4511676176-4511676240-4511676304-4511676368-4511676496-4511676560:4511676112'
p21
F28690.937910686956
sS'4511676112-4511676240-4511676368-4511676624:4511676496'
p22
F5465.489412296952
sS'4511676112-4511676176-4511676240-4511676368-4511676496-4511676560-4511676624:4511676304'
p23
F140677.01375236196
sS'4511676496-4511676624:4511676112'
p24
F11560.746453315205
sS'4511676112-4511676240-4511676304-4511676368-4511676496-4511676624:4511676560'
p25
F33402.54117093051
sS'4511676176:4511676240'
p26
F1474.5540959344562
sS'4511676112-4511676240-4511676368-4511676496-4511676624:4511676304'
p27
F5696.504621874474
sS'4511676112-4511676176-4511676304-4511676368:4511676560'
p28
F2545.1191044075144
sS'4511676112-4511676368-4511676496:4511676560'
p29
F1616.808042884047
sS'4511676176-4511676240-4511676368-4511676432-4511676496-4511676560-4511676624:4511676112'
p30
F166920.0753302697
sS'4511676112-4511676176-4511676368-4511676432-4511676624:4511676496'
p31
F10898.596574989184
sS'4511676176-4511676496-4511676624:4511676240'
p32
F4262.837923893875
sS'4511676112-4511676176-4511676240-4511676304-4511676560:4511676368'
p33
F7461.667832561049
sS'4511676304-4511676368-4511676496-4511676624:4511676432'
p34
F5551.665321109312
sS'4511676240-4511676432:4511676624'
p35
I0
sS'4511676112-4511676432-4511676560-4511676624:4511676368'
p36
F5831.862655883537
sS'4511676112-4511676240-4511676304-4511676368-4511676432-4511676496:4511676624'
p37
I0
sS'4511676112-4511676240-4511676432:4511676176'
p38
F1548.743867923189
sS'4511676304-4511676368-4511676560-4511676624:4511676112'
p39
F12221.786046765414
sS'4511676176-4511676304-4511676432:4511676112'
p40
F4013.992505658861
sS'4511676240:4511676176'
p41
F1456.2389893002735
sS'4511676240-4511676496:4511676624'
p42
I0
sS'4511676304-4511676368-4511676496-4511676560:4511676176'
p43
F4447.217871281173
sS'4511676176-4511676240-4511676368:4511676112'
p44
F4011.8288216833994
sS'4511676368-4511676560:4511676176'
p45
F2629.6792886190215
sS'4511676112-4511676368-4511676496:4511676240'
p46
F2697.601195342543
sS'4511676432-4511676624:4511676112'
p47
F11713.951663934864
sS'4511676176-4511676304-4511676368-4511676560:4511676240'
p48
F3176.1253739903213
sS'4511676240-4511676304-4511676368-4511676432:4511676560'
p49
F3341.371349620348
sS'4511676112-4511676368-4511676432-4511676496-4511676560-4511676624:4511676176'
p50
F44312.12505711707
sS'4511676112-4511676176-4511676240-4511676496:4511676560'
p51
F3005.0380598635325
sS'4511676240-4511676368-4511676560-4511676624:4511676176'
p52
F6060.62630696629
sS'4511676112-4511676176-4511676240-4511676304-4511676432-4511676496-4511676624:4511676560'
p53
F153769.68218791726
sS'4511676112-4511676240-4511676304-4511676496:4511676624'
p54
I0
sS'4511676112-4511676368-4511676624:4511676560'
p55
F4349.479615623376
sS'4511676176-4511676240-4511676432-4511676496-4511676624:4511676560'
p56
F16393.072302474964
sS'4511676176-4511676240-4511676304-4511676432-4511676496:4511676112'
p57
F8731.714365182896
sS'4511676240-4511676368-4511676496-4511676624:4511676432'
p58
F5909.69233582716
sS'4511676176-4511676240-4511676432-4511676496-4511676624:4511676368'
p59
F15926.136646616047
sS'4511676240-4511676432-4511676560:4511676624'
p60
I0
sS'4511676240-4511676432-4511676496:4511676304'
p61
F402.96576542821776
sS'4511676112-4511676304-4511676432-4511676496-4511676560:4511676176'
p62
F8566.528551513886
sS'4511676112-4511676176-4511676304-4511676368-4511676624:4511676240'
p63
F9454.159929644571
sS'4511676432-4511676496-4511676624:4511676304'
p64
F465.4131932470667
sS'4511676176-4511676304-4511676368-4511676432-4511676496:4511676560'
p65
F11233.776358208052
sS'4511676112-4511676176-4511676432-4511676496-4511676560-4511676624:4511676304'
p66
F28178.974142626776
sS'4511676560-4511676624:4511676176'
p67
F9461.883453190514
sS'4511676112-4511676240-4511676496:4511676432'
p68
F1783.317425419346
sS'4511676176-4511676240-4511676432-4511676496:4511676368'
p69
F3717.5502481607664
sS'4511676176-4511676240-4511676432-4511676496-4511676560:4511676304'
p70
F9395.235923157554
sS'4511676176-4511676432-4511676496:4511676560'
p71
F2004.0055515747122
sS'4511676112-4511676304-4511676368-4511676432-4511676560-4511676624:4511676176'
p72
F36924.67413603581
sS'4511676240-4511676432-4511676560-4511676624:4511676176'
p73
F6088.696962389989
sS'4511676176-4511676304-4511676368-4511676496-4511676624:4511676432'
p74
F13362.427087121232
sS'4511676368-4511676432:4511676176'
p75
F2619.1972627478563
sS'4511676176-4511676432-4511676496:4511676368'
p76
F1797.24961993857
sS'4511676112-4511676176-4511676240-4511676432-4511676560:4511676368'
p77
F8585.731658735443
sS'4511676240-4511676432-4511676496-4511676560:4511676624'
p78
I0
sS'4511676176-4511676240-4511676304-4511676368-4511676624:4511676432'
p79
F13775.112197894055
sS'4511676112-4511676240-4511676368-4511676432-4511676560-4511676624:4511676496'
p80
F40634.8361950223
sS'4511676176-4511676368-4511676496:4511676304'
p81
F401.6356107210444
sS'4511676176-4511676624:4511676496'
p82
F6463.692292873146
sS'4511676112-4511676432-4511676560:4511676176'
p83
F2980.3163537630044
sS'4511676176-4511676240-4511676560:4511676496'
p84
F2051.387969331022
sS'4511676176-4511676240-4511676304-4511676368-4511676496-4511676624:4511676112'
p85
F35830.207042108545
sS'4511676176-4511676240-4511676368-4511676432-4511676560-4511676624:4511676304'
p86
F46932.39581949763
sS'4511676112-4511676176-4511676304-4511676496-4511676624:4511676240'
p87
F9690.289492221214
sS'4511676112-4511676240-4511676304:4511676496'
p88
F2249.831803400016
sS'4511676176-4511676304-4511676368-4511676432:4511676112'
p89
F4753.562588781246
sS'4511676112:4511676624'
p90
I0
sS'4511676112-4511676176-4511676240-4511676304-4511676368-4511676432-4511676624:4511676560'
p91
F153451.2569564362
sS'4511676112-4511676368-4511676560-4511676624:4511676304'
p92
F1188.1581110782192
sS'4511676304-4511676432-4511676624:4511676176'
p93
F9431.549151028325
sS'4511676240-4511676432-4511676624:4511676176'
p94
F4222.630430059625
sS'4511676112-4511676496:4511676432'
p95
F1776.7751728484814
sS'4511676176-4511676240-4511676560-4511676624:4511676368'
p96
F6955.708626444321
sS'4511676304-4511676432-4511676496:4511676176'
p97
F3246.208353090314
sS'4511676112-4511676176-4511676240-4511676304-4511676496-4511676624:4511676432'
p98
F34138.37645413485
sS'4511676176-4511676368:4511676560'
p99
F1486.5741833778338
sS'4511676112-4511676176-4511676368:4511676304'
p100
F249.2813439592991
sS'4511676176-4511676368:4511676496'
p101
F1495.854993859797
sS'4511676240-4511676304-4511676432-4511676496:4511676624'
p102
I0
sS'4511676304-4511676368-4511676560:4511676496'
p103
F1756.5110882508798
sS'4511676240-4511676432-4511676560-4511676624:4511676368'
p104
F5934.150125049265
sS'4511676112-4511676176-4511676240-4511676624:4511676560'
p105
F6734.89661682442
sS'4511676176-4511676304-4511676368-4511676432-4511676624:4511676496'
p106
F13545.608131133713
sS'4511676112-4511676240-4511676368-4511676432-4511676496:4511676624'
p107
I0
sS'4511676112-4511676304-4511676432-4511676496-4511676624:4511676368'
p108
F10505.55917188676
sS'4511676240-4511676368-4511676432-4511676560-4511676624:4511676496'
p109
F15763.20170701894
sS'4511676176-4511676240-4511676304-4511676496-4511676560-4511676624:4511676432'
p110
F53954.56311383244
sS'4511676176-4511676368-4511676432-4511676496-4511676624:4511676240'
p111
F15877.71981987556
sS'4511676112-4511676176-4511676304-4511676496:4511676624'
p112
I0
sS'4511676112-4511676368-4511676432-4511676496:4511676240'
p113
F3848.0254433874175
sS'4511676368-4511676432:4511676560'
p114
F1506.8920063197093
sS'4511676176-4511676240-4511676304-4511676432:4511676560'
p115
F3628.8189587767647
sS'4511676112-4511676176-4511676368:4511676496'
p116
F1647.9603891298086
sS'4511676176-4511676368-4511676432-4511676560:4511676304'
p117
F1894.5572239050052
sS'4511676176-4511676240-4511676368-4511676624:4511676304'
p118
F1953.8064198886561
sS'4511676112-4511676176-4511676240-4511676624:4511676368'
p119
F7334.320458175124
sS'4511676176-4511676240-4511676368-4511676432-4511676560:4511676624'
p120
I0
sS'4511676112-4511676304-4511676368-4511676432:4511676624'
p121
I0
sS'4511676176-4511676240-4511676368-4511676496-4511676560:4511676432'
p122
F13635.732600813199
sS'4511676112-4511676240-4511676432-4511676496-4511676624:4511676304'
p123
F5700.299243949869
sS'4511676112-4511676176-4511676368-4511676432:4511676240'
p124
F2654.524681622732
sS'4511676176-4511676368-4511676496:4511676432'
p125
F1681.872080450103
sS'4511676112-4511676176-4511676304-4511676432-4511676560:4511676240'
p126
F7204.80006656885
sS'4511676176-4511676240-4511676624:4511676368'
p127
F6755.15152558362
sS'4511676368-4511676432:4511676112'
p128
F3898.141973974738
sS'4511676176-4511676240-4511676624:4511676560'
p129
F6065.36760860814
sS'4511676176-4511676432:4511676624'
p130
I0
sS'4511676240-4511676368-4511676496-4511676560:4511676432'
p131
F3664.7941190721695
sS'4511676112-4511676496-4511676560-4511676624:4511676368'
p132
F6313.493096630946
sS'4511676240-4511676304-4511676368-4511676496-4511676560:4511676624'
p133
I0
sS'4511676240-4511676368:4511676496'
p134
F1526.6627205638981
sS'4511676176-4511676368-4511676432-4511676496-4511676624:4511676112'
p135
F17088.528466010623
sS'4511676112-4511676624:4511676304'
p136
F138.93036385867163
sS'4511676240-4511676304-4511676368-4511676432-4511676496-4511676560:4511676112'
p137
F28684.429663387826
sS'4511676304-4511676432:4511676112'
p138
F4040.4118683427173
sS'4511676240-4511676368-4511676560:4511676624'
p139
I0
sS'4511676304:4511676368'
p140
F4254.123941569713
sS'4511676112-4511676496-4511676560:4511676368'
p141
F1943.4254941705472
sS'4511676112-4511676176-4511676496:4511676432'
p142
F1785.3577431189756
sS'4511676112-4511676432-4511676496-4511676624:4511676368'
p143
F6010.77308023681
sS'4511676112-4511676240-4511676432-4511676496-4511676560-4511676624:4511676304'
p144
F28183.083607865236
sS'4511676176-4511676240-4511676304-4511676560:4511676112'
p145
F4783.924556632341
sS'4511676112-4511676176-4511676304-4511676496:4511676432'
p146
F2684.6344828680953
sS'4511676176-4511676240-4511676304-4511676368-4511676432:4511676112'
p147
F8735.512650043009
sS'4511676112-4511676368-4511676496:4511676176'
p148
F2732.964806418605
sS'4511676240-4511676304-4511676368-4511676624:4511676176'
p149
F5716.539460963219
sS'4511676176-4511676368-4511676432:4511676496'
p150
F1720.9870395324378
sS'4511676112-4511676240-4511676304-4511676432-4511676624:4511676560'
p151
F10367.31317760107
sS'4511676176-4511676240-4511676304-4511676496:4511676624'
p152
I0
sS'4511676112-4511676304-4511676496-4511676624:4511676240'
p153
F9855.742272896137
sS'4511676112-4511676176-4511676432-4511676560:4511676624'
p154
I0
sS'4511676112-4511676240-4511676304-4511676432-4511676624:4511676368'
p155
F10111.021682938233
sS'4511676240-4511676432:4511676368'
p156
F1612.5378206779226
sS'4511676176-4511676240-4511676432-4511676560:4511676304'
p157
F1895.4928645498878
sS'4511676304-4511676496:4511676240'
p158
F3201.063579170731
sS'4511676112-4511676176-4511676496-4511676560:4511676432'
p159
F2902.27097636232
sS'4511676304-4511676368-4511676560-4511676624:4511676432'
p160
F5913.235893343349
sS'4511676176-4511676240-4511676432-4511676624:4511676560'
p161
F6900.409900736811
sS'4511676176-4511676240-4511676304-4511676560-4511676624:4511676432'
p162
F14786.070586509393
sS'4511676112-4511676240-4511676368-4511676496-4511676560-4511676624:4511676304'
p163
F28177.4623730534
sS'4511676176-4511676304-4511676368:4511676496'
p164
F1795.695212300116
sS'4511676304-4511676624:4511676432'
p165
F10500.86956858819
sS'4511676560:4511676496'
p166
F1967.4771333486206
sS'4511676112-4511676176-4511676240-4511676496-4511676560-4511676624:4511676432'
p167
F41365.02231275279
sS'4511676112-4511676176-4511676304-4511676368-4511676432-4511676496-4511676624:4511676560'
p168
F153258.7412342234
sS'4511676176-4511676240-4511676432-4511676624:4511676368'
p169
F6578.0988303275
sS'4511676112-4511676304-4511676496-4511676560-4511676624:4511676240'
p170
F14041.345776256949
sS'4511676112-4511676624:4511676496'
p171
F8481.745348548307
sS'4511676368-4511676496:4511676624'
p172
I0
sS'4511676368-4511676432-4511676496-4511676624:4511676112'
p173
F12355.32998789935
sS'4511676304-4511676560:4511676112'
p174
F4024.630140212116
sS'4511676112-4511676240-4511676304-4511676496-4511676560-4511676624:4511676368'
p175
F33644.672373890135
sS'4511676112-4511676304-4511676368-4511676432:4511676240'
p176
F3595.6773587808907
sS'4511676240-4511676368-4511676432-4511676496-4511676560:4511676624'
p177
I0
sS'4511676176-4511676240-4511676560-4511676624:4511676496'
p178
F6965.7019022564555
sS'4511676112-4511676176-4511676304-4511676368-4511676432-4511676496-4511676560:4511676624'
p179
F111904.57451302074
sS'4511676176-4511676304-4511676368-4511676496-4511676624:4511676112'
p180
F15895.083354457734
sS'4511676432-4511676496-4511676560:4511676112'
p181
F4079.321666249552
sS'4511676240-4511676304-4511676368-4511676432:4511676176'
p182
F3203.18125311915
sS'4511676112-4511676176-4511676240-4511676304-4511676368-4511676496-4511676560:4511676432'
p183
F151107.8640608346
sS'4511676112-4511676176-4511676432:4511676560'
p184
F1941.0210833555786
sS'4511676304-4511676368-4511676496:4511676560'
p185
F1731.3842230277328
sS'4511676112-4511676304-4511676496:4511676624'
p186
I0
sS'4511676176-4511676496-4511676560:4511676304'
p187
F396.1370725318693
sS'4511676176-4511676432-4511676624:4511676112'
p188
F11401.091618534003
sS'4511676176-4511676432-4511676560-4511676624:4511676112'
p189
F12252.420276635672
sS'4511676432-4511676624:4511676368'
p190
F6108.432531542636
sS'4511676304-4511676432-4511676496-4511676560-4511676624:4511676112'
p191
F16162.502075305063
sS'4511676368-4511676624:4511676112'
p192
F11418.01124885574
sS'4511676176-4511676304:4511676624'
p193
I0
sS'4511676112-4511676368-4511676432-4511676624:4511676560'
p194
F5268.053215227498
sS'4511676240-4511676432-4511676496:4511676368'
p195
F1769.539906939296
sS'4511676112-4511676176-4511676240-4511676432-4511676560:4511676496'
p196
F8718.620016114643
sS'4511676112-4511676304-4511676368-4511676624:4511676176'
p197
F8683.127126408412
sS'4511676112-4511676176-4511676240-4511676496-4511676624:4511676368'
p198
F11701.801434957517
sS'4511676112-4511676240-4511676368:4511676624'
p199
I0
sS'4511676432:4511676560'
p200
F2014.203302394295
sS'4511676304-4511676368:4511676496'
p201
F1600.1691280405716
sS'4511676112-4511676240-4511676496-4511676560:4511676176'
p202
F2718.981503086161
sS'4511676112-4511676176-4511676240-4511676304-4511676368-4511676496-4511676560-4511676624:4511676432'
p203
F808389.9743049149
sS'4511676112-4511676176-4511676304-4511676432-4511676496-4511676624:4511676240'
p204
F33530.03430816247
sS'4511676304-4511676496:4511676112'
p205
F3986.3345986458
sS'4511676432-4511676624:4511676560'
p206
F5432.435107297833
sS'4511676112-4511676240-4511676368-4511676432-4511676624:4511676304'
p207
F5695.437085098502
sS'4511676304-4511676368-4511676496-4511676624:4511676240'
p208
F9314.837589161942
sS'4511676240-4511676304-4511676496-4511676560-4511676624:4511676368'
p209
F13762.024032720736
sS'4511676112-4511676176-4511676368-4511676560-4511676624:4511676496'
p210
F11043.523370837029
sS'4511676112-4511676176-4511676496-4511676560-4511676624:4511676240'
p211
F11056.319757762205
sS'4511676112-4511676176-4511676304-4511676368-4511676496-4511676624:4511676560'
p212
F33371.96253825438
sS'4511676112-4511676176-4511676432:4511676304'
p213
F250.9198034487744
sS'4511676112-4511676304-4511676368-4511676432-4511676496-4511676560:4511676176'
p214
F32309.050333061045
sS'4511676176-4511676304-4511676560:4511676432'
p215
F2160.7858432134035
sS'4511676176-4511676240-4511676304-4511676368-4511676432-4511676624:4511676560'
p216
F53567.585880132596
sS'4511676112-4511676176-4511676240-4511676560-4511676624:4511676432'
p217
F12131.976020980179
sS'4511676240-4511676304-4511676368-4511676432-4511676496:4511676560'
p218
F11240.185862522481
sS'4511676112-4511676176-4511676240-4511676560:4511676624'
p219
I0
sS'4511676176-4511676240-4511676432-4511676560-4511676624:4511676368'
p220
F15764.95128277263
sS'4511676240:4511676496'
p221
F2196.4902441759195
sS'4511676240-4511676432-4511676624:4511676560'
p222
F5034.343368406435
sS'4511676112-4511676176-4511676304-4511676368:4511676624'
p223
I0
sS'4511676176-4511676240-4511676368:4511676304'
p224
F401.49922322501186
sS'4511676176-4511676240-4511676304-4511676368-4511676432-4511676496-4511676560:4511676624'
p225
F207031.65420786268
sS'4511676112-4511676240-4511676368-4511676432-4511676496-4511676624:4511676560'
p226
F40782.05933159579
sS'4511676176-4511676368-4511676432-4511676496-4511676560:4511676240'
p227
F13635.105042155346
sS'4511676304-4511676368-4511676624:4511676176'
p228
F8181.6267076826025
sS'4511676112-4511676176-4511676304-4511676368-4511676496:4511676560'
p229
F7245.000175762669
sS':4511676112'
p230
F4580.90772632836
sS'4511676112-4511676176-4511676368-4511676432-4511676624:4511676240'
p231
F10868.355303471144
sS'4511676176-4511676240-4511676304-4511676368-4511676496:4511676624'
p232
I0
sS'4511676112-4511676176-4511676368-4511676432-4511676560-4511676624:4511676496'
p233
F40627.59473393444
sS'4511676112-4511676176-4511676304-4511676496-4511676624:4511676432'
p234
F10298.631638193605
sS'4511676176-4511676432-4511676496-4511676624:4511676240'
p235
F6096.238861740658
sS'4511676304-4511676432-4511676496:4511676368'
p236
F2090.767640513644
sS'4511676112-4511676176-4511676368-4511676432-4511676496-4511676560:4511676240'
p237
F38610.974485697785
sS'4511676432-4511676496:4511676624'
p238
I0
sS'4511676112-4511676560:4511676624'
p239
I0
sS'4511676240-4511676304-4511676368-4511676432-4511676496:4511676176'
p240
F11171.36070487199
sS'4511676368-4511676432-4511676560:4511676240'
p241
F2929.538531258626
sS'4511676112-4511676240-4511676560-4511676624:4511676496'
p242
F5921.785644753839
sS'4511676112-4511676176-4511676304-4511676432-4511676624:4511676496'
p243
F10105.734973675957
sS'4511676112-4511676176-4511676240:4511676304'
p244
F252.7012951064786
sS'4511676112-4511676240-4511676304-4511676496-4511676560:4511676432'
p245
F7395.38512295591
sS'4511676368-4511676560:4511676432'
p246
F1487.5398835904998
sS'4511676112-4511676240-4511676560-4511676624:4511676304'
p247
F1186.8278134533691
sS'4511676176-4511676496:4511676304'
p248
F103.60951771008911
sS'4511676176-4511676304-4511676496-4511676560-4511676624:4511676240'
p249
F13620.887667285326
sS'4511676176-4511676624:4511676240'
p250
F4354.686410839369
sS'4511676112-4511676176-4511676304-4511676368-4511676624:4511676496'
p251
F9881.960872878768
sS'4511676176-4511676368-4511676496-4511676560:4511676304'
p252
F1894.9344143335184
sS'4511676112-4511676304-4511676560-4511676624:4511676496'
p253
F6407.267850927158
sS'4511676304-4511676432:4511676560'
p254
F2071.9139855409608
sS'4511676176-4511676240-4511676432-4511676496-4511676560-4511676624:4511676112'
p255
F42041.45648891625
sS'4511676240-4511676304-4511676368-4511676432-4511676560:4511676112'
p256
F8718.166245819159
sS'4511676112-4511676240-4511676304-4511676368-4511676496-4511676560:4511676624'
p257
I0
sS'4511676112-4511676432-4511676624:4511676560'
p258
F5341.5030149585755
sS'4511676112-4511676432-4511676496-4511676560-4511676624:4511676368'
p259
F11169.698563176891
sS'4511676304-4511676368-4511676432:4511676112'
p260
F4044.927280591975
sS'4511676176-4511676304-4511676432-4511676496-4511676624:4511676368'
p261
F13639.368485730625
sS'4511676112-4511676176-4511676240-4511676432-4511676496-4511676624:4511676304'
p262
F28199.428360441038
sS'4511676176-4511676304-4511676368-4511676496-4511676560:4511676240'
p263
F11151.732078007919
sS'4511676112-4511676432-4511676624:4511676368'
p264
F5905.312455614608
sS'4511676112-4511676240-4511676368-4511676496:4511676304'
p265
F1149.0983606248449
sS'4511676432-4511676560-4511676624:4511676176'
p266
F8779.363926285183
sS'4511676304-4511676432:4511676240'
p267
F3201.127403739168
sS'4511676560-4511676624:4511676432'
p268
F6215.988121617891
sS'4511676112-4511676176-4511676432-4511676496-4511676560:4511676304'
p269
F5643.151786185887
sS'4511676112-4511676176-4511676304-4511676496-4511676560:4511676624'
p270
I0
sS'4511676432-4511676496-4511676624:4511676112'
p271
F11582.298327046281
sS'4511676304-4511676496-4511676560:4511676240'
p272
F3250.747207765193
sS'4511676176-4511676496-4511676624:4511676432'
p273
F4889.260775523023
sS'4511676112-4511676496:4511676240'
p274
F3013.479820627537
sS'4511676240-4511676304-4511676368-4511676624:4511676560'
p275
F5902.777131461676
sS'4511676112-4511676240-4511676432-4511676624:4511676368'
p276
F5618.079201077738
sS'4511676176-4511676240-4511676304-4511676368:4511676560'
p277
F3355.946776032196
sS'4511676112-4511676240-4511676304-4511676368-4511676496:4511676560'
p278
F7253.470975820083
sS'4511676112-4511676176-4511676240-4511676368-4511676432-4511676496:4511676624'
p279
I0
sS'4511676240-4511676368-4511676432-4511676624:4511676112'
p280
F12234.966564187434
sS'4511676176-4511676304-4511676432-4511676496-4511676624:4511676560'
p281
F13986.782680176382
sS'4511676112-4511676304-4511676368:4511676496'
p282
F1698.7787451515871
sS'4511676176-4511676304-4511676432-4511676496-4511676560:4511676624'
p283
I0
sS'4511676304-4511676368-4511676560:4511676240'
p284
F2884.8322048159534
sS'4511676240-4511676368-4511676432-4511676496:4511676560'
p285
F3746.9844662552614
sS'4511676112-4511676304-4511676560:4511676240'
p286
F3242.6912435551435
sS'4511676304-4511676368-4511676432-4511676496:4511676240'
p287
F4432.397821513026
sS'4511676240-4511676368:4511676624'
p288
I0
sS'4511676112-4511676304-4511676368-4511676432-4511676560:4511676176'
p289
F8351.953391599956
sS'4511676176-4511676240-4511676304-4511676496:4511676432'
p290
F3459.5982275399615
sS'4511676112-4511676304-4511676368:4511676624'
p291
I0
sS'4511676112-4511676240-4511676368-4511676496-4511676624:4511676560'
p292
F10921.58341975161
sS'4511676176-4511676240-4511676304-4511676432-4511676496-4511676624:4511676560'
p293
F53870.96949792824
sS'4511676176-4511676368-4511676496:4511676112'
p294
F3982.65296428006
sS'4511676496-4511676560:4511676304'
p295
F104.14602613579518
sS'4511676112-4511676176-4511676240-4511676304-4511676560:4511676496'
p296
F7493.7317743842605
sS'4511676112-4511676304-4511676368-4511676496:4511676432'
p297
F2431.8607851520583
sS'4511676112-4511676304-4511676432:4511676560'
p298
F2113.2297776908754
sS'4511676176-4511676240-4511676304-4511676432-4511676496-4511676624:4511676368'
p299
F53420.69728274168
sS'4511676112-4511676496-4511676560-4511676624:4511676176'
p300
F9568.33729841378
sS'4511676304-4511676496-4511676624:4511676368'
p301
F6744.915978879202
sS'4511676304-4511676496-4511676624:4511676560'
p302
F5373.000777920051
sS'4511676112-4511676176-4511676624:4511676304'
p303
F308.69903005521746
sS'4511676176-4511676240-4511676432-4511676496-4511676560:4511676624'
p304
I0
sS'4511676112-4511676176-4511676240-4511676304-4511676496:4511676624'
p305
I0
sS'4511676112-4511676304-4511676432:4511676368'
p306
F2229.770881660429
sS'4511676368:4511676176'
p307
F2662.3311810153928
sS'4511676496:4511676624'
p308
I0
sS'4511676112-4511676368-4511676560:4511676240'
p309
F2697.6286478194943
sS'4511676112-4511676176-4511676304-4511676368-4511676432:4511676496'
p310
F7178.267903289162
sS'4511676112-4511676304-4511676368-4511676432:4511676496'
p311
F2442.107886298508
sS'4511676112-4511676176-4511676624:4511676432'
p312
F6318.845307157337
sS'4511676240-4511676368-4511676432-4511676496-4511676624:4511676560'
p313
F15879.840492301922
sS'4511676176-4511676240-4511676432:4511676304'
p314
F403.26600435639864
sS'4511676112-4511676176-4511676240-4511676368:4511676560'
p315
F2825.0409479147556
sS'4511676112-4511676304-4511676432-4511676496-4511676624:4511676176'
p316
F13953.136602769719
sS'4511676240-4511676304-4511676368-4511676432-4511676560:4511676624'
p317
I0
sS'4511676368-4511676496:4511676432'
p318
F1346.4860874603655
sS'4511676240-4511676304-4511676368-4511676560-4511676624:4511676432'
p319
F13737.511303604178
sS'4511676112-4511676240-4511676368-4511676432:4511676496'
p320
F2692.968084611265
sS'4511676240-4511676432-4511676496:4511676176'
p321
F1723.704457292929
sS'4511676112-4511676176-4511676304-4511676624:4511676368'
p322
F7656.694875613899
sS'4511676240-4511676496-4511676560-4511676624:4511676368'
p323
F6269.687490615799
sS'4511676176-4511676304-4511676432-4511676560-4511676624:4511676240'
p324
F13582.260301906443
sS'4511676176-4511676368-4511676560-4511676624:4511676240'
p325
F5942.306852306018
sS'4511676112-4511676176-4511676304-4511676496-4511676624:4511676560'
p326
F10179.179358187273
sS'4511676112-4511676176-4511676304-4511676624:4511676560'
p327
F6751.959676661525
sS'4511676304-4511676368-4511676432-4511676496:4511676112'
p328
F4800.177498832165
sS'4511676112-4511676240-4511676304-4511676496-4511676560-4511676624:4511676176'
p329
F33565.888714255714
sS'4511676112-4511676176-4511676240-4511676432:4511676304'
p330
F1150.7291494289948
sS'4511676304-4511676432-4511676560:4511676368'
p331
F1956.0681381162885
sS'4511676112-4511676304-4511676560:4511676432'
p332
F2268.9006723770885
sS'4511676240-4511676432:4511676496'
p333
F1576.2753416267408
sS'4511676432-4511676560:4511676368'
p334
F1660.5401513718516
sS'4511676176-4511676496:4511676624'
p335
I0
sS'4511676368-4511676432-4511676624:4511676176'
p336
F7929.133682738832
sS'4511676368-4511676496-4511676560-4511676624:4511676304'
p337
F1948.731808333654
sS'4511676112-4511676560-4511676624:4511676432'
p338
F6087.67444637645
sS'4511676112-4511676432-4511676496-4511676560:4511676304'
p339
F1148.4406648066424
sS'4511676304-4511676368-4511676560:4511676112'
p340
F4031.321035009918
sS'4511676240-4511676432-4511676496-4511676624:4511676112'
p341
F12205.440209068618
sS'4511676176-4511676304-4511676496-4511676624:4511676240'
p342
F5762.106087982455
sS'4511676240-4511676304-4511676496-4511676560:4511676112'
p343
F4743.29890578545
sS'4511676112-4511676304:4511676368'
p344
F3587.3441415317825
sS'4511676176-4511676432-4511676496:4511676112'
p345
F4005.9045527365874
sS'4511676176-4511676368-4511676560:4511676112'
p346
F3995.378516040563
sS'4511676176-4511676240-4511676304-4511676496-4511676560:4511676624'
p347
I0
sS'4511676112-4511676304:4511676560'
p348
F2890.434009190281
sS'4511676176-4511676304-4511676368-4511676496:4511676432'
p349
F3181.368207921216
sS'4511676240-4511676496-4511676560:4511676304'
p350
F397.5123149923629
sS'4511676176-4511676240-4511676304-4511676368:4511676624'
p351
I0
sS'4511676112-4511676176-4511676368-4511676496-4511676560-4511676624:4511676240'
p352
F40803.403217339124
sS'4511676112-4511676368-4511676432-4511676624:4511676176'
p353
F8654.005162480147
sS'4511676176-4511676240-4511676304-4511676368-4511676432:4511676560'
p354
F11304.626900388635
sS'4511676240:4511676368'
p355
F2349.273075100479
sS'4511676112-4511676176-4511676240-4511676304-4511676496-4511676560:4511676432'
p356
F31355.145362554034
sS'4511676240-4511676304-4511676496-4511676560-4511676624:4511676176'
p357
F13622.94759778244
sS'4511676176-4511676432:4511676304'
p358
F103.50262768882328
sS'4511676112-4511676176-4511676432-4511676624:4511676496'
p359
F5607.898495285107
sS'4511676112-4511676176-4511676240-4511676496-4511676624:4511676432'
p360
F11640.491586906375
sS'4511676176-4511676240-4511676560:4511676624'
p361
I0
sS'4511676112-4511676432-4511676496-4511676624:4511676560'
p362
F5777.525453587099
sS'4511676112-4511676624:4511676176'
p363
F11301.94100834444
sS'4511676176-4511676240-4511676304-4511676368-4511676432-4511676560:4511676624'
p364
F4936.37719539189
sS'4511676176-4511676496-4511676560:4511676368'
p365
F1811.8699225025189
sS'4511676176-4511676304-4511676368-4511676624:4511676240'
p366
F5522.547856020753
sS'4511676112-4511676176-4511676240-4511676368-4511676432-4511676496-4511676560:4511676304'
p367
F140642.1282888811
sS'4511676112-4511676176-4511676240-4511676496-4511676560:4511676624'
p368
I0
sS'4511676112-4511676176-4511676304-4511676368-4511676432:4511676240'
p369
F7154.276390522826
sS'4511676304-4511676560-4511676624:4511676240'
p370
F9766.521100838707
sS'4511676368-4511676432-4511676496-4511676560:4511676624'
p371
I0
sS'4511676176-4511676240-4511676368-4511676432-4511676624:4511676304'
p372
F9452.072292547058
sS'4511676304-4511676368-4511676496:4511676432'
p373
F1645.9821876401124
sS'4511676176-4511676240-4511676496-4511676560-4511676624:4511676112'
p374
F17132.942487071345
sS'4511676176-4511676368-4511676624:4511676112'
p375
F11317.53145497177
sS'4511676112-4511676368-4511676560:4511676176'
p376
F2740.072886515607
sS'4511676112-4511676176-4511676432-4511676624:4511676304'
p377
F1202.1941449666624
sS'4511676176:4511676368'
p378
F2434.825410647578
sS'4511676176-4511676240-4511676304-4511676368-4511676432-4511676496:4511676112'
p379
F28692.64968786564
sS'4511676112-4511676176-4511676240-4511676304-4511676368-4511676432:4511676624'
p380
I0
sS'4511676112-4511676176-4511676560:4511676432'
p381
F2009.3577876332563
sS'4511676304-4511676368-4511676560-4511676624:4511676176'
p382
F9436.564265115203
sS'4511676112-4511676176-4511676240-4511676368-4511676624:4511676496'
p383
F11295.576111165503
sS'4511676176-4511676304-4511676560-4511676624:4511676368'
p384
F6836.428698366392
sS'4511676112-4511676176-4511676304-4511676560:4511676624'
p385
I0
sS'4511676368-4511676624:4511676560'
p386
F4284.612671653467
sS'4511676368-4511676432-4511676560:4511676304'
p387
F399.3286765514331
sS'4511676176-4511676240-4511676496:4511676112'
p388
F4010.5305363559455
sS'4511676240-4511676304-4511676560-4511676624:4511676368'
p389
F6683.529818828044
sS'4511676112-4511676240-4511676432-4511676624:4511676560'
p390
F5886.044880010902
sS'4511676304-4511676368:4511676176'
p391
F2720.052239248423
sS'4511676176-4511676560:4511676112'
p392
F3861.1709766012737
sS'4511676176:4511676560'
p393
F2164.955718816649
sS'4511676176-4511676304-4511676368-4511676432-4511676496-4511676624:4511676112'
p394
F35830.75706334347
sS'4511676112-4511676240-4511676368-4511676560:4511676432'
p395
F2804.7515369126954
sS'4511676176-4511676432-4511676560-4511676624:4511676304'
p396
F1936.6034327504585
sS'4511676176-4511676368-4511676496-4511676560-4511676624:4511676240'
p397
F15874.109762750864
sS'4511676368-4511676432-4511676560:4511676496'
p398
F1671.1273000868769
sS'4511676112-4511676176:4511676368'
p399
F2298.642284003432
sS'4511676240-4511676304-4511676496:4511676176'
p400
F1672.5812149806839
sS'4511676176-4511676240-4511676304-4511676432-4511676496-4511676560:4511676624'
p401
F5171.029368013593
sS'4511676112-4511676240-4511676368-4511676432-4511676496-4511676624:4511676176'
p402
F40865.41877716072
sS'4511676112-4511676176-4511676240-4511676304-4511676368-4511676624:4511676432'
p403
F33695.20850443324
sS'4511676176-4511676304-4511676432-4511676560-4511676624:4511676496'
p404
F13735.146282969507
sS'4511676112-4511676304-4511676368-4511676624:4511676432'
p405
F5315.705408581191
sS'4511676368-4511676432-4511676496-4511676560:4511676176'
p406
F4902.624240673158
sS'4511676368-4511676432-4511676496-4511676560-4511676624:4511676176'
p407
F19593.06010425296
sS'4511676112-4511676304-4511676368-4511676496-4511676560-4511676624:4511676432'
p408
F33342.65268595395
sS'4511676432-4511676496-4511676560-4511676624:4511676240'
p409
F10373.16453102179
sS'4511676240-4511676368-4511676496-4511676624:4511676560'
p410
F5999.677492486771
sS'4511676112-4511676176-4511676240-4511676304-4511676432-4511676560:4511676368'
p411
F31084.725851008916
sS'4511676112-4511676240-4511676496-4511676560:4511676432'
p412
F2896.0245683384837
sS'4511676112-4511676176-4511676368-4511676432-4511676496:4511676560'
p413
F8716.756609228485
sS'4511676176-4511676240-4511676432-4511676496:4511676304'
p414
F1902.613308810392
sS'4511676176-4511676560:4511676624'
p415
I0
sS'4511676176-4511676304-4511676368-4511676432-4511676496-4511676624:4511676240'
p416
F53376.82505603275
sS'4511676176-4511676368-4511676496-4511676560-4511676624:4511676112'
p417
F17074.17043575299
sS'4511676240-4511676304-4511676368:4511676112'
p418
F3980.0539026620136
sS'4511676176-4511676240-4511676304-4511676432-4511676496-4511676560-4511676624:4511676368'
p419
F252836.70048211704
sS'4511676176-4511676240-4511676432-4511676496-4511676560-4511676624:4511676368'
p420
F65339.75031588572
sS'4511676112-4511676240-4511676368-4511676624:4511676176'
p421
F5145.676553603506
sS'4511676112-4511676176-4511676368-4511676560-4511676624:4511676240'
p422
F10871.221145572446
sS'4511676112-4511676368-4511676432-4511676496-4511676624:4511676304'
p423
F5699.886805731375
sS'4511676432-4511676496-4511676560-4511676624:4511676112'
p424
F12425.761706072739
sS'4511676112-4511676176-4511676240:4511676560'
p425
F2183.183967038088
sS'4511676176-4511676240-4511676304-4511676560:4511676432'
p426
F3680.4415366633693
sS'4511676112-4511676560-4511676624:4511676368'
p427
F6583.398616164464
sS'4511676112-4511676176-4511676304-4511676496-4511676560:4511676432'
p428
F7401.645259272253
sS'4511676240-4511676304-4511676368-4511676496-4511676624:4511676432'
p429
F13408.298562534306
sS'4511676112-4511676240-4511676304-4511676368-4511676496-4511676560:4511676432'
p430
F31139.1941326276
sS'4511676112-4511676176-4511676240-4511676304-4511676624:4511676432'
p431
F11600.789833085126
sS'4511676176-4511676240-4511676304-4511676624:4511676496'
p432
F7866.5835154534825
sS'4511676304-4511676432-4511676496:4511676112'
p433
F4087.8555885303977
sS'4511676112-4511676304-4511676560-4511676624:4511676176'
p434
F10011.971945885522
sS'4511676112-4511676432-4511676560:4511676240'
p435
F2980.0234081837298
sS'4511676112-4511676176-4511676240-4511676304-4511676432-4511676496-4511676560:4511676624'
p436
F112259.88835357474
sS'4511676112-4511676304-4511676368-4511676432-4511676496-4511676560-4511676624:4511676176'
p437
F156802.36733927188
sS'4511676112-4511676176-4511676304-4511676432-4511676560-4511676624:4511676368'
p438
F33354.41131221497
sS'4511676432-4511676496:4511676368'
p439
F1792.6893521604015
sS'4511676240-4511676368-4511676432-4511676496:4511676176'
p440
F3671.714798514399
sS'4511676112-4511676240-4511676368-4511676496-4511676624:4511676176'
p441
F10975.763252472045
sS'4511676112-4511676176-4511676240-4511676368-4511676432-4511676496:4511676304'
p442
F28148.344599529806
sS'4511676368-4511676432-4511676496-4511676560-4511676624:4511676304'
p443
F9447.251632914546
sS'4511676112-4511676432-4511676624:4511676176'
p444
F8826.329686868314
sS'4511676176-4511676240-4511676368-4511676624:4511676560'
p445
F6265.92470946883
sS'4511676176-4511676240-4511676496-4511676560:4511676368'
p446
F3728.3435377489914
sS'4511676112-4511676368-4511676560-4511676624:4511676432'
p447
F5336.138486095525
sS'4511676496-4511676560-4511676624:4511676304'
p448
F461.17402839265014
sS'4511676176-4511676368-4511676432-4511676496:4511676240'
p449
F3653.093559340337
sS'4511676240-4511676432:4511676176'
p450
F1369.5174030808023
sS'4511676240-4511676432-4511676560-4511676624:4511676304'
p451
F1940.6362291927815
sS'4511676112-4511676240-4511676368-4511676432-4511676560:4511676496'
p452
F8598.368816993512
sS'4511676240-4511676560:4511676432'
p453
F1854.2695655160471
sS'4511676368-4511676496-4511676560:4511676240'
p454
F2927.704826374471
sS'4511676560-4511676624:4511676240'
p455
F9490.48611714712
sS'4511676304-4511676368-4511676432-4511676496-4511676560:4511676240'
p456
F12385.696093232373
sS'4511676496:4511676240'
p457
F3143.5422123038948
sS'4511676112-4511676304-4511676432-4511676560-4511676624:4511676496'
p458
F9910.156586281171
sS'4511676304-4511676432-4511676560:4511676624'
p459
I0
sS'4511676112-4511676176-4511676240-4511676624:4511676496'
p460
F6928.095134383096
sS'4511676176-4511676304-4511676368-4511676432-4511676560:4511676240'
p461
F11151.839425409193
sS'4511676176-4511676304-4511676496:4511676432'
p462
F1912.6556620092997
sS'4511676176-4511676304-4511676368-4511676560-4511676624:4511676240'
p463
F13441.574135513429
sS'4511676304-4511676560:4511676496'
p464
F2024.7239571172759
sS'4511676112-4511676240-4511676432-4511676624:4511676496'
p465
F5588.5140158383265
sS'4511676112-4511676240-4511676304-4511676368-4511676432:4511676496'
p466
F7192.88517627011
sS'4511676176-4511676240-4511676624:4511676304'
p467
F464.77818587218223
sS'4511676112-4511676240-4511676368-4511676496-4511676560:4511676432'
p468
F8639.62058271783
sS'4511676112-4511676176-4511676304-4511676560-4511676624:4511676368'
p469
F10615.96510560948
sS'4511676176-4511676240-4511676368-4511676432-4511676496-4511676560:4511676304'
p470
F46894.20123680673
sS'4511676112-4511676176-4511676240-4511676368-4511676496:4511676624'
p471
I0
sS'4511676176-4511676304-4511676368-4511676432-4511676560:4511676624'
p472
I0
sS'4511676112-4511676176-4511676368-4511676432:4511676496'
p473
F2678.347412089759
sS'4511676112-4511676240-4511676304-4511676368-4511676432-4511676624:4511676560'
p474
F33567.86101453077
sS'4511676112-4511676176-4511676304-4511676368:4511676240'
p475
F2381.4070570515437
sS'4511676112-4511676240-4511676304-4511676432-4511676496:4511676624'
p476
I0
sS'4511676112-4511676176-4511676240-4511676304-4511676432-4511676496-4511676560-4511676624:4511676368'
p477
F807985.6215180649
sS'4511676112-4511676240-4511676304-4511676432-4511676560:4511676624'
p478
I0
sS'4511676112-4511676368:4511676240'
p479
F2538.797219367454
sS'4511676176-4511676240-4511676368-4511676560:4511676112'
p480
F4974.298760247257
sS'4511676112-4511676432-4511676496-4511676560-4511676624:4511676176'
p481
F15091.083812325876
sS'4511676304-4511676432-4511676624:4511676240'
p482
F9464.360944992823
sS'4511676176-4511676304-4511676432-4511676624:4511676496'
p483
F6297.529511255699
sS'4511676304:4511676240'
p484
F4501.523816209297
sS'4511676112-4511676176-4511676240-4511676496:4511676304'
p485
F1150.7195081626487
sS'4511676112-4511676432-4511676496-4511676624:4511676304'
p486
F1205.1007140814218
sS'4511676176-4511676240-4511676624:4511676432'
p487
F6453.899020491772
sS'4511676304-4511676432-4511676496-4511676560:4511676240'
p488
F4669.381603013955
sS'4511676112-4511676304:4511676176'
p489
F3894.933973198709
sS'4511676112-4511676304-4511676496-4511676560:4511676432'
p490
F2762.935410024574
sS'4511676176-4511676240-4511676432-4511676624:4511676496'
p491
F6640.606498805695
sS'4511676112-4511676368-4511676624:4511676240'
p492
F7597.174367391295
sS'4511676176-4511676240-4511676368-4511676432:4511676112'
p493
F4988.002789737288
sS'4511676176-4511676304-4511676496-4511676560:4511676112'
p494
F4746.417264725215
sS'4511676176-4511676240-4511676304-4511676432-4511676624:4511676368'
p495
F14070.846046524392
sS'4511676368-4511676496-4511676560:4511676112'
p496
F4048.7598386608433
sS'4511676304-4511676432-4511676560-4511676624:4511676240'
p497
F10254.077593583508
sS'4511676240-4511676304-4511676368-4511676432-4511676496-4511676624:4511676560'
p498
F53359.631907112635
sS'4511676240-4511676304-4511676368-4511676432-4511676496-4511676560:4511676624'
p499
F4814.854019296854
sS'4511676176-4511676432-4511676496-4511676560-4511676624:4511676368'
p500
F15503.47278393506
sS'4511676112-4511676624:4511676368'
p501
F10282.204197756671
sS'4511676240-4511676496-4511676560-4511676624:4511676176'
p502
F6127.648546215907
sS'4511676176-4511676240-4511676432-4511676560:4511676496'
p503
F3756.780944411902
sS'4511676368-4511676496-4511676624:4511676240'
p504
F7821.488367478662
sS'4511676112-4511676432-4511676496:4511676560'
p505
F1909.8320313440531
sS'4511676112-4511676624:4511676560'
p506
F8048.285197215575
sS'4511676112:4511676496'
p507
F2926.767460806097
sS'4511676112-4511676176-4511676304-4511676496:4511676560'
p508
F2744.316247269278
sS'4511676176-4511676240-4511676560:4511676432'
p509
F2181.572834862388
sS'4511676304-4511676432-4511676560:4511676176'
p510
F3200.0554038091577
sS'4511676112-4511676176-4511676624:4511676240'
p511
F4388.7936522319005
sS'4511676112-4511676176-4511676304-4511676432:4511676560'
p512
F2833.524023279845
sS'4511676304-4511676368-4511676432-4511676560-4511676624:4511676496'
p513
F13374.55185572364
sS'4511676304-4511676368-4511676432-4511676496:4511676560'
p514
F3286.8875908031328
sS'4511676304-4511676368-4511676432-4511676624:4511676240'
p515
F9327.969768585592
sS'4511676304-4511676560:4511676176'
p516
F3251.0727126923175
sS'4511676368:4511676304'
p517
F44.07433404768961
sS'4511676112-4511676304-4511676432-4511676624:4511676496'
p518
F5873.8591340870535
sS'4511676112-4511676176-4511676304-4511676560:4511676432'
p519
F2908.240727957568
sS'4511676112-4511676240-4511676304-4511676432-4511676560-4511676624:4511676176'
p520
F33526.5028304321
sS'4511676112-4511676176-4511676240-4511676304-4511676560:4511676624'
p521
I0
sS'4511676176-4511676304-4511676368-4511676432-4511676496-4511676560:4511676624'
p522
F4850.658002537892
sS'4511676240-4511676368-4511676432:4511676624'
p523
I0
sS'4511676112-4511676176-4511676240-4511676304-4511676368-4511676432:4511676560'
p524
F31267.81361288239
sS'4511676112-4511676176-4511676496:4511676560'
p525
F1851.4626085379227
sS'4511676176-4511676432-4511676560:4511676304'
p526
F395.7111930307201
sS'4511676368-4511676560-4511676624:4511676176'
p527
F7950.883771860862
sS'4511676112-4511676304-4511676368-4511676560-4511676624:4511676432'
p528
F9834.353459236052
sS'4511676112-4511676176-4511676304-4511676432-4511676560:4511676496'
p529
F7253.82781929843
sS'4511676112-4511676176-4511676304-4511676432:4511676368'
p530
F2700.959937452414
sS'4511676176-4511676240-4511676304-4511676432-4511676624:4511676112'
p531
F16064.812938569388
sS'4511676112-4511676176-4511676240-4511676432-4511676624:4511676368'
p532
F11424.792277488274
sS'4511676304-4511676560-4511676624:4511676496'
p533
F5995.874673262695
sS'4511676624:4511676176'
p534
F13041.019694046377
sS'4511676240-4511676304-4511676368-4511676432-4511676624:4511676112'
p535
F15977.287011769171
sS'4511676304-4511676368:4511676560'
p536
F1575.0422628174233
sS'4511676112-4511676176-4511676240-4511676304-4511676432-4511676560-4511676624:4511676496'
p537
F153491.66406339893
sS'4511676112-4511676176-4511676240-4511676304:4511676624'
p538
I0
sS'4511676112-4511676368-4511676496:4511676624'
p539
I0
sS'4511676432:4511676496'
p540
F1762.1090007229377
sS'4511676112-4511676176:4511676560'
p541
F2059.3959997637285
sS'4511676240-4511676304-4511676496-4511676560:4511676368'
p542
F3284.806698816693
sS'4511676112-4511676176-4511676304:4511676496'
p543
F2246.925859625102
sS'4511676112-4511676176-4511676304-4511676368-4511676496-4511676624:4511676432'
p544
F33298.100796006984
sS'4511676112-4511676240-4511676304-4511676560-4511676624:4511676496'
p545
F10419.761476563157
sS'4511676304-4511676432-4511676496-4511676560:4511676112'
p546
F4824.766124649871
sS'4511676240-4511676432-4511676560:4511676176'
p547
F1723.0744839793058
sS'4511676368-4511676624:4511676176'
p548
F7888.445828437686
sS'4511676240-4511676368-4511676432:4511676112'
p549
F4007.0954710309106
sS'4511676176-4511676432-4511676624:4511676240'
p550
F4255.124333192834
sS'4511676240-4511676304-4511676560-4511676624:4511676176'
p551
F5792.5113396175975
sS'4511676176-4511676240-4511676560:4511676368'
p552
F2025.1167704343327
sS'4511676112-4511676176-4511676240-4511676304-4511676560-4511676624:4511676432'
p553
F34628.985564177856
sS'4511676176-4511676496-4511676624:4511676368'
p554
F5170.096179995881
sS':4511676176'
p555
F4476.516561924882
sS'4511676112-4511676496-4511676624:4511676432'
p556
F5288.732768744943
sS'4511676112-4511676176-4511676240-4511676432-4511676496-4511676560:4511676624'
p557
I0
sS'4511676176-4511676304-4511676368-4511676496-4511676624:4511676240'
p558
F13431.855005213647
sS'4511676112-4511676432:4511676560'
p559
F1936.750069828608
sS'4511676176-4511676240-4511676368-4511676432-4511676496:4511676304'
p560
F9400.832361447769
sS'4511676112-4511676368-4511676432-4511676560:4511676624'
p561
I0
sS'4511676112-4511676368-4511676432-4511676560-4511676624:4511676240'
p562
F14377.499734568162
sS'4511676112-4511676176-4511676304-4511676432-4511676624:4511676368'
p563
F10226.095842237217
sS'4511676112-4511676176-4511676240:4511676432'
p564
F2232.2914381409296
sS'4511676176-4511676496-4511676560-4511676624:4511676240'
p565
F6121.471346204885
sS'4511676112-4511676304-4511676368-4511676432-4511676560-4511676624:4511676496'
p566
F33249.57509415646
sS'4511676112-4511676240-4511676304-4511676368-4511676560-4511676624:4511676432'
p567
F33662.52545074083
sS'4511676112-4511676176-4511676304-4511676432-4511676496-4511676560-4511676624:4511676240'
p568
F153410.37040439108
sS'4511676624:4511676496'
p569
F10295.78499045004
sS'4511676112-4511676240-4511676624:4511676432'
p570
F6327.370224417094
sS'4511676176-4511676240-4511676368-4511676560-4511676624:4511676112'
p571
F17129.363703687523
sS'4511676112-4511676240-4511676560:4511676432'
p572
F2003.0867192974274
sS'4511676112-4511676240-4511676432-4511676496:4511676624'
p573
I0
sS'4511676176-4511676304-4511676432-4511676560-4511676624:4511676368'
p574
F13479.959602596036
sS'4511676112-4511676176-4511676240-4511676368-4511676496-4511676624:4511676432'
p575
F40742.88644471402
sS'4511676496-4511676560-4511676624:4511676240'
p576
F8923.575623474662
sS'4511676112-4511676176-4511676304-4511676432-4511676624:4511676560'
p577
F10401.477747046636
sS'4511676112-4511676304-4511676560-4511676624:4511676368'
p578
F7469.214155282604
sS'4511676176-4511676368-4511676624:4511676304'
p579
F454.69132178173857
sS'4511676176-4511676304-4511676368-4511676432-4511676496-4511676560:4511676112'
p580
F28687.637666433788
sS'4511676304-4511676368-4511676496-4511676624:4511676112'
p581
F12146.562321828087
sS'4511676112-4511676560-4511676624:4511676176'
p582
F9131.722954169032
sS'4511676112-4511676560:4511676496'
p583
F1889.6870991807982
sS'4511676112-4511676176-4511676304:4511676624'
p584
I0
sS'4511676112-4511676432-4511676496:4511676240'
p585
F3020.0220731983995
sS'4511676240-4511676304-4511676368-4511676432-4511676496:4511676624'
p586
I0
sS'4511676176-4511676240-4511676496:4511676304'
p587
F403.3701917228394
sS'4511676176-4511676304-4511676368-4511676432-4511676496:4511676112'
p588
F8710.926820736327
sS'4511676176-4511676240-4511676432:4511676368'
p589
F1946.5555312489207
sS'4511676112-4511676304-4511676432-4511676496-4511676560-4511676624:4511676240'
p590
F37536.876478907834
sS'4511676240-4511676624:4511676432'
p591
F6545.773489764772
sS'4511676240-4511676368-4511676496-4511676624:4511676176'
p592
F6038.417798867831
sS'4511676112-4511676304-4511676624:4511676240'
p593
F11483.011507366597
sS'4511676304-4511676368-4511676432-4511676560:4511676176'
p594
F4439.3054905077315
sS'4511676112-4511676176-4511676304-4511676368-4511676432-4511676560:4511676496'
p595
F31095.503275796913
sS'4511676304-4511676496-4511676560-4511676624:4511676368'
p596
F7021.548798986931
sS'4511676240-4511676368-4511676624:4511676112'
p597
F11320.888348648816
sS'4511676112-4511676176-4511676240-4511676432-4511676560-4511676624:4511676368'
p598
F40634.28966110022
sS'4511676176-4511676240-4511676432-4511676560:4511676368'
p599
F3621.196400664522
sS'4511676176-4511676304-4511676368-4511676560-4511676624:4511676432'
p600
F13674.246890820064
sS'4511676112-4511676176-4511676240-4511676304-4511676432-4511676496:4511676624'
p601
I0
sS'4511676240:4511676112'
p602
F3954.327306740226
sS'4511676112-4511676176-4511676304-4511676368-4511676432-4511676496-4511676560-4511676624:4511676240'
p603
F808507.915631166
sS'4511676304-4511676368-4511676432-4511676560-4511676624:4511676240'
p604
F17142.335158207534
sS'4511676176-4511676368-4511676496-4511676624:4511676112'
p605
F12152.89405463035
sS'4511676432-4511676560-4511676624:4511676112'
p606
F11623.019571595602
sS'4511676176-4511676240-4511676304-4511676496-4511676624:4511676368'
p607
F14333.785726653732
sS'4511676112-4511676176-4511676432-4511676496-4511676560:4511676368'
p608
F8503.18780144313
sS'4511676112-4511676176-4511676496:4511676368'
p609
F1877.4836941509152
sS'4511676112-4511676368-4511676496-4511676624:4511676560'
p610
F5094.588516076397
sS'4511676432-4511676496-4511676624:4511676176'
p611
F8831.006876978656
sS'4511676240-4511676304-4511676368-4511676560:4511676432'
p612
F3326.8539462645604
sS'4511676112-4511676176-4511676368-4511676496-4511676624:4511676560'
p613
F10890.746047344544
sS'4511676112-4511676432-4511676496:4511676368'
p614
F1904.7581320919803
sS'4511676112-4511676176-4511676432-4511676496:4511676304'
p615
F1150.2006042937232
sS'4511676176-4511676240-4511676368-4511676496-4511676560:4511676624'
p616
I0
sS'4511676112-4511676176-4511676432:4511676368'
p617
F1803.203639966053
sS'4511676432-4511676496:4511676176'
p618
F2948.6771290652264
sS'4511676112-4511676432-4511676496-4511676624:4511676176'
p619
F9458.2066934936
sS'4511676112-4511676304-4511676368-4511676432-4511676496-4511676560:4511676624'
p620
I0
sS'4511676176-4511676240-4511676432-4511676496:4511676624'
p621
I0
sS'4511676112-4511676176-4511676304-4511676368-4511676560-4511676624:4511676432'
p622
F33600.304699059416
sS'4511676240-4511676368-4511676432-4511676560-4511676624:4511676112'
p623
F17124.639940487064
sS'4511676368-4511676624:4511676432'
p624
F4324.744547340295
sS'4511676112-4511676176-4511676560:4511676304'
p625
F244.53980304872667
sS'4511676176-4511676368-4511676496-4511676560:4511676240'
p626
F3651.978799403239
sS'4511676112-4511676176:4511676624'
p627
I0
sS'4511676112-4511676304-4511676368-4511676496-4511676560:4511676176'
p628
F8364.226093690124
sS'4511676112-4511676496-4511676560:4511676624'
p629
I0
sS'4511676240-4511676368-4511676560-4511676624:4511676496'
p630
F6212.65852717832
sS'4511676112-4511676176-4511676496-4511676560:4511676624'
p631
I0
sS'4511676176-4511676432-4511676496-4511676560:4511676240'
p632
F3691.6980266997393
sS'4511676176-4511676304-4511676496-4511676560:4511676240'
p633
F3235.3104160313255
sS'4511676112-4511676176-4511676240-4511676304:4511676560'
p634
F3074.8619897233734
sS'4511676112-4511676240-4511676368-4511676432-4511676560:4511676624'
p635
I0
sS'4511676112-4511676176-4511676240-4511676368-4511676560:4511676496'
p636
F8723.38632173331
sS'4511676176-4511676496-4511676624:4511676560'
p637
F4800.592282625935
sS'4511676112-4511676240-4511676304-4511676368-4511676624:4511676560'
p638
F9782.630446054563
sS'4511676112-4511676304-4511676368:4511676240'
p639
F2717.2364826914113
sS'4511676176-4511676240-4511676496-4511676560:4511676432'
p640
F3886.965809943271
sS'4511676176-4511676304-4511676432-4511676496:4511676112'
p641
F4753.247430111984
sS'4511676176-4511676368-4511676496-4511676560:4511676432'
p642
F3652.606358061091
sS'4511676304-4511676368-4511676432-4511676496-4511676560:4511676112'
p643
F8776.4404445667
sS'4511676176-4511676304-4511676432-4511676624:4511676240'
p644
F5754.402583941274
sS'4511676176-4511676240-4511676304-4511676496:4511676560'
p645
F3528.8720603490287
sS'4511676432-4511676560-4511676624:4511676368'
p646
F5050.899737702117
sS'4511676240-4511676368-4511676560:4511676304'
p647
F395.0609059270255
sS'4511676176-4511676304-4511676368-4511676432-4511676496-4511676624:4511676560'
p648
F53347.94412065042
sS'4511676240-4511676304-4511676432-4511676560-4511676624:4511676496'
p649
F13708.178148632263
sS'4511676176-4511676240-4511676304-4511676368-4511676560-4511676624:4511676432'
p650
F53596.38175484626
sS'4511676112-4511676176-4511676368-4511676496:4511676240'
p651
F2651.6727983597243
sS'4511676240-4511676368-4511676560:4511676496'
p652
F1794.7394675802745
sS'4511676112-4511676240-4511676304-4511676432-4511676496:4511676368'
p653
F7231.10366998191
sS'4511676112-4511676176-4511676240-4511676304-4511676368:4511676432'
p654
F7304.558150451141
sS'4511676176-4511676368-4511676560:4511676624'
p655
I0
sS'4511676304-4511676560:4511676368'
p656
F2380.8932511618295
sS'4511676112-4511676240-4511676304-4511676624:4511676496'
p657
F7022.896031103642
sS'4511676176-4511676240-4511676304-4511676496:4511676368'
p658
F3510.237779306695
sS'4511676176-4511676240-4511676304:4511676432'
p659
F2441.197287806858
sS'4511676112-4511676304-4511676368-4511676432:4511676560'
p660
F2566.852088500374
sS'4511676240-4511676368-4511676624:4511676560'
p661
F4422.879721255839
sS'4511676240-4511676432-4511676496-4511676560-4511676624:4511676368'
p662
F15488.47740474623
sS'4511676112-4511676304:4511676496'
p663
F2958.886975544559
sS'4511676176-4511676240-4511676368-4511676432:4511676560'
p664
F3811.2329679988716
sS'4511676112-4511676240-4511676304-4511676496-4511676560:4511676624'
p665
I0
sS'4511676240-4511676432-4511676496:4511676112'
p666
F4003.5645324123448
sS'4511676624:4511676304'
p667
F122.10889816989982
sS'4511676112-4511676176-4511676560:4511676240'
p668
F1582.695370190613
sS'4511676240-4511676304-4511676368-4511676432-4511676496-4511676560-4511676624:4511676176'
p669
F253363.81463388875
sS'4511676176-4511676240-4511676368-4511676560:4511676304'
p670
F1894.8749899063143
sS'4511676112-4511676240-4511676496-4511676560:4511676368'
p671
F2753.5058637402963
sS'4511676112-4511676176-4511676432-4511676496-4511676624:4511676304'
p672
F5700.03062335754
sS'4511676176-4511676368-4511676432-4511676560-4511676624:4511676496'
p673
F15755.916286248479
sS'4511676304-4511676624:4511676176'
p674
F13085.12165620927
sS'4511676240-4511676304-4511676496-4511676560:4511676176'
p675
F3233.794197538572
sS'4511676176-4511676432:4511676560'
p676
F1798.976868413777
sS'4511676176-4511676240-4511676304-4511676496-4511676560-4511676624:4511676112'
p677
F35875.956433672785
sS'4511676240-4511676304-4511676368-4511676432-4511676560-4511676624:4511676496'
p678
F53262.99570975977
sS'4511676112-4511676304-4511676432-4511676624:4511676240'
p679
F9741.232161504495
sS'4511676240-4511676368-4511676496-4511676560-4511676624:4511676304'
p680
F9434.221646947717
sS'4511676304-4511676368-4511676624:4511676560'
p681
F4572.352486255093
sS'4511676176-4511676432:4511676368'
p682
F1663.677375628341
sS'4511676176-4511676304-4511676368:4511676560'
p683
F1779.8982474410864
sS'4511676112-4511676176-4511676304-4511676368-4511676432-4511676496-4511676624:4511676240'
p684
F153310.40701541264
sS'4511676112-4511676240-4511676368-4511676496-4511676624:4511676432'
p685
F10853.230920025357
sS'4511676112-4511676176-4511676240-4511676432-4511676560:4511676624'
p686
I0
sS'4511676240-4511676368-4511676496-4511676560:4511676112'
p687
F4961.712049591741
sS'4511676112-4511676368-4511676432-4511676560:4511676240'
p688
F3837.0989286684717
sS'4511676496-4511676624:4511676240'
p689
F9232.984901723219
sS'4511676176-4511676432-4511676496:4511676304'
p690
F402.8577269183255
sS'4511676112-4511676240-4511676496:4511676176'
p691
F1553.6327762034614
sS'4511676176-4511676496-4511676560:4511676432'
p692
F1930.772967400298
sS'4511676112-4511676176-4511676240-4511676368-4511676432:4511676496'
p693
F8658.591772797035
sS'4511676176-4511676240-4511676304-4511676368-4511676496-4511676560:4511676624'
p694
F4963.737882403268
sS'4511676112-4511676176-4511676560:4511676624'
p695
I0
sS'4511676240-4511676432-4511676496:4511676624'
p696
I0
sS'4511676112-4511676304-4511676368-4511676432-4511676560:4511676624'
p697
I0
sS'4511676176-4511676304-4511676368-4511676432-4511676624:4511676112'
p698
F15978.044914283524
sS'4511676368-4511676432-4511676496-4511676560-4511676624:4511676240'
p699
F19545.291806730325
sS'4511676368-4511676624:4511676496'
p700
F4508.669656066944
sS'4511676304:4511676624'
p701
I0
sS'4511676176:4511676304'
p702
F45.613748549072966
sS'4511676112-4511676240-4511676368-4511676560-4511676624:4511676176'
p703
F10990.353533606487
sS'4511676112-4511676176-4511676304-4511676368-4511676560:4511676496'
p704
F7247.620272385495
sS'4511676432-4511676624:4511676240'
p705
F9171.683635402376
sS'4511676368-4511676496-4511676560-4511676624:4511676432'
p706
F5903.835623956524
sS'4511676240-4511676304-4511676560-4511676624:4511676496'
p707
F6633.640272348778
sS'4511676304-4511676368-4511676432-4511676560:4511676496'
p708
F3171.018604615376
sS'4511676176-4511676240-4511676304-4511676368-4511676432-4511676624:4511676112'
p709
F35911.71319505626
sS'4511676112-4511676240-4511676368-4511676432-4511676624:4511676176'
p710
F10963.593093567508
sS'4511676368-4511676432-4511676624:4511676560'
p711
F4374.902313457311
sS'4511676112-4511676368-4511676432-4511676560-4511676624:4511676496'
p712
F10749.879834581663
sS'4511676176-4511676240-4511676304-4511676368-4511676560:4511676432'
p713
F11277.08935710554
sS'4511676368-4511676496:4511676240'
p714
F2581.4219016448496
sS'4511676112-4511676176-4511676304-4511676368-4511676496-4511676624:4511676240'
p715
F33366.97869286444
sS'4511676240-4511676304-4511676368-4511676432-4511676624:4511676560'
p716
F13676.94039928255
sS'4511676240-4511676368-4511676496:4511676304'
p717
F401.69049311876415
sS'4511676112-4511676368-4511676432-4511676560-4511676624:4511676304'
p718
F5686.373084218745
sS'4511676112-4511676176-4511676240-4511676304:4511676368'
p719
F3217.7219869915357
sS'4511676112-4511676240-4511676304-4511676432:4511676176'
p720
F2448.447985103051
sS'4511676368-4511676560:4511676624'
p721
I0
sS'4511676112-4511676240-4511676304-4511676368-4511676496-4511676560-4511676624:4511676176'
p722
F153380.16537312488
sS'4511676176-4511676304-4511676368-4511676560:4511676112'
p723
F4743.254377655051
sS'4511676112-4511676304-4511676368-4511676560:4511676432'
p724
F2564.709718887384
sS'4511676112-4511676240:4511676368'
p725
F2227.529003523186
sS'4511676112-4511676304-4511676624:4511676432'
p726
F8962.789333428942
sS'4511676240-4511676368-4511676432-4511676496-4511676624:4511676176'
p727
F15937.518867308672
sS'4511676176:4511676432'
p728
F2227.8880697966943
sS'4511676240-4511676560:4511676112'
p729
F3855.2233687883845
sS'4511676176-4511676560-4511676624:4511676240'
p730
F4327.4522147079215
sS'4511676240-4511676304-4511676368-4511676496-4511676624:4511676560'
p731
F13479.557942524443
sS'4511676112-4511676496-4511676560:4511676176'
p732
F3033.561172092122
sS'4511676112-4511676560-4511676624:4511676496'
p733
F5511.989754213202
sS'4511676304-4511676496-4511676560-4511676624:4511676176'
p734
F10406.346630421911
sS'4511676240-4511676304-4511676368-4511676560:4511676496'
p735
F3294.5524077213795
sS'4511676112-4511676176-4511676240-4511676368-4511676560:4511676624'
p736
I0
sS'4511676432-4511676496:4511676560'
p737
F1771.818427198892
sS'4511676112-4511676240-4511676496-4511676624:4511676304'
p738
F1202.4163761883062
sS'4511676112-4511676368-4511676496-4511676560-4511676624:4511676240'
p739
F14392.683349136789
sS'4511676496-4511676560-4511676624:4511676432'
p740
F5121.476513964755
sS'4511676112-4511676240-4511676432-4511676560:4511676624'
p741
I0
sS'4511676112-4511676240-4511676304-4511676432:4511676368'
p742
F2656.256149637789
sS'4511676176-4511676240-4511676368-4511676496:4511676304'
p743
F1901.3372390120953
sS'4511676368-4511676560:4511676112'
p744
F3884.9849181439804
sS'4511676112-4511676304-4511676368-4511676432-4511676496-4511676624:4511676560'
p745
F33422.63247458935
sS'4511676112-4511676176-4511676368-4511676560:4511676304'
p746
F1142.9953179584677
sS'4511676368-4511676432:4511676624'
p747
I0
sS'4511676112-4511676368-4511676624:4511676304'
p748
F302.0035898484773
sS'4511676240-4511676368-4511676560:4511676112'
p749
F3992.951745983636
sS'4511676176-4511676304-4511676368-4511676432:4511676624'
p750
I0
sS'4511676432-4511676560:4511676304'
p751
F103.80068980699798
sS'4511676112-4511676240-4511676304-4511676432-4511676496:4511676176'
p752
F7204.175113167025
sS'4511676112-4511676176-4511676240-4511676432-4511676496:4511676560'
p753
F8926.671079325919
sS'4511676176-4511676304-4511676496:4511676624'
p754
I0
sS'4511676112-4511676304-4511676368-4511676432-4511676560:4511676496'
p755
F7138.406334335803
sS'4511676112-4511676240-4511676368-4511676496:4511676624'
p756
I0
sS'4511676240-4511676304-4511676432-4511676560-4511676624:4511676176'
p757
F13583.999535238328
sS'4511676368-4511676432-4511676560-4511676624:4511676304'
p758
F1947.451961337647
sS'4511676240-4511676304-4511676368-4511676432-4511676560:4511676496'
p759
F11132.006585818259
sS'4511676112-4511676240-4511676368-4511676496:4511676432'
p760
F2682.747615826094
sS'4511676240-4511676304-4511676368-4511676560:4511676112'
p761
F4740.8417559527
sS'4511676112-4511676240-4511676432:4511676496'
p762
F1718.7702024682767
sS'4511676112-4511676304-4511676368-4511676432-4511676624:4511676496'
p763
F9581.224807075121
sS'4511676112-4511676176-4511676240-4511676432-4511676496:4511676368'
p764
F8678.360476478118
sS'4511676176-4511676624:4511676368'
p765
F7086.405178509163
sS'4511676176-4511676304-4511676496-4511676560-4511676624:4511676368'
p766
F13835.618704948854
sS'4511676112:4511676176'
p767
F3862.339531250711
sS'4511676112-4511676240-4511676304-4511676368-4511676624:4511676176'
p768
F9644.81618419237
sS'4511676176-4511676368-4511676496-4511676624:4511676560'
p769
F5969.469666221931
sS'4511676112-4511676240-4511676304-4511676496-4511676560:4511676368'
p770
F7251.051448152908
sS'4511676112-4511676240-4511676304-4511676624:4511676560'
p771
F6757.5380485713495
sS'4511676304-4511676496-4511676560:4511676176'
p772
F3249.2309892724406
sS'4511676368-4511676432:4511676240'
p773
F2588.2856352181216
sS'4511676304-4511676432-4511676496:4511676624'
p774
I0
sS'4511676176-4511676240:4511676560'
p775
F2098.098568084595
sS'4511676112-4511676240-4511676304-4511676368-4511676432-4511676560:4511676496'
p776
F31098.27000338693
sS'4511676240-4511676368-4511676624:4511676304'
p777
F454.8482776787389
sS'4511676112-4511676176-4511676240-4511676368-4511676432-4511676496:4511676560'
p778
F38692.9620525963
sS'4511676176-4511676240-4511676304-4511676432-4511676496-4511676624:4511676112'
p779
F35885.982449460025
sS'4511676176-4511676240-4511676368-4511676624:4511676432'
p780
F6276.846325235631
sS'4511676112-4511676176-4511676240-4511676304-4511676368-4511676624:4511676560'
p781
F33627.72017740081
sS'4511676112-4511676304-4511676496-4511676560:4511676368'
p782
F2839.8965225356164
sS'4511676368-4511676432-4511676560-4511676624:4511676240'
p783
F9656.842283858126
sS'4511676176-4511676240-4511676432-4511676560-4511676624:4511676112'
p784
F17182.378367483525
sS'4511676112-4511676176-4511676368-4511676432:4511676304'
p785
F1148.676100935138
sS'4511676112-4511676176-4511676240-4511676304-4511676368-4511676432-4511676624:4511676496'
p786
F153341.1002502209
sS'4511676112-4511676368:4511676176'
p787
F2603.998782127481
sS'4511676112-4511676240-4511676304-4511676560-4511676624:4511676368'
p788
F10479.82918572373
sS'4511676176-4511676304-4511676368-4511676496:4511676240'
p789
F3169.0326414857554
sS'4511676304-4511676432-4511676496-4511676560-4511676624:4511676176'
p790
F17884.016145582656
sS'4511676240-4511676304-4511676432-4511676560:4511676112'
p791
F4751.746939430602
sS'4511676112-4511676304-4511676368-4511676432:4511676176'
p792
F3625.5536487025706
sS'4511676176-4511676240-4511676304-4511676560-4511676624:4511676368'
p793
F14451.097131892353
sS'4511676112-4511676176-4511676240-4511676432-4511676624:4511676560'
p794
F11760.270025669855
sS'4511676176-4511676304-4511676432-4511676496-4511676560-4511676624:4511676368'
p795
F53000.52992620469
sS'4511676112-4511676176-4511676368:4511676432'
p796
F1632.2940600040222
sS'4511676240-4511676432-4511676496-4511676560-4511676624:4511676112'
p797
F17100.92611893721
sS'4511676112-4511676368-4511676432-4511676496-4511676560:4511676240'
p798
F9796.972516509768
sS'4511676496-4511676560:4511676112'
p799
F3922.4556047653723
sS'4511676176-4511676240-4511676368-4511676432-4511676560:4511676496'
p800
F13612.694872366308
sS'4511676112-4511676304:4511676624'
p801
I0
sS'4511676112-4511676432-4511676496:4511676304'
p802
F251.8740293192518
sS'4511676368-4511676496-4511676560:4511676176'
p803
F2951.9886051038034
sS'4511676112-4511676304-4511676432:4511676240'
p804
F3169.192090803529
sS'4511676112-4511676176-4511676368-4511676496-4511676560-4511676624:4511676304'
p805
F28177.59615147331
sS'4511676112-4511676176-4511676496-4511676560:4511676368'
p806
F2777.3281986164616
sS'4511676112-4511676240:4511676560'
p807
F2059.4624048000674
sS'4511676112-4511676368-4511676432:4511676240'
p808
F2697.2391322742897
sS'4511676112-4511676240-4511676368-4511676496-4511676560-4511676624:4511676432'
p809
F40713.7068318695
sS'4511676304-4511676368-4511676432-4511676496-4511676560:4511676176'
p810
F12397.853111193983
sS'4511676240-4511676368-4511676432-4511676560:4511676304'
p811
F1894.4982573222949
sS'4511676176-4511676304-4511676432-4511676496:4511676368'
p812
F3295.523631212399
sS'4511676176-4511676432-4511676496-4511676560:4511676112'
p813
F4970.274842943151
sS'4511676112-4511676240-4511676368-4511676496-4511676560:4511676624'
p814
I0
sS'4511676112-4511676304-4511676368-4511676432-4511676624:4511676560'
p815
F9754.282187507992
sS'4511676304:4511676432'
p816
F3588.162119780914
sS'4511676112-4511676176-4511676240-4511676496-4511676560-4511676624:4511676368'
p817
F40962.133383407694
sS'4511676112-4511676240-4511676624:4511676368'
p818
F6566.291534010946
sS'4511676176-4511676240-4511676432:4511676112'
p819
F4040.296136413201
sS'4511676240-4511676304-4511676368-4511676496:4511676432'
p820
F3199.1763054562593
sS'4511676176-4511676240-4511676304-4511676368-4511676496-4511676560:4511676432'
p821
F51135.24614468176
sS'4511676176-4511676240-4511676496-4511676624:4511676560'
p822
F6659.22570493694
sS'4511676112-4511676176-4511676304-4511676624:4511676240'
p823
F5287.527173595354
sS'4511676112-4511676240-4511676304-4511676624:4511676176'
p824
F5276.2253407697635
sS'4511676112-4511676240:4511676304'
p825
F73.17664664820637
sS'4511676240-4511676304-4511676496:4511676560'
p826
F1967.6590777911438
sS'4511676112-4511676176-4511676304-4511676432:4511676496'
p827
F2626.024818904839
sS'4511676112-4511676176-4511676240-4511676304-4511676560-4511676624:4511676368'
p828
F34241.43271841155
sS'4511676112-4511676176-4511676304-4511676368-4511676624:4511676560'
p829
F9711.229906657085
sS'4511676176-4511676304-4511676368-4511676560:4511676432'
p830
F3301.375305686667
sS'4511676304-4511676432:4511676624'
p831
I0
sS'4511676176-4511676368-4511676560:4511676496'
p832
F1779.0057776704252
sS'4511676112-4511676240-4511676624:4511676560'
p833
F5879.5650752061965
sS'4511676304-4511676368-4511676560-4511676624:4511676496'
p834
F5885.432300529584
sS'4511676240-4511676304-4511676368-4511676432-4511676624:4511676176'
p835
F13528.303623073987
sS'4511676176-4511676240-4511676368-4511676432-4511676496-4511676624:4511676304'
p836
F46951.90240000622
sS'4511676304-4511676432-4511676560-4511676624:4511676112'
p837
F12359.292453326116
sS'4511676432-4511676496-4511676560:4511676624'
p838
I0
sS'4511676112-4511676240-4511676304-4511676432-4511676496-4511676560-4511676624:4511676368'
p839
F152876.91762701297
sS'4511676176-4511676304-4511676368:4511676432'
p840
F1756.1597488872417
sS'4511676176-4511676368-4511676432-4511676496-4511676560-4511676624:4511676240'
p841
F65816.59604922868
sS'4511676112-4511676240-4511676368-4511676496-4511676560:4511676176'
p842
F8657.62087387571
sS'4511676112-4511676176-4511676368-4511676496:4511676560'
p843
F2751.307113003478
sS'4511676112-4511676432-4511676560:4511676624'
p844
I0
sS'4511676112-4511676176-4511676240-4511676304-4511676496-4511676560-4511676624:4511676432'
p845
F153863.30181960863
sS'4511676176-4511676560-4511676624:4511676304'
p846
F439.3560408726062
sS'4511676176-4511676368-4511676560:4511676304'
p847
F395.1194563439758
sS'4511676112-4511676176-4511676304-4511676432-4511676496:4511676560'
p848
F7461.327023673438
sS'4511676176-4511676304-4511676496-4511676560:4511676624'
p849
I0
sS'4511676112-4511676176-4511676368-4511676432-4511676496-4511676560:4511676624'
p850
I0
sS'4511676240-4511676304-4511676496:4511676368'
p851
F1977.4117329905362
sS'4511676240-4511676368-4511676432-4511676560-4511676624:4511676304'
p852
F9432.944835687038
sS'4511676112-4511676176-4511676368-4511676432-4511676560:4511676240'
p853
F8629.033368433084
sS'4511676176-4511676432-4511676560-4511676624:4511676240'
p854
F6082.924932615799
sS'4511676112-4511676240-4511676368-4511676432-4511676496-4511676560-4511676624:4511676304'
p855
F140676.17552057866
sS'4511676304-4511676432-4511676496-4511676624:4511676368'
p856
F6731.9269178099075
sS'4511676176-4511676304-4511676432-4511676560-4511676624:4511676112'
p857
F15995.550776483007
sS'4511676112-4511676240-4511676304-4511676432-4511676624:4511676496'
p858
F10086.31865655019
sS'4511676176-4511676496-4511676560:4511676240'
p859
F1735.5051841567652
sS'4511676176-4511676560-4511676624:4511676496'
p860
F5171.682770759487
sS'4511676176-4511676368-4511676432-4511676560-4511676624:4511676240'
p861
F15864.444401820267
sS'4511676112-4511676176-4511676304-4511676432-4511676496:4511676368'
p862
F7253.203021836741
sS'4511676112-4511676240-4511676496-4511676560:4511676624'
p863
I0
sS'4511676112-4511676176-4511676304-4511676496-4511676624:4511676368'
p864
F10519.21199094154
sS'4511676112-4511676368-4511676432:4511676496'
p865
F1542.1817734981303
sS'4511676112-4511676304-4511676368-4511676496-4511676560-4511676624:4511676240'
p866
F36882.79597835311
sS'4511676240-4511676368-4511676560-4511676624:4511676304'
p867
F1934.7456878845703
sS'4511676240-4511676304-4511676432-4511676560-4511676624:4511676368'
p868
F13426.458731543546
sS'4511676112-4511676176-4511676496:4511676304'
p869
F250.92386454460112
sS'4511676112-4511676176-4511676240-4511676368-4511676496-4511676624:4511676560'
p870
F40826.43416109551
sS'4511676304-4511676432-4511676496-4511676624:4511676560'
p871
F6426.44458492487
sS'4511676176-4511676240-4511676304-4511676368-4511676432-4511676496:4511676560'
p872
F51215.83960297344
sS'4511676432-4511676624:4511676496'
p873
F5107.674825548389
sS'4511676112-4511676240-4511676304-4511676560-4511676624:4511676176'
p874
F9728.302382850785
sS'4511676240-4511676496:4511676560'
p875
F1673.8710744154723
sS'4511676176-4511676368-4511676432-4511676496-4511676560-4511676624:4511676112'
p876
F41998.17509307588
sS'4511676240-4511676304-4511676368:4511676624'
p877
I0
sS'4511676112-4511676176-4511676240-4511676560:4511676432'
p878
F3131.652015206044
sS'4511676112-4511676368-4511676432-4511676496-4511676624:4511676240'
p879
F14416.847699940201
sS'4511676176-4511676304-4511676368-4511676432:4511676560'
p880
F3325.1138042405105
sS'4511676176-4511676240-4511676304-4511676560:4511676624'
p881
I0
sS'4511676112-4511676240-4511676304-4511676368-4511676432:4511676176'
p882
F7184.152680444508
sS'4511676112-4511676176-4511676304-4511676496-4511676560:4511676240'
p883
F7215.843371334166
sS'4511676112-4511676368-4511676496-4511676560:4511676304'
p884
F1145.9910014669347
sS'4511676112-4511676368:4511676432'
p885
F1509.1359591217736
sS'4511676112-4511676240-4511676368-4511676560-4511676624:4511676496'
p886
F11085.444982394218
sS'4511676176-4511676240-4511676304-4511676432-4511676496-4511676560-4511676624:4511676112'
p887
F135784.69513944892
sS'4511676240-4511676368-4511676496-4511676560:4511676304'
p888
F1894.8738460681288
sS'4511676112-4511676176-4511676304-4511676368-4511676560:4511676240'
p889
F7155.095787936915
sS'4511676176-4511676560:4511676496'
p890
F1723.5797303766676
sS'4511676240-4511676304:4511676560'
p891
F2211.6545547372225
sS'4511676112-4511676240-4511676368-4511676432-4511676496-4511676560:4511676624'
p892
I0
sS'4511676176-4511676304-4511676560:4511676496'
p893
F2022.882233697399
sS'4511676176-4511676304-4511676368-4511676432:4511676496'
p894
F3220.903671334086
sS'4511676112-4511676176-4511676368-4511676624:4511676304'
p895
F1197.1646817031815
sS'4511676368-4511676432-4511676560:4511676112'
p896
F4062.726290617198
sS'4511676176-4511676624:4511676112'
p897
F11635.707409514991
sS'4511676176-4511676304-4511676624:4511676496'
p898
F6757.7311638498
sS'4511676176-4511676304-4511676496:4511676368'
p899
F2026.8110853004855
sS'4511676176-4511676304-4511676368-4511676496-4511676560:4511676112'
p900
F8712.053914380576
sS'4511676240-4511676432-4511676496-4511676560:4511676368'
p901
F3526.8997672098712
sS'4511676112-4511676176-4511676240-4511676496:4511676368'
p902
F2966.7349451065743
sS'4511676112-4511676176-4511676240-4511676496-4511676560:4511676304'
p903
F5643.623875880457
sS'4511676176-4511676560:4511676304'
p904
F96.8345692111352
sS'4511676176-4511676240-4511676496-4511676624:4511676368'
p905
F6840.004955717886
sS'4511676112-4511676368-4511676432-4511676624:4511676240'
p906
F8558.767372383789
sS'4511676112-4511676176-4511676240-4511676432-4511676560-4511676624:4511676304'
p907
F28179.160568444346
sS'4511676112-4511676240-4511676368-4511676560:4511676624'
p908
I0
sS'4511676112:4511676304'
p909
F40.52254195382011
sS'4511676304-4511676368-4511676432-4511676560:4511676112'
p910
F4809.052714846279
sS'4511676240-4511676368-4511676624:4511676176'
p911
F4217.581318753299
sS'4511676304-4511676368-4511676496-4511676560-4511676624:4511676112'
p912
F16077.629613674388
sS'4511676240-4511676432-4511676624:4511676304'
p913
F460.36471643301525
sS'4511676176-4511676368-4511676432-4511676496:4511676304'
p914
F1901.1317381921558
sS'4511676176-4511676240-4511676304-4511676496-4511676624:4511676432'
p915
F14220.48558185237
sS'4511676112-4511676240-4511676368-4511676560:4511676304'
p916
F1142.9509158960866
sS'4511676176-4511676304-4511676496-4511676560-4511676624:4511676112'
p917
F15940.977144480648
sS'4511676112-4511676368-4511676560:4511676304'
p918
F246.22663795684844
sS'4511676112-4511676176-4511676304-4511676368-4511676496-4511676560-4511676624:4511676432'
p919
F153184.87949197603
sS'4511676112-4511676176-4511676368-4511676496:4511676304'
p920
F1149.0601558598346
sS'4511676112-4511676368-4511676496-4511676560:4511676432'
p921
F2683.305103513434
sS'4511676176-4511676304-4511676496:4511676560'
p922
F1979.167591797257
sS'4511676112-4511676304-4511676432-4511676624:4511676176'
p923
F9721.260763180813
sS'4511676176-4511676368-4511676496:4511676240'
p924
F1669.3310131947042
sS'4511676240-4511676624:4511676560'
p925
F6081.022957189461
sS'4511676176-4511676368-4511676432-4511676560:4511676112'
p926
F4973.8352389659
sS'4511676112-4511676240-4511676304-4511676432-4511676496:4511676560'
p927
F7446.624411995986
sS'4511676112-4511676304-4511676432-4511676560-4511676624:4511676240'
p928
F13877.881978950378
sS'4511676112-4511676240-4511676496:4511676304'
p929
F251.01241758551555
sS'4511676176-4511676240-4511676496-4511676560-4511676624:4511676304'
p930
F9437.184156409323
sS'4511676176-4511676240-4511676304-4511676368-4511676432-4511676496-4511676624:4511676112'
p931
F135764.33902272367
sS'4511676112-4511676368:4511676304'
p932
F70.8836503589448
sS'4511676368-4511676432-4511676496-4511676624:4511676304'
p933
F1959.5986916732331
sS'4511676304-4511676496:4511676624'
p934
I0
sS'4511676176-4511676368-4511676432-4511676496-4511676560:4511676624'
p935
I0
sS'4511676112-4511676176-4511676304-4511676432-4511676560-4511676624:4511676240'
p936
F33512.30965931015
sS'4511676240-4511676304-4511676432-4511676496:4511676560'
p937
F3483.4648683005103
sS'4511676176-4511676240:4511676304'
p938
F105.14802091325453
sS'4511676112-4511676176-4511676368-4511676432-4511676560:4511676304'
p939
F5642.422600877612
sS'4511676240-4511676432-4511676496-4511676624:4511676560'
p940
F6471.875333505557
sS'4511676304-4511676368-4511676432-4511676496-4511676624:4511676176'
p941
F17231.11961825187
sS'4511676240-4511676624:4511676368'
p942
F6852.075106162943
sS'4511676304-4511676560:4511676240'
p943
F3264.9054177212092
sS'4511676496-4511676560:4511676240'
p944
F2957.380918908626
sS'4511676304-4511676496-4511676560-4511676624:4511676432'
p945
F6618.098189183422
sS'4511676112-4511676304-4511676496-4511676560-4511676624:4511676432'
p946
F10484.644023621178
sS'4511676176-4511676240-4511676368-4511676432-4511676496-4511676560:4511676112'
p947
F34915.62877476539
sS'4511676112-4511676496:4511676624'
p948
I0
sS'4511676176-4511676240-4511676368-4511676624:4511676112'
p949
F12248.98358349901
sS'4511676240-4511676496:4511676368'
p950
F1679.4455514884612
sS'4511676176-4511676368-4511676432-4511676560:4511676240'
p951
F3652.084767394922
sS'4511676176-4511676368:4511676240'
p952
F1300.3730144549245
sS'4511676176-4511676368-4511676432-4511676624:4511676240'
p953
F5934.846681508027
sS'4511676112-4511676240-4511676304-4511676368-4511676624:4511676496'
p954
F9964.693939853625
sS'4511676240-4511676560-4511676624:4511676304'
p955
F445.14773928585146
sS'4511676176-4511676240-4511676304-4511676368-4511676432-4511676560:4511676496'
p956
F51112.58422725378
sS'4511676112-4511676240-4511676624:4511676176'
p957
F4377.64762943931
sS'4511676432:4511676240'
p958
F3143.5992619866392
sS'4511676112-4511676304-4511676368-4511676496:4511676560'
p959
F2512.1310136791426
sS'4511676176-4511676240-4511676304-4511676560:4511676368'
p960
F3523.367597591743
sS'4511676112-4511676176-4511676304-4511676560-4511676624:4511676240'
p961
F9745.182587586205
sS'4511676112-4511676304-4511676432:4511676496'
p962
F1868.7892171435242
sS'4511676112-4511676368-4511676432-4511676496:4511676560'
p963
F2767.7897786162644
sS'4511676432-4511676560:4511676624'
p964
I0
sS'4511676112-4511676368-4511676496-4511676624:4511676176'
p965
F8673.736594345535
sS'4511676496-4511676560:4511676432'
p966
F1707.1486568356195
sS'4511676112-4511676176-4511676432-4511676560:4511676496'
p967
F2754.098776485584
sS'4511676368-4511676496-4511676624:4511676304'
p968
F460.99197522676366
sS'4511676624:4511676560'
p969
F9671.738045595474
sS'4511676304-4511676496:4511676432'
p970
F1854.4861555908565
sS'4511676176-4511676240-4511676304-4511676432-4511676496:4511676560'
p971
F11455.533261503468
sS'4511676112-4511676176-4511676432-4511676496-4511676560-4511676624:4511676240'
p972
F40910.866937151215
sS'4511676112-4511676240-4511676304-4511676432-4511676560-4511676624:4511676368'
p973
F33311.569519868
sS'4511676112-4511676176-4511676240-4511676304-4511676496-4511676560:4511676368'
p974
F31191.076616939674
sS'4511676240-4511676432-4511676496-4511676560-4511676624:4511676304'
p975
F9439.939950503063
sS'4511676176-4511676304-4511676368-4511676496-4511676560-4511676624:4511676112'
p976
F35817.35361054041
sS'4511676176:4511676496'
p977
F2201.8954122178384
sS'4511676176-4511676240-4511676496-4511676624:4511676304'
p978
F1959.5178953980144
sS'4511676176-4511676240-4511676368-4511676496:4511676560'
p979
F3752.3727533969927
sS'4511676560:4511676112'
p980
F4000.245638933194
sS'4511676240-4511676368-4511676496-4511676560:4511676624'
p981
I0
sS'4511676240-4511676432-4511676560:4511676368'
p982
F1677.6477053533729
sS'4511676112-4511676240-4511676304-4511676432-4511676496-4511676560-4511676624:4511676176'
p983
F153449.0158075924
sS'4511676624:4511676368'
p984
F12238.979044117854
sS'4511676112-4511676176-4511676304-4511676368-4511676496-4511676560-4511676624:4511676240'
p985
F153302.82081822798
sS'4511676176-4511676304-4511676496-4511676624:4511676112'
p986
F12039.908172938745
sS'4511676112-4511676240-4511676304-4511676432-4511676496-4511676560:4511676176'
p987
F31177.205751379293
sS'4511676240-4511676304-4511676496-4511676560:4511676624'
p988
I0
sS'4511676240-4511676560-4511676624:4511676496'
p989
F5136.902906791842
sS'4511676112-4511676176-4511676304-4511676624:4511676496'
p990
F7019.4437575511365
sS'4511676304-4511676624:4511676112'
p991
F13391.607560905704
sS'4511676304-4511676432-4511676496-4511676560-4511676624:4511676368'
p992
F13805.806058340915
sS'4511676112-4511676176-4511676240-4511676368-4511676432-4511676496-4511676624:4511676304'
p993
F140694.28592368102
sS'4511676176-4511676240-4511676368-4511676496-4511676624:4511676560'
p994
F15910.832729356896
sS'4511676432:4511676176'
p995
F3123.3713345659535
sS'4511676240-4511676496:4511676176'
p996
F1372.9353348745353
sS'4511676112-4511676176-4511676304-4511676368-4511676432-4511676624:4511676240'
p997
F33367.627045385736
sS'4511676112-4511676240-4511676432-4511676560:4511676368'
p998
F2643.8938708106502
sS'4511676240-4511676304-4511676368:4511676560'
p999
F1807.0026033947677
sS'4511676112-4511676176-4511676304-4511676368-4511676432-4511676496:4511676560'
p1000
F31210.487203905504
sS'4511676304-4511676368-4511676432:4511676624'
p1001
I0
sS'4511676112-4511676240-4511676304-4511676368-4511676432-4511676496-4511676560:4511676624'
p1002
F111870.13546655032
sS'4511676176-4511676240-4511676304-4511676368-4511676624:4511676496'
p1003
F13956.189482507112
sS'4511676240-4511676304-4511676368-4511676560-4511676624:4511676496'
p1004
F13712.134486241477
sS'4511676304-4511676432-4511676496-4511676624:4511676176'
p1005
F10323.678050331144
sS'4511676112-4511676176-4511676240-4511676304:4511676496'
p1006
F3070.651336526295
sS'4511676112-4511676368-4511676496:4511676304'
p1007
F250.66803067184014
sS'4511676368-4511676624:4511676304'
p1008
F161.51044253681937
sS'4511676240-4511676368-4511676432-4511676560:4511676112'
p1009
F4970.286688027044
sS'4511676240-4511676304-4511676496:4511676112'
p1010
F3977.1212009958413
sS'4511676240-4511676304-4511676432-4511676496:4511676176'
p1011
F3223.352000675103
sS'4511676112-4511676176-4511676368-4511676432-4511676560:4511676496'
p1012
F8595.598689862949
sS'4511676304-4511676368-4511676624:4511676432'
p1013
F4623.013369937826
sS'4511676112-4511676368-4511676432-4511676624:4511676304'
p1014
F1200.1441119382607
sS'4511676176-4511676240-4511676304-4511676432:4511676496'
p1015
F3429.8097002928716
sS'4511676240-4511676304-4511676432-4511676624:4511676368'
p1016
F6264.133213427179
sS'4511676112-4511676176-4511676432:4511676624'
p1017
I0
sS'4511676112-4511676176-4511676496-4511676624:4511676368'
p1018
F6024.992409800558
sS'4511676112-4511676176-4511676304-4511676432-4511676560:4511676624'
p1019
I0
sS'4511676112-4511676304-4511676496:4511676560'
p1020
F1999.470402282328
sS'4511676304-4511676496:4511676368'
p1021
F2299.271608464388
sS'4511676176-4511676368-4511676432:4511676304'
p1022
F401.21510639051155
sS'4511676112-4511676304-4511676496-4511676560:4511676624'
p1023
I0
sS'4511676112-4511676240-4511676304-4511676496-4511676560:4511676176'
p1024
F7217.445511781178
sS'4511676112-4511676176-4511676496-4511676624:4511676560'
p1025
F5700.688533314302
sS'4511676240-4511676304:4511676112'
p1026
F3981.8506217031636
sS'4511676112-4511676240-4511676560:4511676624'
p1027
I0
sS'4511676112-4511676176-4511676496-4511676560-4511676624:4511676304'
p1028
F5680.650904295499
sS'4511676176-4511676304-4511676368:4511676240'
p1029
F1600.0768453992155
sS'4511676112-4511676176-4511676368-4511676624:4511676240'
p1030
F4954.884886441093
sS'4511676112-4511676240-4511676496-4511676560:4511676304'
p1031
F1145.159867185441
sS'4511676240-4511676368-4511676496:4511676432'
p1032
F1699.680343484847
sS'4511676112-4511676240-4511676304-4511676368-4511676432-4511676496-4511676560:4511676176'
p1033
F151126.1406087749
sS':4511676496'
p1034
F3547.7797004310855
sS'4511676240-4511676560:4511676624'
p1035
I0
sS'4511676304-4511676368-4511676432-4511676496:4511676624'
p1036
I0
sS'4511676240-4511676368-4511676432:4511676496'
p1037
F1733.2774278881109
sS'4511676112-4511676176-4511676240-4511676368-4511676496-4511676560-4511676624:4511676432'
p1038
F190621.25808658326
sS'4511676176-4511676368-4511676624:4511676240'
p1039
F4023.432757913838
sS'4511676112-4511676368-4511676432:4511676624'
p1040
I0
sS'4511676112-4511676368-4511676432-4511676560:4511676496'
p1041
F2638.4952291522204
sS'4511676240-4511676304-4511676432-4511676496:4511676368'
p1042
F3267.760596601252
sS'4511676240-4511676304-4511676432-4511676496-4511676624:4511676368'
p1043
F13575.075546919685
sS'4511676112-4511676176-4511676240-4511676368-4511676496:4511676304'
p1044
F5648.80928215211
sS'4511676176-4511676240-4511676432-4511676496-4511676624:4511676304'
p1045
F9457.341763880577
sS'4511676176-4511676304-4511676560-4511676624:4511676432'
p1046
F7030.715986590419
sS'4511676176-4511676304-4511676432-4511676560:4511676624'
p1047
I0
sS'4511676176-4511676304-4511676432-4511676496-4511676560-4511676624:4511676112'
p1048
F35854.007811831456
sS'4511676176-4511676240-4511676304-4511676368-4511676432-4511676496:4511676624'
p1049
F4960.521113532335
sS'4511676304-4511676368:4511676624'
p1050
I0
sS'4511676432-4511676496-4511676624:4511676560'
p1051
F4934.062074560619
sS'4511676240-4511676368-4511676432-4511676496-4511676624:4511676112'
p1052
F17094.05558919659
sS'4511676240-4511676432-4511676496-4511676560:4511676176'
p1053
F3696.9904984645523
sS'4511676176-4511676240-4511676368-4511676560-4511676624:4511676304'
p1054
F9434.19803360019
sS'4511676112-4511676240-4511676496-4511676624:4511676432'
p1055
F5786.549745251857
sS'4511676240-4511676304-4511676560:4511676432'
p1056
F2152.5897463409674
sS'4511676112-4511676176-4511676304-4511676496-4511676560-4511676624:4511676368'
p1057
F33711.99517100862
sS'4511676112-4511676176-4511676304-4511676432-4511676496-4511676560:4511676240'
p1058
F31169.343474615944
sS'4511676240-4511676304-4511676368-4511676432-4511676560-4511676624:4511676112'
p1059
F35868.2076270174
sS'4511676176-4511676304-4511676432-4511676560:4511676240'
p1060
F3227.1422321901455
sS'4511676304-4511676432-4511676560:4511676496'
p1061
F1818.9196421268625
sS'4511676176-4511676368-4511676496-4511676624:4511676240'
p1062
F5932.746699615881
sS'4511676176-4511676304-4511676624:4511676240'
p1063
F4653.253736378764
sS'4511676176-4511676240-4511676304-4511676432-4511676560-4511676624:4511676368'
p1064
F53261.40830022926
sS'4511676112-4511676368-4511676624:4511676496'
p1065
F4496.975334226646
sS'4511676240-4511676368-4511676432:4511676304'
p1066
F401.27181006216256
sS'4511676304-4511676368-4511676560:4511676624'
p1067
I0
sS'4511676432-4511676496-4511676624:4511676368'
p1068
F5237.741419383741
sS'4511676112-4511676304-4511676368-4511676432-4511676496:4511676624'
p1069
I0
sS'4511676112-4511676304-4511676624:4511676560'
p1070
F8211.697405316974
sS'4511676176-4511676240-4511676304-4511676496-4511676560-4511676624:4511676368'
p1071
F53588.101125808476
sS'4511676176-4511676432-4511676496-4511676624:4511676304'
p1072
F1958.0843665995703
sS'4511676176-4511676240-4511676368-4511676560-4511676624:4511676496'
p1073
F16101.605255949982
sS'4511676176-4511676624:4511676560'
p1074
F6092.601804739597
sS'4511676176-4511676304-4511676560-4511676624:4511676496'
p1075
F6670.09456521576
sS'4511676112-4511676304-4511676432-4511676496-4511676560:4511676240'
p1076
F8558.666274750536
sS'4511676240-4511676368-4511676432-4511676560:4511676176'
p1077
F3666.6231792904528
sS'4511676176-4511676304-4511676368-4511676496-4511676560:4511676432'
p1078
F11152.120795328326
sS'4511676112-4511676176-4511676432-4511676496:4511676240'
p1079
F2711.2155998478142
sS'4511676176-4511676240-4511676368-4511676432-4511676496-4511676624:4511676112'
p1080
F42021.955499048614
sS'4511676112-4511676304-4511676432-4511676496-4511676560-4511676624:4511676368'
p1081
F33661.23083412681
sS'4511676112-4511676240-4511676304-4511676496-4511676624:4511676176'
p1082
F9675.535385843106
sS'4511676240-4511676304-4511676496-4511676624:4511676176'
p1083
F5737.732015956418
sS'4511676112-4511676176-4511676304-4511676560-4511676624:4511676496'
p1084
F10446.663439076896
sS'4511676240-4511676304-4511676432-4511676560-4511676624:4511676112'
p1085
F15983.096838692989
sS'4511676112-4511676432-4511676496-4511676560-4511676624:4511676240'
p1086
F15048.328943886241
sS'4511676176-4511676432-4511676560:4511676624'
p1087
I0
sS'4511676176-4511676368-4511676432-4511676624:4511676304'
p1088
F1952.9602094420457
sS'4511676112-4511676304-4511676624:4511676368'
p1089
F10445.277423746464
sS'4511676112-4511676240-4511676304-4511676560:4511676624'
p1090
I0
sS'4511676112-4511676176-4511676560-4511676624:4511676496'
p1091
F5948.604098457952
sS'4511676112-4511676240-4511676304-4511676432-4511676496-4511676624:4511676368'
p1092
F33463.9786073342
sS'4511676176-4511676368-4511676432-4511676624:4511676496'
p1093
F6045.77117672671
sS'4511676240-4511676624:4511676176'
p1094
F4314.504899332625
sS'4511676112-4511676304-4511676432:4511676624'
p1095
I0
sS'4511676176-4511676432-4511676496-4511676560:4511676304'
p1096
F1895.447375955815
sS'4511676304-4511676368-4511676560:4511676432'
p1097
F1786.9780390510223
sS'4511676304-4511676368-4511676432-4511676496:4511676176'
p1098
F4450.96434378907
sS'4511676368:4511676496'
p1099
F1540.3347710215312
sS'4511676176-4511676304-4511676624:4511676112'
p1100
F11778.195579237414
sS'4511676240-4511676304-4511676432-4511676560:4511676624'
p1101
I0
sS'4511676112-4511676176-4511676240-4511676304-4511676368-4511676432-4511676496:4511676560'
p1102
F151186.74574194755
sS'4511676176-4511676240-4511676304:4511676624'
p1103
I0
sS'4511676176-4511676240-4511676368-4511676432-4511676496:4511676112'
p1104
F9945.137449783611
sS'4511676176-4511676304-4511676368-4511676432-4511676496-4511676560:4511676240'
p1105
F51134.85742736136
sS'4511676368-4511676432-4511676624:4511676304'
p1106
F459.77926513434284
sS'4511676112-4511676176-4511676368-4511676496-4511676624:4511676240'
p1107
F10867.715103588127
sS'4511676112-4511676304-4511676432-4511676496-4511676624:4511676240'
p1108
F13953.69168396763
sS'4511676112-4511676176-4511676240-4511676304-4511676368-4511676560:4511676432'
p1109
F31253.563928040643
sS'4511676176-4511676304-4511676368-4511676432-4511676560-4511676624:4511676496'
p1110
F53255.71660657813
sS'4511676112-4511676240-4511676304-4511676368-4511676496:4511676624'
p1111
I0
sS'4511676112-4511676560:4511676304'
p1112
F71.2837036460578
sS'4511676112-4511676176-4511676560-4511676624:4511676304'
p1113
F1182.5915636765626
sS'4511676176-4511676432-4511676560:4511676368'
p1114
F1696.4721939405772
sS'4511676112-4511676368-4511676560-4511676624:4511676496'
p1115
F5242.084234679692
sS'4511676112-4511676240-4511676432-4511676496-4511676560-4511676624:4511676368'
p1116
F40383.82571429935
sS'4511676112-4511676304-4511676496-4511676624:4511676176'
p1117
F9840.988166518027
sS'4511676240-4511676368-4511676624:4511676432'
p1118
F4465.079675945265
sS'4511676176-4511676432-4511676560:4511676496'
p1119
F1792.443478383142
sS'4511676240-4511676432-4511676496-4511676560-4511676624:4511676176'
p1120
F16013.091435611872
sS'4511676176-4511676368-4511676432:4511676560'
p1121
F1831.7716867260078
sS'4511676240-4511676432:4511676304'
p1122
F103.61814841286775
sS'4511676304-4511676624:4511676560'
p1123
F9718.741903019829
sS'4511676112-4511676176-4511676240-4511676304-4511676368-4511676496-4511676560:4511676624'
p1124
F112019.60431233993
sS'4511676112-4511676496-4511676624:4511676240'
p1125
F8960.676177592271
sS'4511676304-4511676624:4511676368'
p1126
F12278.380588484775
sS'4511676112-4511676240-4511676304-4511676368-4511676560:4511676496'
p1127
F7263.25430689035
sS'4511676176-4511676304-4511676432-4511676624:4511676368'
p1128
F6391.289865852618
sS'4511676176-4511676368-4511676432-4511676560:4511676496'
p1129
F3629.6745976058764
sS'4511676432-4511676560-4511676624:4511676240'
p1130
F8773.591896510989
sS'4511676112-4511676304-4511676496:4511676176'
p1131
F3182.9728572792555
sS'4511676112-4511676240-4511676368:4511676304'
p1132
F249.32291368290248
sS'4511676112-4511676240-4511676304-4511676432-4511676496-4511676560:4511676368'
p1133
F30994.86045782461
sS'4511676112-4511676176-4511676240-4511676304-4511676368-4511676432-4511676496-4511676560:4511676624'
p1134
F769301.7145564206
sS'4511676112-4511676176-4511676240-4511676304-4511676368-4511676432-4511676496-4511676624:4511676560'
p1135
F808456.2498499774
sS'4511676112-4511676240-4511676304-4511676368:4511676496'
p1136
F2577.5737877557217
sS'4511676240-4511676304-4511676624:4511676496'
p1137
F6741.855504469665
sS'4511676112-4511676176-4511676368:4511676560'
p1138
F1651.4051304083462
sS'4511676176-4511676304-4511676432:4511676624'
p1139
I0
sS'4511676240-4511676560-4511676624:4511676176'
p1140
F4298.849550751302
sS'4511676112-4511676368-4511676432-4511676560:4511676304'
p1141
F1145.6551007805117
sS'4511676176-4511676304-4511676496-4511676624:4511676432'
p1142
F6387.095410813156
sS'4511676112-4511676176-4511676432-4511676496-4511676560:4511676624'
p1143
I0
sS'4511676176-4511676240-4511676368-4511676560:4511676624'
p1144
I0
sS'4511676176-4511676304:4511676112'
p1145
F3994.233931006943
sS':4511676624'
p1146
I0
sS'4511676432-4511676496-4511676560:4511676240'
p1147
F3175.5717816762362
sS'4511676176-4511676368-4511676560-4511676624:4511676304'
p1148
F1934.9307503927812
sS'4511676112-4511676240-4511676368-4511676432:4511676624'
p1149
I0
sS'4511676176-4511676240-4511676304-4511676368:4511676496'
p1150
F3364.6510083866697
sS'4511676112-4511676304-4511676368-4511676432-4511676496-4511676624:4511676176'
p1151
F36966.258579637884
sS'4511676304-4511676496-4511676624:4511676240'
p1152
F9525.611093722633
sS'4511676112-4511676176-4511676304-4511676560:4511676240'
p1153
F2482.5348849336524
sS'4511676112-4511676176-4511676368-4511676496-4511676560-4511676624:4511676432'
p1154
F40686.16501750088
sS'4511676432-4511676560:4511676176'
p1155
F2908.144900585434
sS'4511676240-4511676432-4511676496:4511676560'
p1156
F1989.6246059846753
sS'4511676112-4511676176-4511676240-4511676304-4511676560-4511676624:4511676496'
p1157
F34257.347807968086
sS'4511676176-4511676368-4511676496-4511676560-4511676624:4511676432'
p1158
F15762.160360177835
sS'4511676112-4511676624:4511676432'
p1159
F8794.456628633461
sS'4511676240-4511676304-4511676368-4511676432:4511676112'
p1160
F4754.541222717656
sS'4511676112-4511676176-4511676240-4511676368-4511676432-4511676496-4511676560:4511676624'
p1161
F151498.11287460805
sS'4511676368-4511676432-4511676496:4511676304'
p1162
F403.4047912464797
sS'4511676112-4511676176-4511676560:4511676368'
p1163
F1890.6514146480474
sS'4511676304-4511676368-4511676432-4511676624:4511676112'
p1164
F12251.196434810749
sS'4511676112-4511676240:4511676432'
p1165
F2136.5432554137783
sS'4511676112-4511676176-4511676240-4511676304-4511676368-4511676560:4511676496'
p1166
F31223.14055876288
sS'4511676112-4511676240-4511676368-4511676432-4511676624:4511676496'
p1167
F10939.562440838423
sS'4511676240-4511676304-4511676432-4511676624:4511676176'
p1168
F5721.590789976766
sS'4511676176-4511676240:4511676496'
p1169
F2113.1865897501775
sS'4511676176-4511676240-4511676304-4511676368-4511676560:4511676624'
p1170
I0
sS'4511676304-4511676496:4511676176'
p1171
F3188.0388466718714
sS'4511676560:4511676304'
p1172
F46.89920236713442
sS'4511676112-4511676176-4511676432-4511676496-4511676624:4511676240'
p1173
F11030.636571078972
sS'4511676176-4511676432:4511676240'
p1174
F1389.745330501487
sS'4511676112-4511676304-4511676560:4511676624'
p1175
I0
sS'4511676176-4511676240-4511676304-4511676368-4511676432:4511676624'
p1176
I0
sS'4511676240-4511676304-4511676496:4511676432'
p1177
F1908.8274418455417
sS'4511676432-4511676624:4511676304'
p1178
F167.68740684257534
sS'4511676112-4511676176-4511676304-4511676560:4511676496'
p1179
F2760.4232879837446
sS'4511676112-4511676240-4511676368-4511676432-4511676624:4511676560'
p1180
F11086.785577411889
sS'4511676176-4511676240-4511676304-4511676368-4511676560-4511676624:4511676112'
p1181
F35873.020742737484
sS'4511676240-4511676304-4511676432-4511676496-4511676624:4511676112'
p1182
F15947.35533037111
sS'4511676112-4511676176-4511676240-4511676368-4511676432-4511676560-4511676624:4511676496'
p1183
F190576.4265181149
sS'4511676368-4511676496-4511676560-4511676624:4511676176'
p1184
F9734.735368031623
sS'4511676304-4511676560:4511676624'
p1185
I0
sS'4511676240-4511676304-4511676368-4511676432-4511676496-4511676560:4511676176'
p1186
F51147.01444532296
sS'4511676304-4511676368:4511676432'
p1187
F1559.2936476223654
sS'4511676112-4511676176-4511676304:4511676560'
p1188
F2230.8188189106295
sS'4511676112-4511676432-4511676560-4511676624:4511676240'
p1189
F9390.542491972992
sS'4511676240-4511676304-4511676368-4511676496-4511676560-4511676624:4511676112'
p1190
F35815.663658368845
sS'4511676112-4511676304-4511676432-4511676560:4511676496'
p1191
F2561.9581062840916
sS'4511676304-4511676560-4511676624:4511676432'
p1192
F6507.025898143887
sS'4511676240-4511676304-4511676368-4511676496-4511676624:4511676176'
p1193
F13537.375268291642
sS'4511676176-4511676240-4511676304-4511676368-4511676624:4511676112'
p1194
F15991.616888517017
sS'4511676112-4511676304-4511676496-4511676624:4511676560'
p1195
F5968.799990670055
sS'4511676176-4511676240-4511676368:4511676560'
p1196
F1862.571009350899
sS'4511676176-4511676240-4511676496:4511676432'
p1197
F1960.3551104524076
sS'4511676176-4511676240-4511676304-4511676368-4511676432-4511676624:4511676496'
p1198
F53488.474422553394
sS'4511676112-4511676176-4511676240-4511676304-4511676496-4511676560-4511676624:4511676368'
p1199
F153458.94903275938
sS'4511676112-4511676304-4511676368-4511676496-4511676624:4511676240'
p1200
F13060.95569729665
sS'4511676112-4511676240-4511676304-4511676368-4511676496:4511676432'
p1201
F7182.283908609007
sS'4511676112-4511676240-4511676304-4511676368-4511676432-4511676496-4511676624:4511676560'
p1202
F153263.08462696802
sS'4511676176-4511676240-4511676368-4511676496-4511676560-4511676624:4511676304'
p1203
F46933.673302079886
sS'4511676112-4511676240-4511676368-4511676432-4511676496-4511676624:4511676304'
p1204
F28195.1502252063
sS'4511676240-4511676496-4511676560:4511676432'
p1205
F1925.339519603227
sS'4511676112-4511676176-4511676368-4511676624:4511676432'
p1206
F5283.604014417837
sS'4511676112-4511676240-4511676368-4511676432-4511676560-4511676624:4511676176'
p1207
F40846.57492543747
sS'4511676176-4511676240-4511676496-4511676560:4511676112'
p1208
F4979.268648554025
sS'4511676240:4511676304'
p1209
F45.653331685266835
sS'4511676112-4511676240-4511676432:4511676304'
p1210
F251.02503224913494
sS'4511676176-4511676240-4511676304-4511676368-4511676432-4511676496-4511676560-4511676624:4511676112'
p1211
F690933.6161753968
sS'4511676112-4511676176-4511676304-4511676496:4511676368'
p1212
F2775.6199854661495
sS'4511676240-4511676496:4511676432'
p1213
F1609.5859880340104
sS'4511676112-4511676240-4511676304-4511676560-4511676624:4511676432'
p1214
F10830.785116596593
sS'4511676112-4511676176-4511676240:4511676368'
p1215
F2321.3891482154445
sS'4511676240-4511676304-4511676496-4511676624:4511676368'
p1216
F6534.14247431851
sS'4511676240-4511676304-4511676432:4511676624'
p1217
I0
sS'4511676240-4511676432-4511676624:4511676496'
p1218
F4771.342462222858
sS'4511676112:4511676560'
p1219
F2859.6728474980428
sS'4511676176-4511676240-4511676304-4511676432:4511676112'
p1220
F4787.759281485801
sS'4511676368-4511676560-4511676624:4511676432'
p1221
F4415.034189144142
sS'4511676176-4511676496-4511676560:4511676112'
p1222
F3998.7768339811296
sS'4511676112-4511676240-4511676304-4511676560:4511676432'
p1223
F2901.920719725517
sS'4511676112-4511676240-4511676304-4511676496:4511676368'
p1224
F2731.417254913582
sS'4511676112-4511676240-4511676560-4511676624:4511676432'
p1225
F6333.850029221793
sS'4511676112-4511676304-4511676368-4511676432-4511676624:4511676176'
p1226
F13149.163106519316
sS'4511676240-4511676432-4511676496-4511676560:4511676304'
p1227
F1896.8060277440482
sS'4511676496-4511676560-4511676624:4511676112'
p1228
F11559.509600585932
sS'4511676240-4511676304-4511676496-4511676624:4511676560'
p1229
F6251.676384122225
sS'4511676112-4511676240-4511676368-4511676496:4511676560'
p1230
F2759.863884846876
sS'4511676112-4511676304-4511676624:4511676176'
p1231
F11471.709674540985
sS'4511676112-4511676176-4511676240-4511676368-4511676624:4511676560'
p1232
F11146.304829657332
sS'4511676112:4511676368'
p1233
F3556.983033126662
sS'4511676112-4511676176-4511676368-4511676432-4511676560-4511676624:4511676304'
p1234
F28176.63706249024
sS'4511676112-4511676240-4511676432-4511676560-4511676624:4511676496'
p1235
F11069.830379201567
sS'4511676112-4511676240-4511676304-4511676432-4511676560:4511676496'
p1236
F7244.91309013105
sS'4511676112-4511676240-4511676432-4511676496:4511676560'
p1237
F2952.396475899973
sS'4511676176-4511676304-4511676368-4511676432-4511676496:4511676240'
p1238
F11152.79418259595
sS'4511676112-4511676304-4511676560-4511676624:4511676432'
p1239
F6981.75528826716
sS'4511676112-4511676560:4511676240'
p1240
F3068.040806272952
sS'4511676112-4511676432-4511676496-4511676560-4511676624:4511676304'
p1241
F5694.536072843644
sS'4511676176-4511676240-4511676624:4511676112'
p1242
F11669.814650907509
sS'4511676112-4511676240-4511676304-4511676496:4511676560'
p1243
F2733.8367825807636
sS'4511676112-4511676240-4511676304-4511676368-4511676560-4511676624:4511676496'
p1244
F33584.60466472956
sS'4511676176-4511676240-4511676496-4511676560-4511676624:4511676368'
p1245
F16091.611980137845
sS'4511676176-4511676304-4511676432-4511676560:4511676368'
p1246
F3195.3182248148614
sS'4511676112-4511676176-4511676240-4511676368-4511676560:4511676304'
p1247
F5642.801021260708
sS'4511676112-4511676176-4511676432-4511676560-4511676624:4511676368'
p1248
F10857.508182322592
sS'4511676304-4511676368-4511676432-4511676560:4511676624'
p1249
I0
sS'4511676304-4511676432-4511676496-4511676560:4511676624'
p1250
I0
sS'4511676240-4511676624:4511676496'
p1251
F6447.568686620115
sS'4511676112-4511676240-4511676368-4511676432-4511676496-4511676560-4511676624:4511676176'
p1252
F190788.16524853013
sS'4511676304-4511676368-4511676432:4511676176'
p1253
F2916.9183405133003
sS'4511676112-4511676240-4511676304-4511676368-4511676496:4511676176'
p1254
F7186.747330963053
sS'4511676112-4511676176-4511676368:4511676624'
p1255
I0
sS'4511676112-4511676432:4511676304'
p1256
F72.60055077422885
sS'4511676368-4511676432-4511676496:4511676112'
p1257
F4053.376842035965
sS'4511676112-4511676432:4511676368'
p1258
F2052.092097192354
sS'4511676240-4511676368:4511676176'
p1259
F1367.6102433678282
sS'4511676112-4511676304-4511676368:4511676560'
p1260
F1690.674013618129
sS'4511676240-4511676368-4511676432-4511676496-4511676560-4511676624:4511676112'
p1261
F41996.27442849031
sS'4511676112-4511676240-4511676368-4511676560:4511676176'
p1262
F2697.734323330785
sS'4511676112-4511676240-4511676432-4511676496-4511676560-4511676624:4511676176'
p1263
F40953.62180559099
sS'4511676176-4511676304-4511676496:4511676112'
p1264
F3981.2686092531862
sS'4511676176-4511676304-4511676432-4511676624:4511676112'
p1265
F12143.238937898943
sS'4511676112-4511676176-4511676368-4511676432-4511676624:4511676560'
p1266
F11048.45821051165
sS'4511676304-4511676368-4511676432-4511676560-4511676624:4511676176'
p1267
F17197.57526259191
sS'4511676176-4511676368-4511676496:4511676624'
p1268
I0
sS'4511676112-4511676176-4511676304:4511676240'
p1269
F1638.4917141209119
sS'4511676304-4511676368-4511676432-4511676496-4511676624:4511676112'
p1270
F16095.618101957496
sS'4511676240-4511676304-4511676368-4511676624:4511676496'
p1271
F6135.353675178702
sS'4511676240-4511676304-4511676432:4511676368'
p1272
F1910.191482327217
sS'4511676368-4511676496-4511676560:4511676304'
p1273
F399.7051481561484
sS'4511676112-4511676176-4511676240-4511676304-4511676368-4511676432-4511676560-4511676624:4511676496'
p1274
F808346.0931437622
sS'4511676176-4511676240-4511676304-4511676368-4511676496-4511676624:4511676560'
p1275
F53391.207365102935
sS'4511676176-4511676240-4511676368-4511676432:4511676304'
p1276
F1900.9179495295095
sS'4511676496:4511676304'
p1277
F46.20294474984656
sS'4511676240-4511676304-4511676432:4511676560'
p1278
F2076.478593767405
sS'4511676240-4511676304-4511676368-4511676496-4511676560:4511676432'
p1279
F11164.308124361436
sS'4511676176-4511676240:4511676368'
p1280
F2260.644329168037
sS'4511676176-4511676368-4511676432-4511676496-4511676624:4511676560'
p1281
F15867.809742391462
sS'4511676176-4511676240-4511676304-4511676368-4511676432-4511676560-4511676624:4511676112'
p1282
F135795.3842713597
sS'4511676176-4511676240-4511676432-4511676560:4511676112'
p1283
F4986.248581933135
sS'4511676176-4511676240-4511676432-4511676560-4511676624:4511676496'
p1284
F16133.268900543842
sS'4511676240-4511676560-4511676624:4511676368'
p1285
F5193.931870229324
sS'4511676112-4511676240-4511676432-4511676496-4511676560:4511676624'
p1286
I0
sS'4511676176-4511676304-4511676432-4511676496:4511676624'
p1287
I0
sS'4511676240-4511676496:4511676304'
p1288
F103.7243116166868
sS'4511676176-4511676240-4511676368-4511676560:4511676432'
p1289
F3777.6524650925785
sS'4511676368:4511676560'
p1290
F1519.2260757742042
sS'4511676112-4511676176-4511676240-4511676432-4511676496:4511676624'
p1291
I0
sS'4511676112-4511676176-4511676368:4511676240'
p1292
F1481.654267128268
sS'4511676112-4511676176-4511676368-4511676432-4511676560-4511676624:4511676240'
p1293
F40789.664502241285
sS'4511676240-4511676304-4511676368-4511676496:4511676560'
p1294
F3275.0540436172937
sS'4511676112-4511676432-4511676624:4511676496'
p1295
F4976.021488659803
sS'4511676368-4511676560-4511676624:4511676304'
p1296
F449.2502571384339
sS'4511676112-4511676240-4511676432-4511676560-4511676624:4511676304'
p1297
F5683.762900828174
sS'4511676176-4511676368-4511676432-4511676560:4511676624'
p1298
I0
sS'4511676112-4511676432:4511676176'
p1299
F2976.0453402360386
sS'4511676112-4511676240-4511676496-4511676560-4511676624:4511676176'
p1300
F11070.494256507716
sS'4511676240-4511676496-4511676560-4511676624:4511676304'
p1301
F1941.885104842785
sS'4511676112-4511676240-4511676304-4511676624:4511676368'
p1302
F7454.736788240504
sS'4511676176-4511676368-4511676624:4511676432'
p1303
F4365.4324016414375
sS'4511676240-4511676304-4511676368-4511676432-4511676496-4511676560-4511676624:4511676112'
p1304
F135739.71111064122
sS'4511676176-4511676240-4511676368-4511676496-4511676624:4511676432'
p1305
F15808.793404267963
sS'4511676112-4511676176-4511676240-4511676368-4511676432-4511676496-4511676624:4511676560'
p1306
F190704.805802965
sS'4511676304-4511676368-4511676560:4511676176'
p1307
F2924.9082238720894
sS'4511676112-4511676176-4511676240-4511676304-4511676368-4511676560-4511676624:4511676432'
p1308
F153518.74528346863
sS'4511676112-4511676176-4511676240-4511676304-4511676368-4511676432-4511676560:4511676624'
p1309
F112033.06210421502
sS'4511676304-4511676496:4511676560'
p1310
F1917.9754491966842
sS'4511676176-4511676432-4511676496-4511676624:4511676560'
p1311
F6508.9926469375805
sS'4511676112-4511676368-4511676496-4511676624:4511676240'
p1312
F8565.688445461605
sS'4511676176-4511676240-4511676304-4511676432-4511676624:4511676496'
p1313
F14138.623186336104
sS'4511676240-4511676304-4511676432-4511676496-4511676624:4511676560'
p1314
F13953.43116136124
sS'4511676176-4511676304:4511676560'
p1315
F2216.1765394787158
sS'4511676112-4511676176-4511676304-4511676368-4511676560-4511676624:4511676496'
p1316
F33542.69350447604
sS'4511676240-4511676432-4511676560:4511676304'
p1317
F397.0617244955056
sS'4511676624:4511676432'
p1318
F10455.291059915511
sS'4511676240-4511676432-4511676496-4511676624:4511676176'
p1319
F6091.894466642456
sS'4511676432-4511676560-4511676624:4511676496'
p1320
F4609.301792811182
sS'4511676112-4511676240-4511676368-4511676624:4511676560'
p1321
F5301.627849654352
sS'4511676176-4511676304-4511676368-4511676432-4511676624:4511676240'
p1322
F13433.958764613048
sS'4511676368-4511676432-4511676624:4511676112'
p1323
F11510.831588006831
sS'4511676240-4511676304-4511676496-4511676560-4511676624:4511676112'
p1324
F15933.015317199463
sS'4511676304-4511676432:4511676368'
p1325
F2225.255469411171
sS'4511676112-4511676432-4511676560:4511676496'
p1326
F1662.5977001139472
sS'4511676176-4511676240-4511676368:4511676624'
p1327
I0
sS'4511676176-4511676240-4511676304-4511676432-4511676624:4511676560'
p1328
F14377.023626427746
sS'4511676112-4511676240-4511676432-4511676560:4511676496'
p1329
F2745.160809684526
sS'4511676240-4511676304-4511676432-4511676496-4511676560-4511676624:4511676112'
p1330
F35844.069776299344
sS'4511676112-4511676176-4511676240-4511676304-4511676368-4511676496:4511676432'
p1331
F31145.31264431195
sS'4511676304-4511676368-4511676432-4511676496-4511676560-4511676624:4511676176'
p1332
F57078.74001344638
sS'4511676176-4511676496:4511676240'
p1333
F1385.8452734667958
sS'4511676176-4511676240-4511676368-4511676432-4511676496-4511676560:4511676624'
p1334
F19493.666319104104
sS'4511676112-4511676304-4511676496-4511676624:4511676432'
p1335
F6186.483201941923
sS'4511676240-4511676304:4511676624'
p1336
I0
sS'4511676240-4511676304-4511676432-4511676496-4511676560:4511676368'
p1337
F11024.481590823223
sS'4511676176-4511676240-4511676432:4511676560'
p1338
F2136.5920985832736
sS'4511676176-4511676240-4511676368-4511676496-4511676624:4511676304'
p1339
F9453.298666333849
sS'4511676112-4511676176-4511676240-4511676368-4511676432-4511676560:4511676304'
p1340
F28142.227404451973
sS'4511676240-4511676304-4511676432-4511676624:4511676496'
p1341
F6269.36186843722
sS'4511676112-4511676176-4511676496-4511676624:4511676304'
p1342
F1202.1600794225087
sS'4511676176-4511676240-4511676304-4511676496-4511676560:4511676112'
p1343
F8726.950220028053
sS'4511676304-4511676432-4511676496-4511676560:4511676368'
p1344
F3308.1671006048036
sS'4511676240-4511676304-4511676368-4511676496-4511676624:4511676112'
p1345
F15892.680429962797
sS'4511676368-4511676496-4511676624:4511676432'
p1346
F4053.058604662845
sS'4511676112-4511676304-4511676368-4511676496-4511676624:4511676432'
p1347
F9500.72110123871
sS'4511676112-4511676176-4511676304-4511676432-4511676496:4511676624'
p1348
I0
sS'4511676112-4511676176-4511676240-4511676368-4511676560-4511676624:4511676496'
p1349
F40975.70544260372
sS'4511676112-4511676240-4511676432-4511676496-4511676560:4511676368'
p1350
F8497.101878119638
sS'4511676112-4511676176-4511676304-4511676432-4511676496-4511676624:4511676560'
p1351
F33889.34609168862
sS'4511676304-4511676368-4511676432-4511676624:4511676560'
p1352
F5862.57500966062
sS'4511676112-4511676176-4511676240-4511676368-4511676560-4511676624:4511676304'
p1353
F28177.855072650116
sS'4511676112-4511676176-4511676240-4511676496:4511676432'
p1354
F2934.151795562722
sS'4511676112-4511676304-4511676368-4511676560-4511676624:4511676176'
p1355
F13158.722896212392
sS'4511676112-4511676240-4511676304-4511676368-4511676432-4511676496-4511676624:4511676176'
p1356
F153364.5544756355
sS'4511676112-4511676240-4511676304-4511676368-4511676496-4511676624:4511676432'
p1357
F33351.87652335718
sS'4511676112-4511676240-4511676368:4511676496'
p1358
F1677.798340813777
sS'4511676176-4511676304-4511676560:4511676624'
p1359
I0
sS'4511676112-4511676304-4511676496:4511676432'
p1360
F1956.0071454754525
sS'4511676176-4511676240-4511676304-4511676496-4511676624:4511676560'
p1361
F14136.891965948234
sS'4511676432:4511676112'
p1362
F4013.901324228825
sS'4511676112-4511676176-4511676240-4511676560:4511676368'
p1363
F2963.2461290921074
sS'4511676112-4511676176-4511676304-4511676432-4511676496-4511676624:4511676368'
p1364
F33518.68114875487
sS'4511676176-4511676240-4511676432-4511676496-4511676560-4511676624:4511676304'
p1365
F46935.238959333816
sS'4511676240-4511676368-4511676432:4511676560'
p1366
F1848.1449023602138
sS'4511676112-4511676176-4511676496-4511676560-4511676624:4511676432'
p1367
F11510.475133363643
sS'4511676176-4511676432-4511676624:4511676304'
p1368
F460.04682560172694
sS'4511676176-4511676432-4511676560-4511676624:4511676368'
p1369
F5983.431813568166
sS'4511676240-4511676304-4511676432-4511676624:4511676560'
p1370
F6514.614881166211
sS'4511676112-4511676176-4511676496-4511676624:4511676432'
p1371
F5800.761094258571
sS'4511676496-4511676624:4511676176'
p1372
F9208.926996469494
sS'4511676112-4511676368-4511676432-4511676496-4511676560-4511676624:4511676240'
p1373
F44262.456095008776
sS'4511676304-4511676560:4511676432'
p1374
F2211.803152096565
sS'4511676176-4511676304-4511676368-4511676560:4511676624'
p1375
I0
sS'4511676176-4511676304-4511676432:4511676496'
p1376
F1886.7698944517156
sS'4511676112-4511676240-4511676368:4511676560'
p1377
F1674.162454472269
sS'4511676240-4511676304-4511676368-4511676432:4511676496'
p1378
F3233.1920729161275
sS'4511676176-4511676304-4511676432-4511676496-4511676624:4511676112'
p1379
F15951.444400319187
sS'4511676176-4511676560-4511676624:4511676112'
p1380
F11421.17274781557
sS'4511676304-4511676368-4511676432-4511676560:4511676240'
p1381
F4424.70811202949
sS'4511676112-4511676304-4511676368-4511676560:4511676176'
p1382
F3636.8415665172224
sS'4511676304-4511676432-4511676496:4511676240'
p1383
F3255.404865425418
sS'4511676368-4511676432-4511676496-4511676560:4511676112'
p1384
F5030.094219682538
sS'4511676112-4511676240-4511676304-4511676432-4511676496-4511676624:4511676176'
p1385
F33529.47922696452
sS'4511676112-4511676304-4511676368-4511676624:4511676496'
p1386
F5396.209114417594
sS'4511676112-4511676240-4511676304:4511676560'
p1387
F2232.2198990801126
sS'4511676176-4511676496-4511676560-4511676624:4511676304'
p1388
F1937.7678353288757
sS'4511676240-4511676496-4511676624:4511676368'
p1389
F5040.367175490211
sS'4511676112-4511676176-4511676240-4511676432-4511676496-4511676560:4511676368'
p1390
F38444.65144974845
sS':4511676304'
p1391
F38.9611840350375
sS'4511676240-4511676368-4511676560-4511676624:4511676112'
p1392
F12199.636477047336
sS'4511676176-4511676368-4511676496-4511676624:4511676304'
p1393
F1954.1903607361032
sS'4511676112-4511676240-4511676368-4511676432-4511676560-4511676624:4511676304'
p1394
F28176.512522217403
sS'4511676112-4511676304-4511676432-4511676496-4511676560:4511676624'
p1395
I0
sS'4511676368-4511676432-4511676496-4511676624:4511676176'
p1396
F9737.92114607606
sS'4511676176-4511676432-4511676496-4511676624:4511676368'
p1397
F6144.655688481153
sS'4511676112-4511676304-4511676368-4511676496:4511676176'
p1398
F3631.3569316065978
sS'4511676240-4511676432:4511676560'
p1399
F1783.0350176847644
sS'4511676112-4511676304-4511676624:4511676496'
p1400
F8650.165265574078
sS'4511676176-4511676240-4511676368-4511676432-4511676560-4511676624:4511676112'
p1401
F42051.71674581104
sS'4511676112-4511676368-4511676432-4511676496-4511676624:4511676560'
p1402
F10936.450936527168
sS'4511676368-4511676496:4511676560'
p1403
F1435.5877659383204
sS'4511676112-4511676304-4511676432-4511676560-4511676624:4511676176'
p1404
F13892.075150072262
sS'4511676112-4511676176-4511676240-4511676368-4511676624:4511676304'
p1405
F5696.4397249066615
sS'4511676176-4511676240-4511676304-4511676432-4511676560:4511676368'
p1406
F11120.015418033909
sS'4511676112-4511676240-4511676432-4511676496:4511676304'
p1407
F1150.2924857068494
sS'4511676176-4511676304-4511676432-4511676496-4511676560:4511676368'
p1408
F11032.704788808256
sS'4511676176-4511676240-4511676496-4511676560:4511676304'
p1409
F1895.9423044064279
sS'4511676240-4511676304-4511676624:4511676176'
p1410
F4613.004004972612
sS'4511676496-4511676560-4511676624:4511676368'
p1411
F5533.99101904593
sS'4511676112-4511676176-4511676240-4511676304-4511676368-4511676496-4511676624:4511676432'
p1412
F153241.5291185553
sS'4511676240-4511676304-4511676496-4511676624:4511676112'
p1413
F12030.288207290816
sS'4511676304-4511676368-4511676432-4511676496-4511676624:4511676560'
p1414
F13500.323725455883
sS'4511676112-4511676240-4511676304-4511676368-4511676432:4511676560'
p1415
F7304.996372721859
sS'4511676112-4511676304-4511676368-4511676496-4511676560:4511676432'
p1416
F7182.880308010595
sS'4511676240-4511676304-4511676432-4511676496-4511676560:4511676176'
p1417
F11195.42039387806
sS'4511676560-4511676624:4511676112'
p1418
F11751.33324683704
sS'4511676112-4511676176-4511676240-4511676304-4511676496:4511676560'
p1419
F7497.942427581338
sS'4511676112-4511676176-4511676304-4511676496-4511676560-4511676624:4511676432'
p1420
F34008.798371694924
sS'4511676240-4511676304-4511676432:4511676176'
p1421
F1669.1652590243343
sS'4511676112-4511676176-4511676240-4511676432-4511676496-4511676624:4511676560'
p1422
F41290.63293849167
sS'4511676240-4511676368-4511676496:4511676112'
p1423
F3983.718855412804
sS'4511676112-4511676176:4511676496'
p1424
F2069.1189789823184
sS'4511676240-4511676304-4511676368-4511676496:4511676176'
p1425
F3205.407261296841
sS'4511676176-4511676240-4511676304-4511676560-4511676624:4511676112'
p1426
F16082.685156218266
sS'4511676112-4511676176-4511676240-4511676304-4511676432-4511676496:4511676560'
p1427
F31419.655050208265
sS'4511676112-4511676240-4511676304-4511676368-4511676560:4511676176'
p1428
F7197.584428695406
sS'4511676176-4511676240-4511676368-4511676432-4511676560:4511676112'
p1429
F9950.783840004055
sS'4511676112-4511676304-4511676432-4511676560:4511676240'
p1430
F3875.711290903575
sS'4511676176-4511676240-4511676304-4511676496-4511676560:4511676368'
p1431
F11227.088926280763
sS'4511676496-4511676560:4511676624'
p1432
I0
sS'4511676112-4511676176-4511676368-4511676432-4511676496-4511676624:4511676304'
p1433
F28195.025761181932
sS'4511676176-4511676624:4511676432'
p1434
F6553.461098138314
sS'4511676112-4511676176-4511676432-4511676560:4511676240'
p1435
F2704.989597763401
sS'4511676368-4511676432-4511676560-4511676624:4511676176'
p1436
F9711.896002151221
sS'4511676112-4511676304-4511676432-4511676560-4511676624:4511676368'
p1437
F10321.8123262515
sS'4511676112-4511676304-4511676368-4511676496:4511676624'
p1438
I0
sS'4511676176-4511676304-4511676368-4511676432-4511676560:4511676112'
p1439
F8721.700615938502
sS'4511676304-4511676432-4511676624:4511676112'
p1440
F11853.527325746449
sS'4511676240-4511676432-4511676624:4511676112'
p1441
F11388.268655453132
sS'4511676112-4511676240-4511676304:4511676432'
p1442
F2314.391641014704
sS'4511676176-4511676304-4511676432-4511676624:4511676560'
p1443
F6549.165908462585
sS'4511676176-4511676368:4511676304'
p1444
F101.79539228072042
sS'4511676112-4511676176-4511676240-4511676304-4511676496-4511676560:4511676624'
p1445
I0
sS'4511676112-4511676176-4511676368-4511676496-4511676560:4511676240'
p1446
F8630.814034643046
sS'4511676176-4511676240-4511676432:4511676624'
p1447
I0
sS'4511676112-4511676368:4511676496'
p1448
F1518.994364838691
sS'4511676176-4511676368-4511676496-4511676560:4511676112'
p1449
F4964.235110095076
sS'4511676112-4511676176-4511676240-4511676368:4511676304'
p1450
F1149.034133882571
sS'4511676176-4511676368-4511676432-4511676560-4511676624:4511676112'
p1451
F17126.49664539009
sS'4511676112-4511676176-4511676240-4511676304-4511676368:4511676624'
p1452
I0
sS'4511676112-4511676304-4511676496-4511676560:4511676240'
p1453
F3926.216561819197
sS'4511676304-4511676496-4511676560:4511676368'
p1454
F2112.6803822954353
sS'4511676176-4511676240-4511676496-4511676624:4511676112'
p1455
F12226.065979362966
sS'4511676240-4511676304-4511676368-4511676560-4511676624:4511676112'
p1456
F15943.193479880785
sS'4511676240-4511676304-4511676624:4511676560'
p1457
F6359.891616243115
sS'4511676112-4511676176-4511676240-4511676624:4511676304'
p1458
F1207.432551418684
sS'4511676112-4511676432-4511676496:4511676176'
p1459
F3013.2736196974297
sS'4511676240-4511676432-4511676560-4511676624:4511676496'
p1460
F6208.874427321977
sS'4511676432:4511676368'
p1461
F2167.851447446441
sS'4511676304-4511676432-4511676496:4511676560'
p1462
F2069.4881307119736
sS'4511676112-4511676240-4511676304-4511676368-4511676432-4511676624:4511676496'
p1463
F33439.27558094618
sS'4511676240-4511676368:4511676432'
p1464
F1493.0656361606273
sS'4511676304-4511676432-4511676560:4511676112'
p1465
F4081.727660492639
sS'4511676176-4511676496:4511676368'
p1466
F1728.7849922895316
sS'4511676176-4511676304-4511676496-4511676560-4511676624:4511676432'
p1467
F14095.767704344169
sS'4511676176-4511676240-4511676624:4511676496'
p1468
F6371.84380592766
sS'4511676176-4511676240:4511676112'
p1469
F3951.0840026359897
sS'4511676240-4511676368-4511676432-4511676624:4511676304'
p1470
F1953.116637516763
sS'4511676240-4511676560-4511676624:4511676112'
p1471
F11405.21403881756
sS'4511676112-4511676496-4511676560-4511676624:4511676304'
p1472
F1197.6206686740275
sS'4511676112-4511676496-4511676560:4511676304'
p1473
F249.5199731018688
sS'4511676112-4511676176-4511676304:4511676368'
p1474
F2474.8066440609036
sS'4511676176-4511676368-4511676496-4511676560:4511676624'
p1475
I0
sS'4511676176-4511676240-4511676304-4511676432-4511676496:4511676368'
p1476
F11215.76930079814
sS'4511676176-4511676304-4511676368-4511676496:4511676112'
p1477
F4730.077509418849
sS'4511676176-4511676368-4511676560-4511676624:4511676496'
p1478
F6169.802345505129
sS'4511676112-4511676176-4511676240-4511676368-4511676432:4511676624'
p1479
I0
sS'4511676112-4511676176-4511676240-4511676432-4511676624:4511676304'
p1480
F5701.619772369063
sS'4511676368-4511676496-4511676560:4511676624'
p1481
I0
sS'4511676176-4511676240-4511676368-4511676432-4511676624:4511676112'
p1482
F17169.21168971125
sS'4511676176-4511676240-4511676368-4511676432:4511676624'
p1483
I0
sS'4511676112-4511676304-4511676368-4511676496-4511676560:4511676240'
p1484
F8337.37148743649
sS'4511676240-4511676304-4511676368-4511676624:4511676112'
p1485
F12063.340165287871
sS'4511676368-4511676496:4511676112'
p1486
F3867.5395617151144
sS'4511676176-4511676240-4511676368-4511676432-4511676496-4511676560-4511676624:4511676304'
p1487
F234432.18912556552
sS'4511676304-4511676432:4511676176'
p1488
F3180.7839555944424
sS'4511676176-4511676304-4511676496-4511676624:4511676560'
p1489
F6278.1103866453695
sS'4511676624:4511676240'
p1490
F13081.201205553132
sS'4511676112-4511676240-4511676368:4511676432'
p1491
F1667.577872028607
sS'4511676176-4511676304-4511676368-4511676432-4511676496-4511676560-4511676624:4511676240'
p1492
F253315.85363268634
sS'4511676112-4511676176-4511676496-4511676560:4511676304'
p1493
F1143.7775032759537
sS'4511676112-4511676176-4511676304-4511676368-4511676432-4511676560-4511676624:4511676496'
p1494
F153127.26829739264
sS'4511676304-4511676368-4511676432-4511676624:4511676176'
p1495
F9422.314627046531
sS'4511676368-4511676560-4511676624:4511676112'
p1496
F11482.878192825638
sS'4511676112-4511676176-4511676240-4511676304-4511676432-4511676624:4511676368'
p1497
F33917.74630301123
sS'4511676112-4511676304-4511676368:4511676176'
p1498
F2782.3964757278377
sS'4511676176-4511676240-4511676432-4511676624:4511676304'
p1499
F1959.325076350163
sS'4511676112-4511676176-4511676368-4511676432-4511676496-4511676560-4511676624:4511676304'
p1500
F140676.3106259483
sS'4511676304:4511676496'
p1501
F3555.021461145901
sS'4511676176-4511676496:4511676432'
p1502
F1613.4074528010628
sS'4511676304-4511676432-4511676496-4511676560:4511676176'
p1503
F4673.315422990534
sS'4511676304-4511676368-4511676432-4511676496-4511676560:4511676624'
p1504
I0
sS'4511676240-4511676368-4511676432-4511676496-4511676560-4511676624:4511676304'
p1505
F46932.73883842787
sS'4511676240-4511676368-4511676496-4511676560-4511676624:4511676176'
p1506
F15949.573035737953
sS'4511676112-4511676240-4511676368-4511676432:4511676176'
p1507
F2684.4424323581793
sS'4511676112-4511676176-4511676304-4511676368-4511676432-4511676496-4511676560:4511676240'
p1508
F151110.7755877674
sS'4511676112-4511676368-4511676432-4511676496-4511676560:4511676624'
p1509
I0
sS'4511676112-4511676176-4511676240-4511676304-4511676432-4511676624:4511676560'
p1510
F34237.8108217451
sS'4511676304-4511676368-4511676432:4511676496'
p1511
F1686.857668058317
sS'4511676176-4511676240-4511676560:4511676304'
p1512
F396.6241627489044
sS'4511676176-4511676304-4511676368-4511676624:4511676496'
p1513
F6046.882333314228
sS'4511676240-4511676304-4511676432-4511676496-4511676624:4511676176'
p1514
F13590.852107875671
sS'4511676496:4511676560'
p1515
F1860.0323678107338
sS'4511676368-4511676496-4511676560-4511676624:4511676112'
p1516
F12339.011678170953
sS'4511676240-4511676304-4511676560-4511676624:4511676112'
p1517
F12146.894112985085
sS'4511676176-4511676368-4511676560:4511676432'
p1518
F1801.9375381256377
sS'4511676240-4511676432-4511676560:4511676112'
p1519
F4004.040522569763
sS'4511676240-4511676304-4511676368-4511676496-4511676560-4511676624:4511676176'
p1520
F53449.0246908701
sS'4511676112-4511676176-4511676240-4511676368-4511676496-4511676560:4511676432'
p1521
F38608.29103024375
sS'4511676112-4511676368-4511676432-4511676496-4511676624:4511676176'
p1522
F14471.11962418734
sS'4511676368-4511676432-4511676560:4511676624'
p1523
I0
sS'4511676176-4511676304-4511676368-4511676432-4511676496-4511676560-4511676624:4511676112'
p1524
F135741.55417691654
sS'4511676240-4511676368-4511676432:4511676176'
p1525
F1703.5351136518018
sS'4511676240-4511676496-4511676624:4511676112'
p1526
F11288.437729184256
sS'4511676240-4511676560:4511676496'
p1527
F1711.7949758394764
sS'4511676176-4511676304-4511676368-4511676624:4511676560'
p1528
F5827.290043687692
sS'4511676176-4511676304-4511676432-4511676560:4511676496'
p1529
F3292.179661308236
sS'4511676176-4511676240-4511676496:4511676560'
p1530
F2036.2999476654445
sS'4511676176-4511676496-4511676560:4511676624'
p1531
I0
sS'4511676112-4511676304-4511676432-4511676624:4511676368'
p1532
F6798.193498898712
sS'4511676176-4511676240-4511676304-4511676432-4511676496-4511676560:4511676368'
p1533
F50976.07564226812
sS'4511676112-4511676432-4511676496-4511676560:4511676176'
p1534
F4071.8174301346453
sS'4511676112-4511676368-4511676432-4511676624:4511676496'
p1535
F5081.482113282008
sS'4511676176-4511676560:4511676240'
p1536
F1407.6969452024086
sS'4511676240-4511676304-4511676368-4511676432:4511676624'
p1537
I0
sS'4511676240-4511676304-4511676560:4511676112'
p1538
F4002.4159660460546
sS'4511676112-4511676240-4511676368-4511676496:4511676176'
p1539
F2687.036409435786
sS'4511676112-4511676240-4511676432:4511676560'
p1540
F1926.0058686837183
sS'4511676176-4511676240-4511676432-4511676496:4511676112'
p1541
F4984.327221466263
sS'4511676112-4511676176-4511676240-4511676496:4511676624'
p1542
I0
sS'4511676240:4511676432'
p1543
F2229.800890583182
sS'4511676112-4511676176-4511676240-4511676432:4511676624'
p1544
I0
sS'4511676176-4511676560-4511676624:4511676432'
p1545
F5533.468594712557
sS'4511676112-4511676240-4511676432-4511676496-4511676560:4511676176'
p1546
F8678.741749772793
sS'4511676112-4511676304-4511676368-4511676624:4511676240'
p1547
F8492.470871860614
sS'4511676176-4511676240-4511676496:4511676368'
p1548
F2012.2707320174404
sS'4511676176-4511676304-4511676496-4511676624:4511676368'
p1549
F6664.036809422551
sS'4511676240-4511676304-4511676624:4511676368'
p1550
F7140.6443036094815
sS'4511676176-4511676240-4511676368-4511676496-4511676560-4511676624:4511676432'
p1551
F65704.64664665576
sS'4511676112-4511676176-4511676240-4511676304-4511676432-4511676496:4511676368'
p1552
F31176.704623480884
sS'4511676176-4511676304:4511676240'
p1553
F1534.088368298644
sS'4511676304-4511676368-4511676496-4511676624:4511676176'
p1554
F9420.35785223994
sS'4511676240-4511676368-4511676560-4511676624:4511676432'
p1555
F6239.312155801689
sS'4511676112-4511676432-4511676560:4511676304'
p1556
F249.0802586364971
sS'4511676176-4511676304-4511676368-4511676432-4511676496:4511676624'
p1557
I0
sS'4511676368:4511676432'
p1558
F1499.8739530449893
sS'4511676112-4511676304-4511676368-4511676432-4511676496:4511676560'
p1559
F7263.15053653768
sS'4511676496-4511676560-4511676624:4511676176'
p1560
F8929.752823485685
sS'4511676112-4511676176-4511676240-4511676560-4511676624:4511676496'
p1561
F11759.30073020402
sS'4511676240-4511676368-4511676496-4511676624:4511676112'
p1562
F12150.51700499838
sS'4511676112-4511676432:4511676496'
p1563
F1689.515738598499
sS'4511676176-4511676304-4511676368-4511676560-4511676624:4511676496'
p1564
F13669.284571798225
sS'4511676112-4511676240-4511676304-4511676496-4511676624:4511676368'
p1565
F10396.534696990484
sS'4511676112-4511676176-4511676240-4511676304-4511676368-4511676432-4511676496:4511676624'
p1566
F112032.21044839034
sS'4511676112:4511676432'
p1567
F3014.026895056084
sS'4511676112-4511676304-4511676432-4511676496-4511676560-4511676624:4511676176'
p1568
F37575.52188210909
sS'4511676368-4511676560:4511676304'
p1569
F99.89052109091062
sS'4511676176-4511676240-4511676496-4511676560-4511676624:4511676432'
p1570
F16456.50831090783
sS'4511676112-4511676368-4511676496-4511676560-4511676624:4511676304'
p1571
F5687.349743837086
sS'4511676112-4511676304-4511676368-4511676432-4511676496-4511676560:4511676240'
p1572
F32293.685312053483
sS'4511676176-4511676240-4511676304-4511676432-4511676560:4511676112'
p1573
F8733.988929561736
sS'4511676112-4511676176-4511676240-4511676304-4511676496:4511676432'
p1574
F7433.432739927108
sS'4511676368-4511676432-4511676496-4511676560:4511676304'
p1575
F1899.2199810799302
sS'4511676304-4511676368-4511676496:4511676240'
p1576
F2879.203703696881
sS'4511676112-4511676176-4511676368-4511676496-4511676624:4511676304'
p1577
F5696.379660563484
sS'4511676112-4511676368-4511676560-4511676624:4511676240'
p1578
F8549.322601422271
sS'4511676112-4511676560:4511676432'
p1579
F2091.1041173866497
sS'4511676112-4511676176-4511676240-4511676560:4511676304'
p1580
F1144.3793177917655
sS'4511676112-4511676304:4511676240'
p1581
F3900.9053536653223
sS'4511676112-4511676176-4511676240-4511676560-4511676624:4511676304'
p1582
F5682.151025246612
sS'4511676112-4511676240-4511676560-4511676624:4511676368'
p1583
F5988.3543084590865
sS'4511676240-4511676304-4511676432-4511676560:4511676496'
p1584
F3282.6092331751997
sS'4511676240-4511676304-4511676560:4511676624'
p1585
I0
sS'4511676112-4511676176-4511676304-4511676368-4511676496-4511676560:4511676432'
p1586
F31127.704547381534
sS'4511676112-4511676304-4511676496-4511676560-4511676624:4511676368'
p1587
F10803.222171794012
sS'4511676112-4511676176-4511676240-4511676368-4511676496:4511676432'
p1588
F8645.777326934263
sS'4511676112-4511676240-4511676368-4511676432-4511676496:4511676560'
p1589
F8716.736851738608
sS'4511676240-4511676304-4511676432:4511676496'
p1590
F1875.6229586420911
sS'4511676112-4511676496-4511676560:4511676240'
p1591
F3030.5766677356273
sS'4511676112-4511676240-4511676304-4511676432-4511676560-4511676624:4511676496'
p1592
F33569.151086238635
sS'4511676112-4511676176-4511676304-4511676368-4511676624:4511676432'
p1593
F9781.741388692077
sS'4511676496:4511676368'
p1594
F2241.5658621475045
sS'4511676368-4511676432:4511676304'
p1595
F103.49402862506793
sS'4511676432-4511676496-4511676560-4511676624:4511676368'
p1596
F6316.35012903769
sS'4511676240-4511676368-4511676432-4511676496-4511676560:4511676304'
p1597
F9394.387851357395
sS'4511676112-4511676304-4511676368:4511676432'
p1598
F1688.5316440051358
sS'4511676432-4511676496:4511676304'
p1599
F105.3265028932368
sS'4511676112-4511676176-4511676304-4511676368-4511676432:4511676624'
p1600
I0
sS'4511676240-4511676368-4511676560:4511676432'
p1601
F1827.4165948692892
sS'4511676176-4511676368-4511676432-4511676624:4511676112'
p1602
F12235.703067748134
sS'4511676112-4511676240-4511676304-4511676368-4511676432-4511676560-4511676624:4511676176'
p1603
F153346.1257482663
sS'4511676112-4511676432-4511676624:4511676304'
p1604
F307.2630686541679
sS'4511676496-4511676560:4511676368'
p1605
F1817.121260275082
sS'4511676176-4511676304-4511676432-4511676560:4511676112'
p1606
F4756.331095183028
sS'4511676112-4511676496:4511676176'
p1607
F3004.6910494269337
sS'4511676112-4511676240-4511676432-4511676560-4511676624:4511676368'
p1608
F10818.819898478716
sS'4511676112-4511676176-4511676240-4511676304-4511676432-4511676560:4511676624'
p1609
I0
sS'4511676432-4511676560-4511676624:4511676304'
p1610
F460.15053212027124
sS'4511676112-4511676240-4511676304-4511676368-4511676432:4511676624'
p1611
I0
sS'4511676176-4511676304-4511676368-4511676496-4511676560:4511676624'
p1612
I0
sS'4511676112-4511676240-4511676304-4511676496-4511676624:4511676560'
p1613
F10154.40349403085
sS'4511676368-4511676496-4511676560:4511676432'
p1614
F1701.9707224917365
sS'4511676176-4511676240-4511676304-4511676432-4511676560:4511676496'
p1615
F11256.524003019576
sS'4511676112-4511676304-4511676432-4511676560:4511676368'
p1616
F2683.393192469928
sS'4511676112-4511676176-4511676240-4511676304-4511676368:4511676560'
p1617
F7318.807835292881
sS'4511676112-4511676240-4511676304-4511676624:4511676432'
p1618
F7221.009987566867
sS'4511676176-4511676240-4511676432-4511676560:4511676624'
p1619
I0
sS'4511676176-4511676368:4511676112'
p1620
F3830.54756901005
sS'4511676112-4511676240-4511676368-4511676624:4511676304'
p1621
F1197.3000943177956
sS'4511676176-4511676368-4511676624:4511676560'
p1622
F4347.05061507664
sS'4511676112-4511676624:4511676240'
p1623
F11313.087031137047
sS'4511676112-4511676176-4511676304-4511676368-4511676560:4511676624'
p1624
I0
sS'4511676112-4511676176-4511676432-4511676496-4511676624:4511676368'
p1625
F11023.686010930543
sS'4511676112-4511676240-4511676304-4511676560:4511676176'
p1626
F2475.162424297573
sS'4511676112-4511676176-4511676240-4511676368-4511676432:4511676304'
p1627
F5648.427809835233
sS'4511676176-4511676240-4511676496-4511676624:4511676432'
p1628
F6722.661713369798
sS'4511676112-4511676176-4511676240-4511676304-4511676368-4511676560-4511676624:4511676496'
p1629
F153474.864122316
sS'4511676112-4511676176-4511676624:4511676496'
p1630
F6125.982708183854
sS'4511676112-4511676240-4511676432:4511676368'
p1631
F1758.5636201380148
sS'4511676112-4511676240-4511676368-4511676432:4511676560'
p1632
F2811.3361193563587
sS'4511676304-4511676432-4511676560-4511676624:4511676496'
p1633
F6106.946964302231
sS'4511676112-4511676176-4511676432-4511676496-4511676624:4511676560'
p1634
F11410.402572419356
sS'4511676112-4511676176-4511676240-4511676368:4511676496'
p1635
F2817.9789203612627
sS'4511676368:4511676112'
p1636
F3888.8799678979594
sS'4511676176-4511676240:4511676624'
p1637
I0
sS'4511676304-4511676496-4511676560:4511676112'
p1638
F4067.8295517314427
sS'4511676112-4511676240-4511676432-4511676496-4511676624:4511676176'
p1639
F11030.350110473379
sS'4511676304-4511676624:4511676240'
p1640
F13125.371387615422
sS'4511676112-4511676176-4511676496:4511676624'
p1641
I0
sS'4511676112-4511676240:4511676624'
p1642
I0
sS'4511676240-4511676304-4511676368-4511676432-4511676496-4511676624:4511676112'
p1643
F35836.25839078564
sS'4511676176-4511676240-4511676368-4511676496:4511676432'
p1644
F3665.6346265957313
sS'4511676112-4511676304-4511676368-4511676432-4511676560:4511676240'
p1645
F8333.821643002373
sS'4511676304-4511676368-4511676432-4511676496-4511676560-4511676624:4511676112'
p1646
F36017.92685109094
sS'4511676112-4511676240-4511676304-4511676368-4511676560:4511676432'
p1647
F7304.178436131023
sS'4511676368-4511676432-4511676496:4511676240'
p1648
F2934.616157669331
sS'4511676560:4511676240'
p1649
F3213.063076417765
sS'4511676112-4511676240-4511676368-4511676432-4511676496:4511676304'
p1650
F5648.634653407761
sS'4511676304-4511676432:4511676496'
p1651
F1821.3454969558456
sS'4511676368-4511676432-4511676496:4511676624'
p1652
I0
sS'4511676112-4511676176-4511676304-4511676496:4511676240'
p1653
F2462.217191022109
sS'4511676240-4511676368-4511676496-4511676560:4511676176'
p1654
F3676.262578132571
sS'4511676112-4511676176-4511676304-4511676368-4511676496:4511676240'
p1655
F7151.421924652001
sS'4511676112-4511676176-4511676240-4511676432:4511676368'
p1656
F2894.262184573005
sS'4511676112-4511676304-4511676432-4511676560:4511676624'
p1657
I0
sS'4511676304-4511676368:4511676240'
p1658
F2652.8718642386116
sS'4511676112-4511676176-4511676240-4511676432-4511676496-4511676624:4511676368'
p1659
F40804.196292765155
sS'4511676112-4511676176-4511676304-4511676368-4511676432-4511676560-4511676624:4511676240'
p1660
F153289.0907847972
sS'4511676112-4511676304-4511676496-4511676624:4511676368'
p1661
F7191.321272589965
sS'4511676112-4511676240:4511676176'
p1662
F1452.9956851960344
sS'4511676112-4511676240-4511676368-4511676624:4511676432'
p1663
F5379.157891483893
sS'4511676176-4511676432-4511676496-4511676560-4511676624:4511676112'
p1664
F17110.908069043024
sS'4511676176-4511676240-4511676304-4511676368-4511676496-4511676624:4511676432'
p1665
F53307.397137940374
sS'4511676304-4511676368-4511676496:4511676624'
p1666
I0
sS'4511676112-4511676176-4511676496-4511676560:4511676240'
p1667
F2715.996998729664
sS'4511676112-4511676176-4511676240-4511676432:4511676560'
p1668
F3082.5445441031998
sS'4511676240-4511676496-4511676560:4511676368'
p1669
F1787.4451677409288
sS'4511676240-4511676368-4511676432-4511676560:4511676624'
p1670
I0
sS'4511676304-4511676368-4511676432-4511676624:4511676496'
p1671
F5736.803139928371
sS'4511676112-4511676432-4511676496-4511676560:4511676368'
p1672
F2762.7158793641856
sS'4511676560:4511676624'
p1673
I0
sS'4511676240-4511676304-4511676368:4511676176'
p1674
F1667.2572204090252
sS'4511676240-4511676304-4511676368:4511676496'
p1675
F1826.5009674988494
sS'4511676112-4511676304-4511676560:4511676496'
p1676
F2067.9233686366038
sS'4511676112-4511676176-4511676304-4511676368-4511676560:4511676432'
p1677
F7279.821543970117
sS'4511676176-4511676240-4511676496:4511676624'
p1678
I0
sS'4511676112-4511676176-4511676304-4511676624:4511676432'
p1679
F7212.340422068777
sS'4511676240-4511676304-4511676368-4511676496:4511676624'
p1680
I0
sS'4511676240-4511676304-4511676432-4511676496-4511676560:4511676624'
p1681
I0
sS'4511676176-4511676368-4511676432-4511676496-4511676560-4511676624:4511676304'
p1682
F46932.931542107865
sS'4511676112-4511676176-4511676368-4511676496:4511676624'
p1683
I0
sS'4511676112-4511676240-4511676304-4511676432:4511676624'
p1684
I0
sS'4511676176-4511676240-4511676304-4511676368-4511676560:4511676496'
p1685
F11254.427439677569
sS'4511676176-4511676496-4511676624:4511676112'
p1686
F11297.99782482567
sS'4511676176-4511676240-4511676304-4511676368-4511676432:4511676496'
p1687
F11201.37152466897
sS'4511676112-4511676240-4511676304:4511676368'
p1688
F2403.6752705578883
sS'4511676176-4511676368-4511676560:4511676240'
p1689
F1676.3698404279858
sS'4511676240-4511676368-4511676496:4511676560'
p1690
F1781.8706906679317
sS'4511676176-4511676304-4511676368-4511676496-4511676560-4511676624:4511676240'
p1691
F53373.370088144904
sS'4511676304-4511676368-4511676560-4511676624:4511676240'
p1692
F9318.059747946718
sS'4511676112-4511676240-4511676304-4511676368:4511676432'
p1693
F2566.9725200946154
sS'4511676176-4511676240-4511676304-4511676368-4511676496:4511676112'
p1694
F8712.466792585095
sS'4511676176-4511676240-4511676304-4511676432-4511676496-4511676560:4511676112'
p1695
F28695.836153887685
sS'4511676176-4511676432-4511676624:4511676496'
p1696
F4799.49197025786
sS'4511676112-4511676176-4511676240:4511676624'
p1697
I0
sS':4511676560'
p1698
F3440.3349348932134
sS'4511676304-4511676368-4511676496-4511676560:4511676240'
p1699
F4422.873524286453
sS'4511676304-4511676368-4511676432:4511676560'
p1700
F1802.7266542460743
sS'4511676176-4511676432-4511676624:4511676368'
p1701
F4898.376482012301
sS'4511676112-4511676240-4511676304-4511676432-4511676496-4511676560:4511676624'
p1702
I0
sS'4511676240-4511676496-4511676624:4511676560'
p1703
F4770.357177361174
sS'4511676112-4511676176-4511676432-4511676624:4511676368'
p1704
F5732.987931226439
sS'4511676112-4511676240-4511676304-4511676368-4511676432-4511676496:4511676560'
p1705
F31210.381199838677
sS'4511676176-4511676368-4511676432-4511676560-4511676624:4511676304'
p1706
F9433.131221778327
sS'4511676304-4511676560-4511676624:4511676176'
p1707
F9732.126738468847
sS'4511676176-4511676240-4511676368-4511676432-4511676624:4511676560'
p1708
F16087.262353181946
sS'4511676240-4511676560:4511676176'
p1709
F1395.7712146329666
sS'4511676112-4511676176-4511676368-4511676432-4511676496-4511676624:4511676560'
p1710
F40777.4563694569
sS'4511676112-4511676176-4511676432-4511676624:4511676560'
p1711
F5923.937959415521
sS'4511676112-4511676240-4511676432-4511676560-4511676624:4511676176'
p1712
F11031.105162815918
sS'4511676240-4511676304-4511676368-4511676496-4511676560-4511676624:4511676432'
p1713
F53288.37252712248
sS'4511676112-4511676240-4511676304-4511676496:4511676176'
p1714
F2453.3398667805936
sS'4511676112-4511676176-4511676304-4511676368:4511676496'
p1715
F2547.7392010303424
sS'4511676112-4511676240-4511676560:4511676304'
p1716
F245.93414092825265
sS'4511676112-4511676240-4511676496-4511676560-4511676624:4511676368'
p1717
F11152.013646099467
sS'4511676304-4511676368-4511676496:4511676176'
p1718
F2915.5783235079703
sS'4511676112-4511676176-4511676240-4511676432-4511676624:4511676496'
p1719
F11461.984109154746
sS'4511676112-4511676176:4511676304'
p1720
F73.1169839018211
sS'4511676112-4511676176-4511676240-4511676368-4511676624:4511676432'
p1721
F11197.074431447889
sS'4511676112-4511676176-4511676240-4511676304-4511676496-4511676624:4511676560'
p1722
F34044.756822443465
sS'4511676112-4511676176-4511676560-4511676624:4511676368'
p1723
F6120.1306514517455
sS'4511676176-4511676432-4511676624:4511676560'
p1724
F5072.609301313857
sS'4511676176-4511676240-4511676432-4511676496-4511676560:4511676112'
p1725
F9948.08765363587
sS'4511676176-4511676240-4511676304-4511676624:4511676368'
p1726
F8244.179759600089
sS'4511676176-4511676368-4511676432-4511676496-4511676560:4511676304'
p1727
F9394.448851600755
sS'4511676240-4511676496-4511676624:4511676304'
p1728
F460.5658980817484
sS':4511676368'
p1729
F4249.0107915570625
sS'4511676112-4511676176-4511676240-4511676432-4511676496-4511676560:4511676304'
p1730
F28142.98442340938
sS'4511676176-4511676496-4511676560-4511676624:4511676368'
p1731
F6338.973563591866
sS'4511676304-4511676496-4511676560-4511676624:4511676112'
p1732
F12295.956240867303
sS'4511676176-4511676240-4511676368-4511676432-4511676496:4511676624'
p1733
I0
sS'4511676112-4511676176-4511676368-4511676432-4511676624:4511676304'
p1734
F5695.302055977441
sS'4511676112-4511676240-4511676496-4511676624:4511676560'
p1735
F5672.016224956491
sS'4511676112-4511676304-4511676560-4511676624:4511676240'
p1736
F10028.852150620947
sS'4511676112-4511676240-4511676560-4511676624:4511676176'
p1737
F5232.979171057547
sS'4511676112-4511676176-4511676432:4511676496'
p1738
F1726.7440180598926
sS'4511676112-4511676176-4511676240-4511676304-4511676496-4511676624:4511676368'
p1739
F34195.90119158474
sS'4511676176-4511676240-4511676304-4511676624:4511676560'
p1740
F7539.39895088809
sS'4511676112-4511676368-4511676496-4511676560:4511676240'
p1741
F3840.657037305373
sS'4511676112-4511676304-4511676368-4511676496-4511676624:4511676560'
p1742
F9580.700889874088
sS'4511676240-4511676304-4511676560:4511676368'
p1743
F2000.8200382565722
sS'4511676112-4511676176-4511676240-4511676432-4511676496-4511676560-4511676624:4511676368'
p1744
F190218.36915723846
sS'4511676112-4511676240-4511676496-4511676624:4511676368'
p1745
F5902.446451304334
sS'4511676304-4511676368-4511676432-4511676496-4511676560-4511676624:4511676240'
p1746
F57030.77901224371
sS'4511676112-4511676368-4511676432-4511676496:4511676624'
p1747
I0
sS'4511676368-4511676432-4511676624:4511676496'
p1748
F4236.983713389494
sS'4511676112-4511676368-4511676496-4511676560-4511676624:4511676176'
p1749
F14469.894125613655
sS'4511676240-4511676368:4511676304'
p1750
F101.85224618381415
sS'4511676240-4511676304-4511676368-4511676432-4511676496-4511676624:4511676176'
p1751
F53436.4738436976
sS'4511676112-4511676240-4511676432-4511676496:4511676368'
p1752
F2732.7615022809982
sS'4511676240-4511676368-4511676496:4511676176'
p1753
F1705.76051540351
sS'4511676176-4511676368-4511676496-4511676624:4511676432'
p1754
F5863.8202840083
sS'4511676112-4511676432:4511676624'
p1755
I0
sS'4511676112-4511676176-4511676240-4511676432-4511676496:4511676304'
p1756
F5650.000452527033
sS'4511676240-4511676304-4511676624:4511676112'
p1757
F11749.247680656867
sS'4511676240-4511676304-4511676432-4511676496-4511676560:4511676112'
p1758
F8714.050796386453
sS'4511676176-4511676240-4511676560-4511676624:4511676304'
p1759
F1938.8095281521503
sS'4511676112-4511676304-4511676368-4511676560:4511676624'
p1760
I0
sS'4511676112-4511676176-4511676368-4511676432-4511676496:4511676304'
p1761
F5648.596592134545
sS'4511676112-4511676176-4511676304-4511676432-4511676624:4511676240'
p1762
F9675.976584611726
sS'4511676240-4511676304-4511676368-4511676560:4511676624'
p1763
I0
sS'4511676112-4511676176-4511676240-4511676304-4511676368-4511676624:4511676496'
p1764
F33794.77963609863
sS'4511676240-4511676304-4511676368-4511676496-4511676560:4511676176'
p1765
F11176.076425002644
sS'4511676176-4511676304-4511676368-4511676432:4511676240'
p1766
F3172.326329261066
sS'4511676112:4511676240'
p1767
F3868.251248970935
sS'4511676368-4511676432-4511676496-4511676560-4511676624:4511676112'
p1768
F17279.110140211928
sS'4511676112-4511676560-4511676624:4511676304'
p1769
F302.3425719600723
sS'4511676176-4511676368:4511676432'
p1770
F1456.7400347774565
sS'4511676240-4511676304-4511676368-4511676496:4511676112'
p1771
F4731.126722918886
sS'4511676304-4511676496-4511676560-4511676624:4511676240'
p1772
F10404.2866999248
sS'4511676112-4511676176-4511676432-4511676496:4511676624'
p1773
I0
sS'4511676432-4511676496-4511676560-4511676624:4511676176'
p1774
F10405.93744935559
sS'4511676176-4511676240-4511676368-4511676496-4511676560:4511676304'
p1775
F9394.687692938202
sS'4511676112-4511676304-4511676368-4511676560:4511676240'
p1776
F3594.352925758735
sS'4511676112-4511676176-4511676496:4511676240'
p1777
F1562.4215474040634
sS'4511676112-4511676304-4511676368-4511676432-4511676560-4511676624:4511676240'
p1778
F36867.639172566836
sS'4511676240-4511676368-4511676496-4511676624:4511676304'
p1779
F1954.3411969100484
sS'4511676176-4511676240-4511676304-4511676368-4511676432-4511676560:4511676112'
p1780
F28698.699362536758
sS'4511676176-4511676304-4511676368-4511676496-4511676624:4511676560'
p1781
F13449.692282171685
sS'4511676112-4511676176-4511676368-4511676560:4511676432'
p1782
F2780.3942610509753
sS'4511676112-4511676432:4511676240'
p1783
F2990.767609328625
sS'4511676112-4511676176-4511676304-4511676368-4511676432-4511676560:4511676624'
p1784
I0
sS'4511676112-4511676176-4511676432-4511676496-4511676560:4511676240'
p1785
F8669.510837392461
sS'4511676112-4511676176-4511676304-4511676432-4511676496-4511676560:4511676624'
p1786
I0
sS'4511676112-4511676368-4511676560:4511676496'
p1787
F1620.4713817025042
sS'4511676176-4511676240-4511676368-4511676496:4511676112'
p1788
F4964.994749445079
sS'4511676112-4511676496:4511676304'
p1789
F72.64205669228068
sS'4511676112-4511676176-4511676432-4511676560-4511676624:4511676240'
p1790
F11012.883023463655
sS'4511676368-4511676432-4511676496-4511676624:4511676240'
p1791
F9678.12209864298
sS'4511676176-4511676240-4511676368-4511676560-4511676624:4511676432'
p1792
F16098.183968948762
sS'4511676112-4511676176-4511676240-4511676304-4511676624:4511676496'
p1793
F11422.206076176983
sS'4511676240-4511676368-4511676432-4511676496:4511676112'
p1794
F4966.78612775405
sS'4511676112-4511676304-4511676368-4511676432-4511676496:4511676176'
p1795
F8361.713665693229
sS'4511676240-4511676368-4511676432-4511676496-4511676560:4511676112'
p1796
F9936.538513237401
sS'4511676112-4511676176-4511676560-4511676624:4511676432'
p1797
F6364.716123532664
sS'4511676240-4511676304-4511676432-4511676560:4511676176'
p1798
F3221.505624033688
sS'4511676112-4511676176-4511676240-4511676496-4511676560:4511676432'
p1799
F8855.784815025117
sS'4511676240-4511676368-4511676432-4511676496-4511676560-4511676624:4511676176'
p1800
F65864.36434675129
sS'4511676240-4511676304-4511676368-4511676560-4511676624:4511676176'
p1801
F13560.07865268192
sS'4511676368-4511676432-4511676560-4511676624:4511676112'
p1802
F12403.98248977702
sS'4511676304-4511676368-4511676624:4511676112'
p1803
F11558.504396167396
sS'4511676176-4511676240-4511676304-4511676368-4511676432-4511676560-4511676624:4511676496'
p1804
F253207.8612397247
sS'4511676432-4511676560:4511676496'
p1805
F1519.7241255275349
sS'4511676112-4511676368-4511676496-4511676624:4511676304'
p1806
F1201.2373700394162
sS'4511676112-4511676176-4511676304-4511676560-4511676624:4511676432'
p1807
F10861.858492453899
sS'4511676112-4511676304-4511676432-4511676496:4511676368'
p1808
F2803.0895508154094
sS'4511676112-4511676304-4511676432-4511676496:4511676560'
p1809
F2806.398666831446
sS'4511676176-4511676240-4511676304-4511676496:4511676112'
p1810
F4757.879852795757
sS'4511676112-4511676240-4511676304-4511676496-4511676560-4511676624:4511676432'
p1811
F33980.17472627202
sS'4511676112-4511676176-4511676240-4511676304-4511676368-4511676496-4511676624:4511676560'
p1812
F153307.804663618
sS'4511676112-4511676176-4511676240-4511676496-4511676560-4511676624:4511676304'
p1813
F28180.198103010734
sS'4511676176-4511676304-4511676368-4511676496:4511676624'
p1814
I0
sS'4511676112-4511676304-4511676496-4511676560-4511676624:4511676176'
p1815
F14051.36753403526
sS'4511676432:4511676304'
p1816
F46.090006660335696
sS'4511676112-4511676176-4511676240-4511676304-4511676368-4511676496:4511676560'
p1817
F31224.19432542497
sS'4511676496-4511676560:4511676176'
p1818
F2957.239942876368
sS'4511676112-4511676496-4511676560:4511676432'
p1819
F1864.0147183197964
sS'4511676176:4511676112'
p1820
F3966.7306956541943
sS'4511676112-4511676176-4511676240-4511676368:4511676624'
p1821
I0
sS'4511676112-4511676240-4511676304-4511676368-4511676432-4511676560-4511676624:4511676496'
p1822
F153134.4991933835
sS'4511676112-4511676240-4511676624:4511676496'
p1823
F6129.334495003547
sS'4511676304-4511676624:4511676496'
p1824
F10341.615798362469
sS'4511676240-4511676368-4511676432-4511676624:4511676496'
p1825
F6080.4734158292795
sS'4511676112-4511676240-4511676368-4511676432-4511676496:4511676176'
p1826
F8650.06612054396
sS'4511676368-4511676432-4511676496-4511676624:4511676560'
p1827
F6012.670784214562
sS'4511676240-4511676496-4511676560:4511676176'
p1828
F1735.364208124507
sS'4511676112-4511676240-4511676304:4511676624'
p1829
I0
sS'4511676176-4511676240-4511676304-4511676432-4511676496:4511676624'
p1830
I0
sS'4511676240-4511676368-4511676432-4511676560:4511676496'
p1831
F3632.1169917831576
sS'4511676176-4511676240-4511676304-4511676624:4511676112'
p1832
F12412.469016454002
sS'4511676112-4511676176-4511676368-4511676496:4511676432'
p1833
F2662.6810829639794
sS'4511676112-4511676240-4511676304-4511676368-4511676432-4511676496:4511676176'
p1834
F31149.776066665996
sS'4511676176-4511676240-4511676304-4511676368-4511676496-4511676560-4511676624:4511676112'
p1835
F135746.80434062376
sS'4511676112-4511676368-4511676432-4511676560:4511676176'
p1836
F3855.1858915028624
sS'4511676368-4511676496:4511676176'
p1837
F2617.851403853659
sS'4511676112-4511676240-4511676624:4511676304'
p1838
F308.85484008822664
sS'4511676304-4511676368-4511676496-4511676560:4511676624'
p1839
I0
sS'4511676112-4511676176-4511676304-4511676368-4511676432-4511676624:4511676560'
p1840
F33529.793217024395
sS'4511676240-4511676368-4511676432-4511676624:4511676560'
p1841
F6197.112201112259
sS'4511676176-4511676240-4511676368-4511676432-4511676496-4511676624:4511676560'
p1842
F65806.68597174466
sS'4511676304-4511676368-4511676624:4511676240'
p1843
F7987.635102740134
sS'4511676560:4511676432'
p1844
F2154.901664656705
sS'4511676176-4511676240-4511676368:4511676432'
p1845
F1828.9905064446014
sS'4511676240-4511676496-4511676560-4511676624:4511676112'
p1846
F12190.096776779554
sS'4511676304-4511676432-4511676560-4511676624:4511676176'
p1847
F10255.816826915372
sS'4511676112-4511676176-4511676304-4511676432-4511676496-4511676560:4511676368'
p1848
F31002.36320206882
sS'4511676112-4511676304-4511676432-4511676624:4511676560'
p1849
F6230.663360155182
sS'4511676176-4511676304-4511676368-4511676496-4511676560-4511676624:4511676432'
p1850
F53260.67892559996
sS'4511676240-4511676304:4511676496'
p1851
F2254.561224107336
sS'4511676112-4511676176-4511676240-4511676304-4511676368-4511676432-4511676560:4511676496'
p1852
F151077.44069155693
sS'4511676176-4511676432-4511676496-4511676560-4511676624:4511676304'
p1853
F9435.874399838383
sS'4511676112-4511676176-4511676240-4511676304-4511676432-4511676624:4511676496'
p1854
F33959.792697226716
sS'4511676112-4511676560:4511676176'
p1855
F3062.0626835163957
sS'4511676304-4511676496-4511676624:4511676112'
p1856
F11700.157028117312
sS'4511676112-4511676176-4511676368-4511676560-4511676624:4511676432'
p1857
F11102.093654403514
sS'4511676624:4511676112'
p1858
F13374.786095216943
sS'4511676496-4511676624:4511676368'
p1859
F6451.863709734771
sS'4511676112-4511676176-4511676304-4511676368-4511676432-4511676496:4511676624'
p1860
I0
sS'4511676240-4511676368-4511676496-4511676560-4511676624:4511676112'
p1861
F17072.422932263227
sS'4511676112-4511676304-4511676496-4511676560:4511676176'
p1862
F3927.8187022662073
sS'4511676496-4511676624:4511676560'
p1863
F5079.766455609735
sS'4511676112-4511676240-4511676304-4511676432-4511676560:4511676368'
p1864
F7141.503544568722
sS'4511676368-4511676624:4511676240'
p1865
F7694.297267598225
sS'4511676240-4511676368:4511676112'
p1866
F3832.583235162924
sS'4511676112-4511676176-4511676304-4511676432-4511676560:4511676368'
p1867
F7160.687745570333
sS'4511676176-4511676240-4511676368:4511676496'
p1868
F1864.8129925995875
sS'4511676112-4511676240-4511676368:4511676176'
p1869
F1546.855829888299
sS'4511676176-4511676304-4511676368-4511676432-4511676624:4511676560'
p1870
F13637.835645205994
sS'4511676112-4511676176-4511676368-4511676496-4511676560:4511676304'
p1871
F5642.7532186190265
sS'4511676112-4511676176-4511676240-4511676368-4511676432-4511676560-4511676624:4511676304'
p1872
F140676.06334504622
sS'4511676240-4511676560:4511676304'
p1873
F98.74154367058236
sS'4511676112-4511676176-4511676240-4511676304-4511676432:4511676368'
p1874
F7391.960844979241
sS'4511676112-4511676304-4511676560:4511676176'
p1875
F3235.318782919066
sS'4511676112-4511676176-4511676240-4511676304-4511676432:4511676560'
p1876
F7575.048606852699
sS'4511676112-4511676176-4511676368-4511676560:4511676496'
p1877
F2747.8623717249343
sS'4511676176-4511676240-4511676304-4511676432:4511676624'
p1878
I0
sS'4511676240-4511676496-4511676624:4511676176'
p1879
F4238.780018640156
sS'4511676112-4511676240-4511676304:4511676176'
p1880
F1632.5203336543088
sS'4511676112-4511676304-4511676368-4511676432-4511676496-4511676624:4511676240'
p1881
F36912.111119415116
sS'4511676176-4511676240-4511676432:4511676496'
p1882
F1930.4623958388722
sS'4511676112-4511676176-4511676304-4511676368-4511676432-4511676560:4511676240'
p1883
F31128.83817200744
sS'4511676112-4511676176-4511676240-4511676304-4511676368-4511676432:4511676496'
p1884
F31158.508562491614
sS'4511676176-4511676240-4511676304-4511676368:4511676432'
p1885
F3328.4092327491007
sS'4511676176-4511676432-4511676496:4511676624'
p1886
I0
sS'4511676176-4511676496-4511676624:4511676304'
p1887
F460.24973130943215
sS'4511676176:4511676624'
p1888
I0
sS'4511676112-4511676368-4511676560:4511676432'
p1889
F1665.2812560637196
sS'4511676112-4511676240-4511676496-4511676624:4511676176'
p1890
F5176.408268818871
sS'4511676240-4511676304-4511676560:4511676176'
p1891
F1693.6538337112888
sS'4511676368-4511676432-4511676560:4511676176'
p1892
F2944.0769431541594
sS'4511676304-4511676432-4511676496-4511676560-4511676624:4511676240'
p1893
F17855.30877791353
sS'4511676176-4511676304-4511676624:4511676432'
p1894
F6847.297063407256
sS'4511676112-4511676432-4511676560:4511676368'
p1895
F1786.8183503259133
sS'4511676112-4511676176-4511676368-4511676624:4511676560'
p1896
F5229.968570525987
sS'4511676112-4511676240-4511676304-4511676368-4511676496-4511676624:4511676176'
p1897
F33474.90188043738
sS'4511676176-4511676368-4511676432-4511676496-4511676560:4511676112'
p1898
F9939.75933122297
sS'4511676112-4511676176-4511676240-4511676432-4511676560:4511676304'
p1899
F5643.233212178489
sS'4511676112-4511676240-4511676304-4511676368-4511676432-4511676560:4511676624'
p1900
I0
sS'4511676432-4511676560:4511676240'
p1901
F2912.4309772771076
sS'4511676176-4511676240-4511676304-4511676432-4511676560:4511676624'
p1902
I0
sS'4511676176-4511676560:4511676432'
p1903
F1861.9092193938186
sS'4511676112-4511676176-4511676432-4511676560-4511676624:4511676496'
p1904
F11094.363108288937
sS'4511676304-4511676368-4511676496-4511676560-4511676624:4511676176'
p1905
F17220.416536383844
sS'4511676432-4511676496:4511676240'
p1906
F2957.7656028904366
sS'4511676176-4511676304-4511676432-4511676496-4511676560:4511676240'
p1907
F11191.486573901482
sS'4511676112-4511676240-4511676368-4511676560-4511676624:4511676304'
p1908
F5678.302690718011
sS'4511676368-4511676560:4511676496'
p1909
F1456.696461185642
sS'4511676176-4511676240-4511676496-4511676560:4511676624'
p1910
I0
sS'4511676112-4511676176-4511676368-4511676560-4511676624:4511676304'
p1911
F5678.426017834292
sS'4511676240-4511676304-4511676496-4511676624:4511676432'
p1912
F6367.365489933131
sS'4511676112-4511676176-4511676304-4511676368-4511676496:4511676432'
p1913
F7162.217519238685
sS'4511676112-4511676240-4511676304-4511676560:4511676368'
p1914
F2739.2458281632194
sS'4511676176-4511676496-4511676560-4511676624:4511676112'
p1915
F12198.09407551403
sS'4511676112-4511676240-4511676304-4511676560:4511676496'
p1916
F2751.4486869006582
sS'4511676368-4511676560-4511676624:4511676496'
p1917
F4385.95074933437
sS'4511676176-4511676304-4511676368-4511676432-4511676560-4511676624:4511676112'
p1918
F35870.002486102
sS'4511676112-4511676176-4511676240-4511676560-4511676624:4511676368'
p1919
F11745.728671008044
sS'4511676304-4511676368:4511676112'
p1920
F3915.6892842092166
sS'4511676112-4511676240-4511676304-4511676496:4511676432'
p1921
F2682.5974935406794
sS'4511676560-4511676624:4511676496'
p1922
F5703.813400464311
sS'4511676112-4511676304-4511676368-4511676496-4511676624:4511676176'
p1923
F13168.878884869602
sS'4511676112-4511676304-4511676432-4511676496:4511676176'
p1924
F3911.6001946718966
sS'4511676176-4511676304-4511676624:4511676368'
p1925
F7374.885639958117
sS'4511676176-4511676624:4511676304'
p1926
F166.21086033278095
sS'4511676112-4511676304-4511676368-4511676432-4511676624:4511676240'
p1927
F13054.06034554402
sS'4511676304-4511676368-4511676432-4511676496-4511676624:4511676240'
p1928
F17171.47083058693
sS'4511676112-4511676240-4511676304-4511676368-4511676496-4511676560-4511676624:4511676432'
p1929
F153212.4199793947
sS'4511676432-4511676496-4511676624:4511676240'
p1930
F8835.351272076852
sS'4511676240-4511676432-4511676560:4511676496'
p1931
F1782.8649299266583
sS'4511676560-4511676624:4511676304'
p1932
F169.11275559426576
sS'4511676112-4511676368-4511676496-4511676560:4511676176'
p1933
F3867.463876538036
sS'4511676176-4511676240-4511676560-4511676624:4511676112'
p1934
F12339.343659123808
sS'4511676112-4511676176-4511676240-4511676560:4511676496'
p1935
F2994.487216295569
sS'4511676368-4511676432:4511676496'
p1936
F1386.9469054369056
sS'4511676112-4511676176-4511676368-4511676496-4511676624:4511676432'
p1937
F10799.454695388562
sS'4511676432-4511676496-4511676560-4511676624:4511676304'
p1938
F1957.7957036113148
sS'4511676112-4511676176-4511676432-4511676560:4511676368'
p1939
F2661.687888065768
sS'4511676432-4511676496:4511676112'
p1940
F3941.308062104384
sS'4511676176-4511676432-4511676496:4511676240'
p1941
F1732.7929311181401
sS'4511676368-4511676496-4511676624:4511676176'
p1942
F7927.159466730603
sS'4511676112-4511676304-4511676368-4511676496-4511676560-4511676624:4511676176'
p1943
F36960.14053324992
sS'4511676112-4511676240-4511676368-4511676432-4511676496-4511676560:4511676304'
p1944
F28142.27900150782
sS'4511676304-4511676432-4511676624:4511676496'
p1945
F5405.400611952884
sS'4511676112-4511676176-4511676432-4511676496:4511676368'
p1946
F2754.807033995918
sS'4511676368-4511676432-4511676624:4511676240'
p1947
F7834.632396203176
sS'4511676176-4511676304-4511676368:4511676112'
p1948
F3978.0335206886302
sS'4511676304-4511676496-4511676624:4511676432'
p1949
F5564.6543821786
sS'4511676176-4511676304-4511676496:4511676240'
p1950
F1685.6059474795438
sS'4511676112-4511676240-4511676496:4511676560'
p1951
F1839.6893329808358
sS'4511676176-4511676432-4511676496-4511676560:4511676624'
p1952
I0
sS'4511676112-4511676176-4511676240-4511676304-4511676496:4511676368'
p1953
F7464.824719096036
sS'4511676112-4511676368-4511676432:4511676560'
p1954
F1671.4763229621747
sS'4511676112-4511676176-4511676560-4511676624:4511676240'
p1955
F5245.623126016151
sS'4511676112-4511676496-4511676560-4511676624:4511676240'
p1956
F9554.162799668271
sS'4511676304-4511676368-4511676496-4511676560:4511676432'
p1957
F3201.4855554155183
sS'4511676496:4511676176'
p1958
F3130.6322737116307
sS'4511676112-4511676240-4511676496:4511676368'
p1959
F1833.331311874254
sS'4511676112-4511676176-4511676304-4511676432-4511676496:4511676240'
p1960
F7211.015448081123
sS'4511676176-4511676368-4511676432:4511676112'
p1961
F4006.1015942366193
sS'4511676240-4511676368-4511676432-4511676560-4511676624:4511676176'
p1962
F15919.498120113381
sS'4511676176-4511676240:4511676432'
p1963
F2143.079304363713
sS'4511676112-4511676432-4511676496-4511676624:4511676240'
p1964
F9458.493154099182
sS'4511676240-4511676560-4511676624:4511676432'
p1965
F5499.093900981748
sS'4511676176-4511676304-4511676432-4511676496-4511676560-4511676624:4511676240'
p1966
F53479.68307677359
sS'4511676176-4511676240-4511676368-4511676560:4511676496'
p1967
F3754.6147366456808
sS'4511676112-4511676496-4511676624:4511676304'
p1968
F307.35028088444096
sS'4511676240-4511676432-4511676624:4511676368'
p1969
F4771.381292343434
sS'4511676176-4511676368-4511676496:4511676560'
p1970
F1769.7249671884679
sS'4511676176-4511676368-4511676432-4511676496-4511676624:4511676304'
p1971
F9452.797163849042
sS'4511676112-4511676432-4511676496:4511676624'
p1972
I0
sS'4511676112-4511676240-4511676304-4511676368-4511676432-4511676496-4511676560-4511676624:4511676176'
p1973
F808557.7196986441
sS'4511676112-4511676176-4511676240-4511676368-4511676432:4511676560'
p1974
F8774.014018265641
sS'4511676176-4511676240-4511676304-4511676368:4511676112'
p1975
F4759.363732340959
sS'4511676112-4511676240-4511676304-4511676432-4511676496-4511676624:4511676560'
p1976
F33850.145607289436
sS'4511676112-4511676240-4511676304-4511676368:4511676176'
p1977
F2446.5670500879687
sS'4511676176-4511676304-4511676432:4511676368'
p1978
F1961.389854330027
sS'4511676176-4511676304:4511676496'
p1979
F2259.8911813788595
sS'4511676176-4511676432-4511676560:4511676240'
p1980
F1727.360560670977
sS'4511676112-4511676176-4511676240-4511676368-4511676432-4511676624:4511676304'
p1981
F28194.573797892022
sS'4511676368:4511676240'
p1982
F2595.0939521024866
sS'4511676176-4511676368-4511676432:4511676624'
p1983
I0
sS'4511676176-4511676240-4511676304-4511676368-4511676560-4511676624:4511676496'
p1984
F53601.0805244297
sS'4511676176-4511676304-4511676432:4511676560'
p1985
F2091.1854337556774
sS'4511676112-4511676304:4511676432'
p1986
F3046.10490387649
sS'4511676240-4511676496-4511676560-4511676624:4511676432'
p1987
F6571.065421511883
sS'4511676112-4511676240-4511676304-4511676432:4511676560'
p1988
F2819.748977790932
sS'4511676112-4511676368-4511676496:4511676432'
p1989
F1532.323367781218
sS'4511676432-4511676496-4511676560:4511676304'
p1990
F402.99620640632565
sS'4511676176-4511676240-4511676304-4511676368-4511676432-4511676496-4511676624:4511676560'
p1991
F253286.97269730375
sS'4511676304-4511676496-4511676560:4511676624'
p1992
I0
sS'4511676240-4511676496:4511676112'
p1993
F3829.8330950270124
sS'4511676112-4511676176-4511676240-4511676432-4511676560-4511676624:4511676496'
p1994
F40992.34702197666
sS'4511676112-4511676176-4511676240-4511676304-4511676432-4511676560-4511676624:4511676368'
p1995
F153131.1924377023
sS'4511676304-4511676432-4511676496-4511676624:4511676112'
p1996
F12321.985847880633
sS'4511676112-4511676176-4511676240-4511676304:4511676432'
p1997
F3130.3192924634427
sS'4511676176-4511676432-4511676560-4511676624:4511676496'
p1998
F6235.875315881585
sS'4511676112-4511676368-4511676432:4511676176'
p1999
F2727.1568830097385
sS'4511676176-4511676304-4511676368-4511676432-4511676560:4511676496'
p2000
F11129.566225301629
sS'4511676176-4511676432:4511676496'
p2001
F1587.4147952222147
sS'4511676112-4511676176-4511676304-4511676432-4511676496-4511676560-4511676624:4511676368'
p2002
F152888.07629128988
sS'4511676176-4511676496:4511676112'
p2003
F3833.954262418673
sS'4511676304:4511676112'
p2004
F4582.469084247143
sS'4511676240-4511676304:4511676176'
p2005
F1515.7336785282591
sS'4511676112-4511676240-4511676304-4511676368-4511676496-4511676560:4511676176'
p2006
F31157.47068056792
sS'4511676176-4511676368-4511676432:4511676240'
p2007
F1672.6234861220655
sS'4511676112-4511676176-4511676496-4511676560-4511676624:4511676368'
p2008
F11215.049923830815
sS'4511676176-4511676240-4511676368-4511676496-4511676560-4511676624:4511676112'
p2009
F42003.46389034119
sS'4511676112-4511676240-4511676304-4511676432-4511676624:4511676176'
p2010
F9656.005186288046
sS'4511676304-4511676368-4511676624:4511676496'
p2011
F4808.15118875689
sS'4511676176-4511676432-4511676560:4511676112'
p2012
F4008.619544840709
sS'4511676112-4511676304-4511676496:4511676368'
p2013
F2327.235911138807
sS'4511676304-4511676368-4511676496-4511676624:4511676560'
p2014
F5649.633598027792
sS'4511676176-4511676240-4511676304-4511676368-4511676496-4511676560-4511676624:4511676432'
p2015
F253203.16247014134
sS'4511676112-4511676240-4511676304-4511676432:4511676496'
p2016
F2618.037655925996
sS'4511676240-4511676304-4511676432:4511676112'
p2017
F4008.47655540708
sS'4511676432:4511676624'
p2018
I0
sS'4511676176-4511676304-4511676496-4511676560:4511676368'
p2019
F3310.667264304168
sS'4511676304-4511676432-4511676496-4511676624:4511676240'
p2020
F10328.322201477164
sS'4511676304-4511676560-4511676624:4511676112'
p2021
F11884.563063202851
sS'4511676176-4511676240-4511676304-4511676368-4511676496:4511676432'
p2022
F11165.129749031406
sS'4511676112-4511676432-4511676560-4511676624:4511676304'
p2023
F1196.4234138507854
sS'4511676176-4511676240-4511676304-4511676368-4511676624:4511676560'
p2024
F13746.316323180365
sS'4511676112-4511676176-4511676240-4511676304-4511676432-4511676496-4511676624:4511676368'
p2025
F153299.0538560053
sS'4511676240-4511676304-4511676560:4511676496'
p2026
F2010.5657471612578
sS'4511676176-4511676304-4511676496-4511676560:4511676432'
p2027
F3430.0832708242438
sS'4511676112-4511676240-4511676496-4511676560-4511676624:4511676304'
p2028
F5684.803645262691
sS'4511676240-4511676304-4511676368-4511676432-4511676560-4511676624:4511676176'
p2029
F53418.94910392396
sS'4511676240-4511676304-4511676368-4511676496-4511676560:4511676112'
p2030
F8709.543655121668
sS'4511676112-4511676176-4511676240-4511676304-4511676624:4511676560'
p2031
F11209.615090652354
sS'4511676240-4511676304-4511676496:4511676624'
p2032
I0
sS'4511676240-4511676432-4511676496-4511676560:4511676112'
p2033
F4966.336402327633
sS'4511676112-4511676368-4511676496-4511676560-4511676624:4511676432'
p2034
F10843.934085997495
sS'4511676432-4511676624:4511676176'
p2035
F9139.189732269168
sS'4511676304-4511676368-4511676496-4511676560:4511676112'
p2036
F4795.045691971627
sS'4511676112-4511676176-4511676560:4511676496'
p2037
F1861.185587756521
sS':4511676432'
p2038
F3581.0332971556163
sS'4511676176-4511676240-4511676560:4511676112'
p2039
F4036.1694015894795
sS'4511676112-4511676176-4511676304-4511676496-4511676560:4511676368'
p2040
F7276.303913959535
sS'4511676176-4511676240-4511676304-4511676432:4511676368'
p2041
F3444.2074764220342
sS'4511676240-4511676304-4511676368-4511676432-4511676624:4511676496'
p2042
F13580.30420192972
sS'4511676240-4511676496-4511676560:4511676624'
p2043
I0
sS'4511676112-4511676176-4511676240-4511676368-4511676560-4511676624:4511676432'
p2044
F41020.5370110724
sS'4511676304-4511676368-4511676432:4511676240'
p2045
F2886.0634166552168
sS'4511676112-4511676304-4511676368-4511676560-4511676624:4511676240'
p2046
F13039.467181062071
sS'4511676176-4511676240-4511676304:4511676496'
p2047
F2411.4087605597624
sS'4511676112-4511676432-4511676560-4511676624:4511676496'
p2048
F5412.043927288317
sS'4511676176-4511676240-4511676560-4511676624:4511676432'
p2049
F7288.9413126204445
sS'4511676112-4511676368-4511676624:4511676432'
p2050
F4417.564886491397
sS'4511676112-4511676368-4511676560-4511676624:4511676176'
p2051
F8668.454989456324
sS'4511676368-4511676432-4511676496-4511676560:4511676240'
p2052
F4890.528222954907
sS'4511676240-4511676304-4511676432-4511676496:4511676112'
p2053
F4750.89125269098
sS'4511676176-4511676304:4511676432'
p2054
F2285.776948936445
sS'4511676112-4511676240-4511676368-4511676496-4511676560:4511676304'
p2055
F5642.7054515980535
sS'4511676368-4511676432-4511676560-4511676624:4511676496'
p2056
F5874.752184146744
sS'4511676176-4511676240-4511676304-4511676560:4511676496'
p2057
F3550.7061109885435
sS'4511676176-4511676240-4511676304-4511676368-4511676496:4511676560'
p2058
F11245.723207323103
sS'4511676112-4511676368-4511676496-4511676560:4511676624'
p2059
I0
sS'4511676240-4511676496-4511676624:4511676432'
p2060
F4869.547265367507
sS'4511676112-4511676176-4511676304-4511676368-4511676432-4511676496:4511676240'
p2061
F31134.51704972527
sS'4511676112-4511676240-4511676496:4511676624'
p2062
I0
sS'4511676176-4511676304-4511676368-4511676560-4511676624:4511676112'
p2063
F15943.944677862612
sS'4511676176-4511676240-4511676368-4511676496-4511676624:4511676112'
p2064
F17087.86245860258
sS'4511676112-4511676304-4511676432-4511676496:4511676624'
p2065
I0
sS'4511676112-4511676176-4511676432-4511676496-4511676560-4511676624:4511676368'
p2066
F40390.73980796789
sS'4511676176-4511676240-4511676304-4511676432-4511676560-4511676624:4511676112'
p2067
F35925.600133886735
sS'4511676176-4511676240-4511676304-4511676624:4511676432'
p2068
F7948.445910969748
sS'4511676176-4511676240-4511676368-4511676432-4511676560-4511676624:4511676496'
p2069
F65708.06793365692
sS'4511676112-4511676240-4511676368-4511676432-4511676560:4511676304'
p2070
F5642.377815114417
sS'4511676240-4511676432-4511676560-4511676624:4511676112'
p2071
F12239.970167057607
sS'4511676112-4511676240-4511676496-4511676560-4511676624:4511676432'
p2072
F11481.894763669521
sS'4511676112-4511676176-4511676368-4511676496-4511676560:4511676624'
p2073
I0
sS'4511676176-4511676240-4511676432-4511676496-4511676560:4511676368'
p2074
F13477.110328618923
sS'4511676112-4511676176-4511676240-4511676304-4511676432-4511676560:4511676496'
p2075
F31218.371227345517
sS'4511676112-4511676368-4511676432-4511676496:4511676176'
p2076
F3863.3225216013648
sS'4511676176-4511676432-4511676496-4511676560:4511676368'
p2077
F3533.70331316331
sS'4511676112-4511676432-4511676624:4511676240'
p2078
F8846.00062692066
sS'4511676240-4511676368-4511676432-4511676496:4511676624'
p2079
I0
sS'4511676176-4511676304-4511676432-4511676496-4511676624:4511676240'
p2080
F13595.496259021675
sS'4511676112-4511676496:4511676560'
p2081
F1822.592485872739
sS'4511676112-4511676240-4511676368-4511676560:4511676496'
p2082
F2763.4997711883802
sS'4511676112-4511676176-4511676240-4511676624:4511676432'
p2083
F7106.602612134741
sS'4511676240-4511676624:4511676112'
p2084
F11606.67192080084
sS'4511676176-4511676432-4511676496-4511676624:4511676112'
p2085
F12209.498143561226
sS'4511676112-4511676176-4511676368-4511676432-4511676496-4511676560:4511676304'
p2086
F28142.327186811566
sS'4511676112-4511676560:4511676368'
p2087
F2212.6412116488436
sS'4511676112-4511676496:4511676368'
p2088
F2149.2099371592462
sS'4511676112-4511676240-4511676304-4511676368-4511676560-4511676624:4511676176'
p2089
F33489.90591553861
sS'4511676176-4511676240-4511676304-4511676496-4511676624:4511676112'
p2090
F15968.091577177493
sS'4511676112-4511676240-4511676368-4511676432-4511676496-4511676560:4511676176'
p2091
F38626.29132140162
sS'4511676240-4511676304-4511676368-4511676560:4511676176'
p2092
F3216.2013930464545
sS'4511676368-4511676496:4511676304'
p2093
F103.90869106673233
sS'4511676240-4511676368-4511676560:4511676176'
p2094
F1716.3873090671657
sS'4511676176-4511676240-4511676432-4511676496:4511676560'
p2095
F3962.9106471563127
sS'4511676112-4511676176-4511676240-4511676432-4511676496-4511676560-4511676624:4511676304'
p2096
F140678.47760986642
sS'4511676240-4511676368-4511676432-4511676496-4511676560:4511676176'
p2097
F13647.201059873601
sS'4511676112-4511676496-4511676560-4511676624:4511676432'
p2098
F5987.72861945156
sS'4511676112-4511676176-4511676304-4511676432-4511676560-4511676624:4511676496'
p2099
F33593.6033183179
sS'4511676240-4511676304-4511676432-4511676496-4511676560-4511676624:4511676368'
p2100
F52981.2762926711
sS'4511676112-4511676240-4511676560:4511676176'
p2101
F1576.7172474340568
sS'4511676176-4511676240-4511676368-4511676496:4511676624'
p2102
I0
sS'4511676112-4511676240-4511676432-4511676496-4511676624:4511676560'
p2103
F11367.361243374127
sS'4511676368-4511676560:4511676240'
p2104
F2589.6618199798377
sS'4511676240-4511676368-4511676624:4511676496'
p2105
F4635.86075594739
sS'4511676112-4511676176-4511676240-4511676368-4511676432-4511676496-4511676560-4511676624:4511676304'
p2106
F758445.7299706925
sS'4511676112-4511676176-4511676368-4511676432-4511676560:4511676624'
p2107
I0
sS'4511676176-4511676240-4511676368-4511676624:4511676496'
p2108
F6456.697236061912
sS'4511676176-4511676368-4511676432-4511676624:4511676560'
p2109
F6157.664632869695
sS'4511676240-4511676304-4511676624:4511676432'
p2110
F6839.8591259655905
sS'4511676112-4511676304-4511676432-4511676560:4511676176'
p2111
F3874.6588384995466
sS'4511676112-4511676304-4511676368-4511676432-4511676496-4511676560-4511676624:4511676240'
p2112
F156752.56327179365
sS'4511676240-4511676304:4511676432'
p2113
F2287.765707310784
sS'4511676112-4511676240-4511676432-4511676496-4511676624:4511676368'
p2114
F10969.127626077823
sS'4511676240-4511676368:4511676560'
p2115
F1513.7939436515555
sS'4511676112-4511676304-4511676368-4511676432-4511676496:4511676240'
p2116
F8346.454648752497
sS'4511676368-4511676560-4511676624:4511676240'
p2117
F7832.564317200587
sS'4511676240-4511676432-4511676496-4511676624:4511676304'
p2118
F1958.3841226473755
sS'4511676112-4511676176-4511676304-4511676368-4511676432:4511676560'
p2119
F7293.251831397768
sS'4511676240-4511676496-4511676560:4511676112'
p2120
F3995.6513535923727
sS'4511676176-4511676304:4511676368'
p2121
F2491.007054379226
sS'4511676304-4511676496-4511676560:4511676432'
p2122
F2005.9988371061518
sS'4511676112-4511676240-4511676304-4511676368-4511676560:4511676624'
p2123
I0
sS'4511676176-4511676368-4511676432-4511676496:4511676624'
p2124
I0
sS'4511676304-4511676432-4511676560:4511676240'
p2125
F3205.6920119656133
sS'4511676368-4511676432-4511676496:4511676560'
p2126
F1791.0724009696842
sS'4511676112-4511676240-4511676304-4511676368-4511676432-4511676560:4511676176'
p2127
F31146.969920605025
sS'4511676432-4511676560:4511676112'
p2128
F3936.4480916631383
sS'4511676112-4511676368-4511676432-4511676496-4511676560:4511676176'
p2129
F9812.289352213593
sS'4511676112-4511676176-4511676240-4511676304-4511676368-4511676496:4511676624'
p2130
I0
sS'4511676112-4511676176-4511676304:4511676432'
p2131
F2305.535523588358
sS'4511676112-4511676240:4511676496'
p2132
F2071.996032462704
sS'4511676112-4511676176-4511676304-4511676560:4511676368'
p2133
F2789.106929557788
sS'4511676112-4511676176-4511676240-4511676368:4511676432'
p2134
F2805.1644744984906
sS'4511676112-4511676176-4511676240-4511676368-4511676432-4511676560:4511676624'
p2135
I0
sS'4511676176-4511676432:4511676112'
p2136
F3866.575329898911
sS'4511676112-4511676304-4511676432:4511676176'
p2137
F3154.364592910585
sS'4511676112-4511676176-4511676304-4511676368-4511676432-4511676624:4511676496'
p2138
F33398.320280193606
sS'4511676304-4511676496-4511676624:4511676176'
p2139
F9501.237021696594
sS'4511676112-4511676368:4511676624'
p2140
I0
sS'4511676112-4511676496-4511676624:4511676176'
p2141
F8946.178367979974
sS'4511676240-4511676304-4511676432-4511676624:4511676112'
p2142
F12130.398542258125
sS'4511676112-4511676432-4511676496-4511676560:4511676624'
p2143
I0
sS'4511676112-4511676176-4511676240-4511676304-4511676624:4511676368'
p2144
F11823.327631663102
sS'4511676496-4511676624:4511676304'
p2145
F167.93970608233246
sS'4511676560:4511676368'
p2146
F2327.901932438057
sS'4511676112-4511676176-4511676368-4511676432:4511676560'
p2147
F2799.5053314552933
sS'4511676176-4511676368-4511676560-4511676624:4511676432'
p2148
F6176.046419434501
sS'4511676240-4511676304-4511676496-4511676560-4511676624:4511676432'
p2149
F14069.120267172151
sS'4511676112-4511676176-4511676304-4511676368-4511676496-4511676560:4511676624'
p2150
I0
sS'4511676112-4511676240-4511676304-4511676368:4511676560'
p2151
F2567.7904566854554
sS'4511676240-4511676304-4511676496-4511676560:4511676432'
p2152
F3424.633232354913
sS'4511676112-4511676368-4511676496-4511676624:4511676432'
p2153
F5002.071665546759
sS'4511676240-4511676368-4511676496:4511676624'
p2154
I0
sS'4511676304-4511676560-4511676624:4511676368'
p2155
F7131.9911717200375
sS'4511676176-4511676304-4511676368-4511676560:4511676496'
p2156
F3278.820735659968
sS'4511676368-4511676496-4511676560-4511676624:4511676240'
p2157
F9659.27209504453
sS'4511676112-4511676368-4511676432:4511676304'
p2158
F250.2793352423048
sS'4511676432-4511676496-4511676560:4511676176'
p2159
F3180.864253441047
sS'4511676304:4511676560'
p2160
F3448.27295322531
sS'4511676112-4511676432-4511676496-4511676560:4511676240'
p2161
F4062.5865177543137
sS'4511676112-4511676368-4511676432-4511676560-4511676624:4511676176'
p2162
F14434.410157764301
sS'4511676112-4511676176-4511676496-4511676624:4511676240'
p2163
F5190.906078431162
sS'4511676240-4511676304-4511676368-4511676432-4511676496:4511676112'
p2164
F8714.234326071635
sS'4511676240-4511676560:4511676368'
p2165
F1704.5006760001318
sS'4511676176-4511676496:4511676560'
p2166
F1686.6400369754779
sS'4511676176-4511676240-4511676304-4511676368-4511676560:4511676112'
p2167
F8722.224791601642
sS'4511676176-4511676240-4511676368-4511676432-4511676496:4511676560'
p2168
F13722.470727614465
sS'4511676176-4511676240-4511676304-4511676560-4511676624:4511676496'
p2169
F14464.07653051361
sS'4511676496-4511676624:4511676432'
p2170
F5267.180895013878
sS'4511676496:4511676432'
p2171
F1795.3625974474667
sS'4511676112-4511676176-4511676240-4511676304-4511676432:4511676496'
p2172
F7373.7647839899655
sS'4511676176-4511676240-4511676304-4511676496-4511676560:4511676432'
p2173
F11386.259428694397
sS'4511676176-4511676304-4511676560:4511676368'
p2174
F2054.7287623415978
sS'4511676176-4511676304-4511676560-4511676624:4511676240'
p2175
F5826.905701987463
sS'4511676176-4511676432-4511676496-4511676560-4511676624:4511676240'
p2176
F15980.318517278067
sS'4511676304-4511676368-4511676496:4511676112'
p2177
F4014.298901320219
sS'4511676112-4511676176-4511676304-4511676368-4511676496-4511676560:4511676240'
p2178
F31130.6160743143
sS'4511676176-4511676304-4511676368-4511676624:4511676432'
p2179
F5863.701289301756
sS'4511676112-4511676176:4511676240'
p2180
F1458.907402916255
sS'4511676112-4511676176-4511676368-4511676624:4511676496'
p2181
F5382.745894018473
sS'4511676112-4511676176-4511676240-4511676368-4511676496-4511676560:4511676304'
p2182
F28142.555258290275
sS'4511676176-4511676560-4511676624:4511676368'
p2183
F5340.853988846217
sS'4511676176-4511676240-4511676432-4511676560-4511676624:4511676304'
p2184
F9435.938802041106
sS'4511676112-4511676240-4511676304-4511676432-4511676560:4511676176'
p2185
F7203.747614164821
sS'4511676112-4511676176-4511676304-4511676368-4511676560-4511676624:4511676240'
p2186
F33370.65020038829
sS'4511676112-4511676304-4511676368-4511676560-4511676624:4511676496'
p2187
F9741.275867438559
sS'4511676112-4511676496-4511676624:4511676560'
p2188
F5078.529602880482
sS'4511676112-4511676240-4511676560:4511676368'
p2189
F1842.2290531953859
sS'4511676112-4511676368-4511676432-4511676496-4511676560-4511676624:4511676304'
p2190
F28186.06834379356
sS'4511676112-4511676176-4511676432-4511676624:4511676240'
p2191
F5176.550957209313
sS'4511676112-4511676240-4511676432-4511676496:4511676176'
p2192
F2704.4671463468426
sS'4511676240:4511676560'
p2193
F2158.566342751911
sS'4511676112-4511676176-4511676304-4511676496-4511676560-4511676624:4511676240'
p2194
F33555.86695647739
sS'4511676176-4511676304-4511676432-4511676496:4511676560'
p2195
F3496.5952006121997
sS'4511676240:4511676624'
p2196
I0
sS'4511676176-4511676368-4511676432-4511676496:4511676112'
p2197
F4963.461966793936
sS'4511676240-4511676304:4511676368'
p2198
F2405.4719895990274
sS'4511676176-4511676240-4511676368-4511676432-4511676560:4511676304'
p2199
F9394.311881919277
sS'4511676112-4511676432-4511676560-4511676624:4511676176'
p2200
F9408.764631325252
sS'4511676112-4511676176-4511676240-4511676304-4511676368-4511676560:4511676624'
p2201
I0
sS'4511676176-4511676304-4511676560-4511676624:4511676112'
p2202
F12164.408270619522
sS'4511676112-4511676176-4511676368-4511676560:4511676624'
p2203
I0
sS'4511676176-4511676304-4511676624:4511676560'
p2204
F6365.7469852794175
sS'4511676112-4511676368-4511676560:4511676624'
p2205
I0
sS':4511676240'
p2206
F4494.831668559068
sS'4511676112-4511676304-4511676368-4511676560:4511676496'
p2207
F2520.2357452125916
sS'4511676112-4511676560-4511676624:4511676240'
p2208
F9144.366909127642
sS'4511676112-4511676176-4511676432-4511676560-4511676624:4511676304'
p2209
F5679.7339325977955
sS'4511676112-4511676176-4511676368-4511676496-4511676560:4511676432'
p2210
F8628.130579188988
sS'4511676112-4511676240-4511676560:4511676496'
p2211
F1852.2229606434703
sS'4511676304-4511676368-4511676496-4511676560-4511676624:4511676432'
p2212
F13402.35544853741
sS'4511676176-4511676240-4511676368-4511676432:4511676496'
p2213
F3701.4571127507143
sS'4511676112-4511676240-4511676432-4511676624:4511676176'
p2214
F5156.880017156972
sS'4511676112-4511676176-4511676240-4511676368-4511676560:4511676432'
p2215
F8754.137544849378
sS'4511676112-4511676176-4511676368-4511676560:4511676240'
p2216
F2655.290084634677
sS'4511676112-4511676240-4511676368-4511676560-4511676624:4511676432'
p2217
F11164.315619241423
sS'4511676176-4511676368-4511676496-4511676560-4511676624:4511676304'
p2218
F9434.412976685868
sS'4511676112-4511676176-4511676432-4511676496:4511676560'
p2219
F2968.375841781272
sS'4511676176-4511676560:4511676368'
p2220
F1756.443875208758
sS'4511676176-4511676304-4511676432:4511676240'
p2221
F1689.508707169061
sS'4511676112-4511676304-4511676432-4511676496-4511676560:4511676368'
p2222
F7259.841420521637
sS'4511676176-4511676240-4511676304-4511676368-4511676432-4511676496-4511676560:4511676112'
p2223
F128663.55582683976
sS'4511676112-4511676176-4511676240-4511676368-4511676432-4511676624:4511676496'
p2224
F40841.38812443165
sS'4511676176-4511676240-4511676432-4511676496-4511676624:4511676112'
p2225
F17143.895852899528
sS'4511676304-4511676368-4511676432-4511676560-4511676624:4511676112'
p2226
F16142.90361265811
sS'4511676240-4511676432-4511676496-4511676624:4511676368'
p2227
F6080.512245949869
sS'4511676176-4511676240-4511676368-4511676496-4511676560:4511676112'
p2228
F9943.07034533488
sS'4511676112-4511676176-4511676304-4511676368:4511676432'
p2229
F2531.688816979867
sS'4511676368:4511676624'
p2230
I0
sS'4511676240-4511676368-4511676432-4511676496-4511676624:4511676304'
p2231
F9452.947423617206
sS'4511676240-4511676304-4511676432-4511676560:4511676368'
p2232
F3175.084238180164
sS'4511676112-4511676304-4511676368-4511676624:4511676560'
p2233
F5235.63413685311
sS'4511676560-4511676624:4511676368'
p2234
F6851.853670175871
sS'4511676112-4511676368-4511676624:4511676176'
p2235
F7787.966034553713
sS'4511676112-4511676176-4511676240-4511676304-4511676560:4511676432'
p2236
F7630.505909592765
sS'4511676112-4511676176-4511676240-4511676496-4511676560:4511676368'
p2237
F8692.145234529848
sS'4511676176-4511676368-4511676432-4511676496:4511676560'
p2238
F3740.459244799445
sS'4511676240-4511676304-4511676368-4511676624:4511676432'
p2239
F5963.348035783295
sS'4511676112-4511676176-4511676368-4511676432:4511676624'
p2240
I0
sS'4511676176-4511676304-4511676560:4511676240'
p2241
F1707.486538740177
sS'4511676112-4511676176-4511676240-4511676304-4511676368:4511676496'
p2242
F7317.754068630789
sS'4511676176-4511676304-4511676432-4511676496-4511676560:4511676112'
p2243
F8717.979253173224
sS'4511676368-4511676496-4511676624:4511676112'
p2244
F11406.31692701543
sS'4511676240-4511676304-4511676368-4511676432-4511676560:4511676176'
p2245
F11166.436803887435
sS'4511676112-4511676176-4511676368-4511676432-4511676496:4511676624'
p2246
I0
sS'4511676112-4511676176-4511676368-4511676432-4511676496-4511676624:4511676240'
p2247
F40811.14685291356
sS'4511676112-4511676176-4511676304-4511676368-4511676496:4511676624'
p2248
I0
sS'4511676112-4511676176-4511676432-4511676560:4511676304'
p2249
F1143.4227433730412
sS'4511676112-4511676240-4511676432-4511676624:4511676304'
p2250
F1202.4946032379983
sS'4511676368-4511676432-4511676496:4511676176'
p2251
F2953.2373968433926
sS'4511676112-4511676304-4511676432-4511676496-4511676624:4511676560'
p2252
F10266.960812349304
sS'4511676176-4511676368-4511676624:4511676496'
p2253
F4547.383294359852
sS'4511676240-4511676624:4511676304'
p2254
F166.2790802321964
sS'4511676112-4511676368:4511676560'
p2255
F1515.3310260202272
sS'4511676176-4511676240-4511676304:4511676368'
p2256
F2556.9955314797944
sS'4511676112-4511676176-4511676240-4511676368-4511676496-4511676624:4511676304'
p2257
F28195.6432498398
sS'4511676240-4511676368-4511676432-4511676624:4511676176'
p2258
F6029.34796804368
sS'4511676304-4511676432-4511676624:4511676560'
p2259
F5724.898232575522
sS'4511676176-4511676304-4511676432-4511676496:4511676240'
p2260
F3232.548513010209
sS'4511676112-4511676304-4511676496:4511676240'
p2261
F3191.850181520773
sS'4511676112-4511676176-4511676368-4511676432-4511676496:4511676240'
p2262
F8634.76904233001
sS'4511676176-4511676304-4511676368-4511676432-4511676560-4511676624:4511676240'
p2263
F53363.708999539645
sS'4511676496:4511676112'
p2264
F3959.89548670337
sS'4511676176-4511676368-4511676560-4511676624:4511676112'
p2265
F12200.449410421104
sS'4511676112-4511676176-4511676624:4511676560'
p2266
F5878.06714304018
sS'4511676304-4511676432-4511676624:4511676368'
p2267
F6400.524389834411
sS'4511676112-4511676176-4511676240-4511676496-4511676624:4511676304'
p2268
F5701.5434932125445
sS'4511676240-4511676368-4511676496-4511676560-4511676624:4511676432'
p2269
F15789.855335642307
sS'4511676176-4511676496-4511676560-4511676624:4511676432'
p2270
F6597.661139834661
sS'4511676112-4511676176-4511676240-4511676368-4511676432-4511676624:4511676560'
p2271
F40969.76740928175
sS'4511676112-4511676240-4511676304-4511676368:4511676624'
p2272
I0
sS'4511676176-4511676240-4511676304-4511676432-4511676560-4511676624:4511676496'
p2273
F53632.569057836576
sS'4511676112-4511676368-4511676432-4511676496-4511676560:4511676304'
p2274
F5645.566205964098
sS'4511676112-4511676304-4511676432-4511676496:4511676240'
p2275
F3918.4405295859956
sS'4511676112-4511676496-4511676624:4511676368'
p2276
F6297.434183435002
sS'4511676176-4511676240-4511676304:4511676560'
p2277
F2389.5747099202517
sS'4511676112-4511676176-4511676432:4511676240'
p2278
F1563.4661370157785
sS'4511676240-4511676368-4511676432-4511676496:4511676304'
p2279
F1901.1864550901778
sS'4511676112-4511676176-4511676240-4511676368-4511676496-4511676560:4511676624'
p2280
I0
sS'4511676176-4511676368:4511676624'
p2281
I0
sS'4511676176-4511676240-4511676304:4511676112'
p2282
F4098.637276829218
sS'4511676304-4511676432-4511676560-4511676624:4511676368'
p2283
F6538.201166919498
sS'4511676176-4511676304-4511676560:4511676112'
p2284
F4008.876210438865
sS'4511676112-4511676176-4511676240-4511676368-4511676432-4511676560:4511676496'
p2285
F38577.53980712768
sS'4511676240-4511676304-4511676432-4511676496-4511676560-4511676624:4511676176'
p2286
F53508.390444442666
sS'4511676176-4511676240-4511676432-4511676624:4511676112'
p2287
F12322.518242550492
sS'4511676112-4511676240-4511676432-4511676560:4511676176'
p2288
F2705.2825433426747
sS'4511676112-4511676176-4511676624:4511676368'
p2289
F6768.229223965942
sS'4511676176-4511676304-4511676368:4511676624'
p2290
I0
sS'4511676112-4511676304-4511676368-4511676496-4511676560:4511676624'
p2291
I0
sS'4511676112-4511676176-4511676240-4511676496-4511676624:4511676560'
p2292
F11566.102212645323
sS'4511676240-4511676304-4511676368:4511676432'
p2293
F1792.4852000389753
sS'4511676112-4511676368-4511676432-4511676496:4511676304'
p2294
F1150.205448042679
sS'4511676112-4511676176-4511676240-4511676368-4511676496:4511676560'
p2295
F8730.4483492868
sS'4511676112-4511676240-4511676304-4511676368-4511676624:4511676432'
p2296
F9877.294882264587
sS'4511676432-4511676496-4511676560:4511676368'
p2297
F1811.943325931201
sS'4511676112-4511676240-4511676432:4511676624'
p2298
I0
sS'4511676112-4511676240-4511676368-4511676432-4511676560:4511676176'
p2299
F8647.12033126747
sS'4511676176-4511676304-4511676368-4511676624:4511676112'
p2300
F12060.0048148932
sS'4511676368-4511676496-4511676624:4511676560'
p2301
F4161.8937649208965
sS'4511676112-4511676240-4511676304-4511676368-4511676432-4511676624:4511676176'
p2302
F33462.72980636103
sS'4511676304-4511676368-4511676496-4511676560-4511676624:4511676240'
p2303
F17144.7619336586
sS'4511676176-4511676304-4511676368-4511676496:4511676560'
p2304
F3263.023770800937
s.